
AMSProject.elf:     file format elf32-avr

Sections:
Idx Name          Size      VMA       LMA       File off  Algn
  0 .data         00000f30  00800200  00005856  000058ea  2**0
                  CONTENTS, ALLOC, LOAD, DATA
  1 .text         00005856  00000000  00000000  00000094  2**1
                  CONTENTS, ALLOC, LOAD, READONLY, CODE
  2 .bss          0000049c  00801130  00801130  0000681a  2**0
                  ALLOC
  3 .comment      0000005c  00000000  00000000  0000681a  2**0
                  CONTENTS, READONLY
  4 .note.gnu.avr.deviceinfo 00000040  00000000  00000000  00006878  2**2
                  CONTENTS, READONLY
  5 .debug_aranges 000003b0  00000000  00000000  000068b8  2**0
                  CONTENTS, READONLY, DEBUGGING
  6 .debug_info   00008754  00000000  00000000  00006c68  2**0
                  CONTENTS, READONLY, DEBUGGING
  7 .debug_abbrev 000018e1  00000000  00000000  0000f3bc  2**0
                  CONTENTS, READONLY, DEBUGGING
  8 .debug_line   00003cd5  00000000  00000000  00010c9d  2**0
                  CONTENTS, READONLY, DEBUGGING
  9 .debug_frame  0000110c  00000000  00000000  00014974  2**2
                  CONTENTS, READONLY, DEBUGGING
 10 .debug_str    000011f7  00000000  00000000  00015a80  2**0
                  CONTENTS, READONLY, DEBUGGING
 11 .debug_loc    0000983d  00000000  00000000  00016c77  2**0
                  CONTENTS, READONLY, DEBUGGING
 12 .debug_ranges 00000490  00000000  00000000  000204b4  2**0
                  CONTENTS, READONLY, DEBUGGING

Disassembly of section .text:

00000000 <__vectors>:
       0:	bc c1       	rjmp	.+888    	; 0x37a <__ctors_end>
       2:	00 00       	nop
       4:	db c1       	rjmp	.+950    	; 0x3bc <__bad_interrupt>
       6:	00 00       	nop
       8:	d9 c1       	rjmp	.+946    	; 0x3bc <__bad_interrupt>
       a:	00 00       	nop
       c:	d7 c1       	rjmp	.+942    	; 0x3bc <__bad_interrupt>
       e:	00 00       	nop
      10:	d5 c1       	rjmp	.+938    	; 0x3bc <__bad_interrupt>
      12:	00 00       	nop
      14:	d3 c1       	rjmp	.+934    	; 0x3bc <__bad_interrupt>
      16:	00 00       	nop
      18:	d1 c1       	rjmp	.+930    	; 0x3bc <__bad_interrupt>
      1a:	00 00       	nop
      1c:	cf c1       	rjmp	.+926    	; 0x3bc <__bad_interrupt>
      1e:	00 00       	nop
      20:	cd c1       	rjmp	.+922    	; 0x3bc <__bad_interrupt>
      22:	00 00       	nop
      24:	cb c1       	rjmp	.+918    	; 0x3bc <__bad_interrupt>
      26:	00 00       	nop
      28:	c9 c1       	rjmp	.+914    	; 0x3bc <__bad_interrupt>
      2a:	00 00       	nop
      2c:	c7 c1       	rjmp	.+910    	; 0x3bc <__bad_interrupt>
      2e:	00 00       	nop
      30:	c5 c1       	rjmp	.+906    	; 0x3bc <__bad_interrupt>
      32:	00 00       	nop
      34:	c3 c1       	rjmp	.+902    	; 0x3bc <__bad_interrupt>
      36:	00 00       	nop
      38:	c1 c1       	rjmp	.+898    	; 0x3bc <__bad_interrupt>
      3a:	00 00       	nop
      3c:	bf c1       	rjmp	.+894    	; 0x3bc <__bad_interrupt>
      3e:	00 00       	nop
      40:	bd c1       	rjmp	.+890    	; 0x3bc <__bad_interrupt>
      42:	00 00       	nop
      44:	bb c1       	rjmp	.+886    	; 0x3bc <__bad_interrupt>
      46:	00 00       	nop
      48:	b9 c1       	rjmp	.+882    	; 0x3bc <__bad_interrupt>
      4a:	00 00       	nop
      4c:	b7 c1       	rjmp	.+878    	; 0x3bc <__bad_interrupt>
      4e:	00 00       	nop
      50:	b5 c1       	rjmp	.+874    	; 0x3bc <__bad_interrupt>
      52:	00 00       	nop
      54:	b3 c1       	rjmp	.+870    	; 0x3bc <__bad_interrupt>
      56:	00 00       	nop
      58:	b1 c1       	rjmp	.+866    	; 0x3bc <__bad_interrupt>
      5a:	00 00       	nop
      5c:	af c1       	rjmp	.+862    	; 0x3bc <__bad_interrupt>
      5e:	00 00       	nop
      60:	ad c1       	rjmp	.+858    	; 0x3bc <__bad_interrupt>
      62:	00 00       	nop
      64:	ab c1       	rjmp	.+854    	; 0x3bc <__bad_interrupt>
      66:	00 00       	nop
      68:	a9 c1       	rjmp	.+850    	; 0x3bc <__bad_interrupt>
      6a:	00 00       	nop
      6c:	a7 c1       	rjmp	.+846    	; 0x3bc <__bad_interrupt>
      6e:	00 00       	nop
      70:	a5 c1       	rjmp	.+842    	; 0x3bc <__bad_interrupt>
      72:	00 00       	nop
      74:	a3 c1       	rjmp	.+838    	; 0x3bc <__bad_interrupt>
      76:	00 00       	nop
      78:	a1 c1       	rjmp	.+834    	; 0x3bc <__bad_interrupt>
      7a:	00 00       	nop
      7c:	9f c1       	rjmp	.+830    	; 0x3bc <__bad_interrupt>
      7e:	00 00       	nop
      80:	9d c1       	rjmp	.+826    	; 0x3bc <__bad_interrupt>
      82:	00 00       	nop
      84:	9b c1       	rjmp	.+822    	; 0x3bc <__bad_interrupt>
      86:	00 00       	nop
      88:	99 c1       	rjmp	.+818    	; 0x3bc <__bad_interrupt>
      8a:	00 00       	nop
      8c:	97 c1       	rjmp	.+814    	; 0x3bc <__bad_interrupt>
      8e:	00 00       	nop
      90:	95 c1       	rjmp	.+810    	; 0x3bc <__bad_interrupt>
      92:	00 00       	nop
      94:	93 c1       	rjmp	.+806    	; 0x3bc <__bad_interrupt>
      96:	00 00       	nop
      98:	91 c1       	rjmp	.+802    	; 0x3bc <__bad_interrupt>
      9a:	00 00       	nop
      9c:	8f c1       	rjmp	.+798    	; 0x3bc <__bad_interrupt>
      9e:	00 00       	nop
      a0:	8d c1       	rjmp	.+794    	; 0x3bc <__bad_interrupt>
      a2:	00 00       	nop
      a4:	8b c1       	rjmp	.+790    	; 0x3bc <__bad_interrupt>
      a6:	00 00       	nop
      a8:	89 c1       	rjmp	.+786    	; 0x3bc <__bad_interrupt>
      aa:	00 00       	nop
      ac:	87 c1       	rjmp	.+782    	; 0x3bc <__bad_interrupt>
      ae:	00 00       	nop
      b0:	85 c1       	rjmp	.+778    	; 0x3bc <__bad_interrupt>
      b2:	00 00       	nop
      b4:	83 c1       	rjmp	.+774    	; 0x3bc <__bad_interrupt>
      b6:	00 00       	nop
      b8:	81 c1       	rjmp	.+770    	; 0x3bc <__bad_interrupt>
      ba:	00 00       	nop
      bc:	7f c1       	rjmp	.+766    	; 0x3bc <__bad_interrupt>
      be:	00 00       	nop
      c0:	7d c1       	rjmp	.+762    	; 0x3bc <__bad_interrupt>
      c2:	00 00       	nop
      c4:	7b c1       	rjmp	.+758    	; 0x3bc <__bad_interrupt>
      c6:	00 00       	nop
      c8:	79 c1       	rjmp	.+754    	; 0x3bc <__bad_interrupt>
      ca:	00 00       	nop
      cc:	77 c1       	rjmp	.+750    	; 0x3bc <__bad_interrupt>
      ce:	00 00       	nop
      d0:	75 c1       	rjmp	.+746    	; 0x3bc <__bad_interrupt>
      d2:	00 00       	nop
      d4:	73 c1       	rjmp	.+742    	; 0x3bc <__bad_interrupt>
      d6:	00 00       	nop
      d8:	71 c1       	rjmp	.+738    	; 0x3bc <__bad_interrupt>
      da:	00 00       	nop
      dc:	6f c1       	rjmp	.+734    	; 0x3bc <__bad_interrupt>
      de:	00 00       	nop
      e0:	6d c1       	rjmp	.+730    	; 0x3bc <__bad_interrupt>
      e2:	00 00       	nop
      e4:	23 18       	sub	r2, r3
      e6:	d2 19       	sub	r29, r2
      e8:	40 18       	sub	r4, r0
      ea:	5d 18       	sub	r5, r13
      ec:	7a 18       	sub	r7, r10
      ee:	97 18       	sub	r9, r7
      f0:	b2 18       	sub	r11, r2
      f2:	cf 18       	sub	r12, r15
      f4:	ec 18       	sub	r14, r12
      f6:	09 19       	sub	r16, r9
      f8:	26 19       	sub	r18, r6
      fa:	43 19       	sub	r20, r3
      fc:	60 19       	sub	r22, r0
      fe:	7d 19       	sub	r23, r13
     100:	9a 19       	sub	r25, r10
     102:	b5 19       	sub	r27, r5
     104:	1c 1a       	sub	r1, r28
     106:	cb 1b       	sub	r28, r27
     108:	39 1a       	sub	r3, r25
     10a:	56 1a       	sub	r5, r22
     10c:	73 1a       	sub	r7, r19
     10e:	90 1a       	sub	r9, r16
     110:	ab 1a       	sub	r10, r27
     112:	c8 1a       	sub	r12, r24
     114:	e5 1a       	sub	r14, r21
     116:	02 1b       	sub	r16, r18
     118:	1f 1b       	sub	r17, r31
     11a:	3c 1b       	sub	r19, r28
     11c:	59 1b       	sub	r21, r25
     11e:	76 1b       	sub	r23, r22
     120:	93 1b       	sub	r25, r19
     122:	ae 1b       	sub	r26, r30
     124:	fd 1b       	sub	r31, r29
     126:	7d 1c       	adc	r7, r13
     128:	04 1c       	adc	r0, r4
     12a:	0c 1c       	adc	r0, r12
     12c:	15 1c       	adc	r1, r5
     12e:	1d 1c       	adc	r1, r13
     130:	25 1c       	adc	r2, r5
     132:	2d 1c       	adc	r2, r13
     134:	36 1c       	adc	r3, r6
     136:	3e 1c       	adc	r3, r14
     138:	46 1c       	adc	r4, r6
     13a:	4e 1c       	adc	r4, r14
     13c:	57 1c       	adc	r5, r7
     13e:	61 1c       	adc	r6, r1
     140:	69 1c       	adc	r6, r9
     142:	73 1c       	adc	r7, r3
     144:	91 1c       	adc	r9, r1
     146:	11 1d       	adc	r17, r1
     148:	98 1c       	adc	r9, r8
     14a:	a0 1c       	adc	r10, r0
     14c:	a9 1c       	adc	r10, r9
     14e:	b1 1c       	adc	r11, r1
     150:	b9 1c       	adc	r11, r9
     152:	c1 1c       	adc	r12, r1
     154:	ca 1c       	adc	r12, r10
     156:	d2 1c       	adc	r13, r2
     158:	da 1c       	adc	r13, r10
     15a:	e2 1c       	adc	r14, r2
     15c:	eb 1c       	adc	r14, r11
     15e:	f5 1c       	adc	r15, r5
     160:	fd 1c       	adc	r15, r13
     162:	07 1d       	adc	r16, r7
     164:	28 1f       	adc	r18, r24
     166:	7d 1f       	adc	r23, r29
     168:	2e 1f       	adc	r18, r30
     16a:	36 1f       	adc	r19, r22
     16c:	3e 1f       	adc	r19, r30
     16e:	46 1f       	adc	r20, r22
     170:	4e 1f       	adc	r20, r30
     172:	56 1f       	adc	r21, r22
     174:	5e 1f       	adc	r21, r30
     176:	66 1f       	adc	r22, r22
     178:	6e 1f       	adc	r22, r30
     17a:	76 1f       	adc	r23, r22
     17c:	d0 1f       	adc	r29, r16
     17e:	d3 1f       	adc	r29, r19
     180:	d3 1f       	adc	r29, r19
     182:	d3 1f       	adc	r29, r19
     184:	d3 1f       	adc	r29, r19
     186:	d3 1f       	adc	r29, r19
     188:	d3 1f       	adc	r29, r19
     18a:	d3 1f       	adc	r29, r19
     18c:	d4 1f       	adc	r29, r20
     18e:	d3 1f       	adc	r29, r19
     190:	d3 1f       	adc	r29, r19
     192:	d3 1f       	adc	r29, r19
     194:	d3 1f       	adc	r29, r19
     196:	d3 1f       	adc	r29, r19
     198:	d3 1f       	adc	r29, r19
     19a:	d3 1f       	adc	r29, r19
     19c:	d3 1f       	adc	r29, r19
     19e:	d3 1f       	adc	r29, r19
     1a0:	d3 1f       	adc	r29, r19
     1a2:	d3 1f       	adc	r29, r19
     1a4:	d3 1f       	adc	r29, r19
     1a6:	d3 1f       	adc	r29, r19
     1a8:	c4 1f       	adc	r28, r20
     1aa:	d3 1f       	adc	r29, r19
     1ac:	d3 1f       	adc	r29, r19
     1ae:	d3 1f       	adc	r29, r19
     1b0:	d3 1f       	adc	r29, r19
     1b2:	d3 1f       	adc	r29, r19
     1b4:	d3 1f       	adc	r29, r19
     1b6:	d3 1f       	adc	r29, r19
     1b8:	d3 1f       	adc	r29, r19
     1ba:	d3 1f       	adc	r29, r19
     1bc:	d3 1f       	adc	r29, r19
     1be:	d3 1f       	adc	r29, r19
     1c0:	d3 1f       	adc	r29, r19
     1c2:	d3 1f       	adc	r29, r19
     1c4:	d3 1f       	adc	r29, r19
     1c6:	d3 1f       	adc	r29, r19
     1c8:	d3 1f       	adc	r29, r19
     1ca:	b2 1f       	adc	r27, r18
     1cc:	d3 1f       	adc	r29, r19
     1ce:	d3 1f       	adc	r29, r19
     1d0:	d3 1f       	adc	r29, r19
     1d2:	d7 1f       	adc	r29, r23
     1d4:	d3 1f       	adc	r29, r19
     1d6:	d3 1f       	adc	r29, r19
     1d8:	b8 1f       	adc	r27, r24
     1da:	cd 1f       	adc	r28, r29
     1dc:	d3 1f       	adc	r29, r19
     1de:	d3 1f       	adc	r29, r19
     1e0:	bb 1f       	adc	r27, r27
     1e2:	ca 1f       	adc	r28, r26
     1e4:	d3 1f       	adc	r29, r19
     1e6:	c7 1f       	adc	r28, r23
     1e8:	d3 1f       	adc	r29, r19
     1ea:	d3 1f       	adc	r29, r19
     1ec:	af 1f       	adc	r26, r31
     1ee:	d3 1f       	adc	r29, r19
     1f0:	b5 1f       	adc	r27, r21
     1f2:	d3 1f       	adc	r29, r19
     1f4:	d3 1f       	adc	r29, r19
     1f6:	d3 1f       	adc	r29, r19
     1f8:	d3 1f       	adc	r29, r19
     1fa:	be 1f       	adc	r27, r30
     1fc:	c1 1f       	adc	r28, r17
     1fe:	07 63       	ori	r16, 0x37	; 55
     200:	42 36       	cpi	r20, 0x62	; 98
     202:	b7 9b       	sbis	0x16, 7	; 22
     204:	d8 a7       	std	Y+40, r29	; 0x28
     206:	1a 39       	cpi	r17, 0x9A	; 154
     208:	68 56       	subi	r22, 0x68	; 104
     20a:	18 ae       	std	Y+56, r1	; 0x38
     20c:	ba ab       	std	Y+50, r27	; 0x32
     20e:	55 8c       	ldd	r5, Z+29	; 0x1d
     210:	1d 3c       	cpi	r17, 0xCD	; 205
     212:	b7 cc       	rjmp	.-1682   	; 0xfffffb82 <__eeprom_end+0xff7efb82>
     214:	57 63       	ori	r21, 0x37	; 55
     216:	bd 6d       	ori	r27, 0xDD	; 221
     218:	ed fd       	.word	0xfded	; ????
     21a:	75 3e       	cpi	r23, 0xE5	; 229
     21c:	f6 17       	cp	r31, r22
     21e:	72 31       	cpi	r23, 0x12	; 18
     220:	bf 00       	.word	0x00bf	; ????
     222:	00 00       	nop
     224:	80 3f       	cpi	r24, 0xF0	; 240
     226:	08 00       	.word	0x0008	; ????
     228:	00 00       	nop
     22a:	be 92       	st	-X, r11
     22c:	24 49       	sbci	r18, 0x94	; 148
     22e:	12 3e       	cpi	r17, 0xE2	; 226
     230:	ab aa       	std	Y+51, r10	; 0x33
     232:	aa 2a       	or	r10, r26
     234:	be cd       	rjmp	.-1156   	; 0xfffffdb2 <__eeprom_end+0xff7efdb2>
     236:	cc cc       	rjmp	.-1640   	; 0xfffffbd0 <__eeprom_end+0xff7efbd0>
     238:	4c 3e       	cpi	r20, 0xEC	; 236
     23a:	00 00       	nop
     23c:	00 80       	ld	r0, Z
     23e:	be ab       	std	Y+54, r27	; 0x36
     240:	aa aa       	std	Y+50, r10	; 0x32
     242:	aa 3e       	cpi	r26, 0xEA	; 234
     244:	00 00       	nop
     246:	00 00       	nop
     248:	bf 00       	.word	0x00bf	; ????
     24a:	00 00       	nop
     24c:	80 3f       	cpi	r24, 0xF0	; 240
     24e:	00 00       	nop
     250:	00 00       	nop
     252:	00 08       	sbc	r0, r0
     254:	41 78       	andi	r20, 0x81	; 129
     256:	d3 bb       	out	0x13, r29	; 19
     258:	43 87       	std	Z+11, r20	; 0x0b
     25a:	d1 13       	cpse	r29, r17
     25c:	3d 19       	sub	r19, r13
     25e:	0e 3c       	cpi	r16, 0xCE	; 206
     260:	c3 bd       	out	0x23, r28	; 35
     262:	42 82       	std	Z+2, r4	; 0x02
     264:	ad 2b       	or	r26, r29
     266:	3e 68       	ori	r19, 0x8E	; 142
     268:	ec 82       	std	Y+4, r14	; 0x04
     26a:	76 be       	out	0x36, r7	; 54
     26c:	d9 8f       	std	Y+25, r29	; 0x19
     26e:	e1 a9       	ldd	r30, Z+49	; 0x31
     270:	3e 4c       	sbci	r19, 0xCE	; 206
     272:	80 ef       	ldi	r24, 0xF0	; 240
     274:	ff be       	out	0x3f, r15	; 63
     276:	01 c4       	rjmp	.+2050   	; 0xa7a <put_fat+0x10>
     278:	ff 7f       	andi	r31, 0xFF	; 255
     27a:	3f 00       	.word	0x003f	; ????
     27c:	00 00       	nop
	...

00000280 <__trampolines_end>:
     280:	00 40       	sbci	r16, 0x00	; 0
     282:	7a 10       	cpse	r7, r10
     284:	f3 5a       	subi	r31, 0xA3	; 163
     286:	00 a0       	ldd	r0, Z+32	; 0x20
     288:	72 4e       	sbci	r23, 0xE2	; 226
     28a:	18 09       	sbc	r17, r8
     28c:	00 10       	cpse	r0, r0
     28e:	a5 d4       	rcall	.+2378   	; 0xbda <put_fat+0x170>
     290:	e8 00       	.word	0x00e8	; ????
     292:	00 e8       	ldi	r16, 0x80	; 128
     294:	76 48       	sbci	r23, 0x86	; 134
     296:	17 00       	.word	0x0017	; ????
     298:	00 e4       	ldi	r16, 0x40	; 64
     29a:	0b 54       	subi	r16, 0x4B	; 75
     29c:	02 00       	.word	0x0002	; ????
     29e:	00 ca       	rjmp	.-3072   	; 0xfffff6a0 <__eeprom_end+0xff7ef6a0>
     2a0:	9a 3b       	cpi	r25, 0xBA	; 186
     2a2:	00 00       	nop
     2a4:	00 e1       	ldi	r16, 0x10	; 16
     2a6:	f5 05       	cpc	r31, r5
     2a8:	00 00       	nop
     2aa:	80 96       	adiw	r24, 0x20	; 32
     2ac:	98 00       	.word	0x0098	; ????
     2ae:	00 00       	nop
     2b0:	40 42       	sbci	r20, 0x20	; 32
     2b2:	0f 00       	.word	0x000f	; ????
     2b4:	00 00       	nop
     2b6:	a0 86       	std	Z+8, r10	; 0x08
     2b8:	01 00       	.word	0x0001	; ????
     2ba:	00 00       	nop
     2bc:	10 27       	eor	r17, r16
     2be:	00 00       	nop
     2c0:	00 00       	nop
     2c2:	e8 03       	fmulsu	r22, r16
     2c4:	00 00       	nop
     2c6:	00 00       	nop
     2c8:	64 00       	.word	0x0064	; ????
     2ca:	00 00       	nop
     2cc:	00 00       	nop
     2ce:	0a 00       	.word	0x000a	; ????
     2d0:	00 00       	nop
     2d2:	00 00       	nop
     2d4:	01 00       	.word	0x0001	; ????
     2d6:	00 00       	nop
     2d8:	00 00       	nop
     2da:	2c 76       	andi	r18, 0x6C	; 108
     2dc:	d8 88       	ldd	r13, Y+16	; 0x10
     2de:	dc 67       	ori	r29, 0x7C	; 124
     2e0:	4f 08       	sbc	r4, r15
     2e2:	23 df       	rcall	.-442    	; 0x12a <__SREG__+0xeb>
     2e4:	c1 df       	rcall	.-126    	; 0x268 <__SREG__+0x229>
     2e6:	ae 59       	subi	r26, 0x9E	; 158
     2e8:	e1 b1       	in	r30, 0x01	; 1
     2ea:	b7 96       	adiw	r30, 0x27	; 39
     2ec:	e5 e3       	ldi	r30, 0x35	; 53
     2ee:	e4 53       	subi	r30, 0x34	; 52
     2f0:	c6 3a       	cpi	r28, 0xA6	; 166
     2f2:	e6 51       	subi	r30, 0x16	; 22
     2f4:	99 76       	andi	r25, 0x69	; 105
     2f6:	96 e8       	ldi	r25, 0x86	; 134
     2f8:	e6 c2       	rjmp	.+1484   	; 0x8c6 <move_window+0x70>
     2fa:	84 26       	eor	r8, r20
     2fc:	eb 89       	ldd	r30, Y+19	; 0x13
     2fe:	8c 9b       	sbis	0x11, 4	; 17
     300:	62 ed       	ldi	r22, 0xD2	; 210
     302:	40 7c       	andi	r20, 0xC0	; 192
     304:	6f fc       	.word	0xfc6f	; ????
     306:	ef bc       	out	0x2f, r14	; 47
     308:	9c 9f       	mul	r25, r28
     30a:	40 f2       	brcs	.-112    	; 0x29c <__trampolines_end+0x1c>
     30c:	ba a5       	ldd	r27, Y+42	; 0x2a
     30e:	6f a5       	ldd	r22, Y+47	; 0x2f
     310:	f4 90       	lpm	r15, Z
     312:	05 5a       	subi	r16, 0xA5	; 165
     314:	2a f7       	brpl	.-54     	; 0x2e0 <__trampolines_end+0x60>
     316:	5c 93       	st	X, r21
     318:	6b 6c       	ori	r22, 0xCB	; 203
     31a:	f9 67       	ori	r31, 0x79	; 121
     31c:	6d c1       	rjmp	.+730    	; 0x5f8 <disk_write+0x3a>
     31e:	1b fc       	.word	0xfc1b	; ????
     320:	e0 e4       	ldi	r30, 0x40	; 64
     322:	0d 47       	sbci	r16, 0x7D	; 125
     324:	fe f5       	brtc	.+126    	; 0x3a4 <__do_clear_bss>
     326:	20 e6       	ldi	r18, 0x60	; 96
     328:	b5 00       	.word	0x00b5	; ????
     32a:	d0 ed       	ldi	r29, 0xD0	; 208
     32c:	90 2e       	mov	r9, r16
     32e:	03 00       	.word	0x0003	; ????
     330:	94 35       	cpi	r25, 0x54	; 84
     332:	77 05       	cpc	r23, r7
     334:	00 80       	ld	r0, Z
     336:	84 1e       	adc	r8, r20
     338:	08 00       	.word	0x0008	; ????
     33a:	00 20       	and	r0, r0
     33c:	4e 0a       	sbc	r4, r30
     33e:	00 00       	nop
     340:	00 c8       	rjmp	.-4096   	; 0xfffff342 <__eeprom_end+0xff7ef342>
     342:	0c 33       	cpi	r16, 0x3C	; 60
     344:	33 33       	cpi	r19, 0x33	; 51
     346:	33 0f       	add	r19, r19
     348:	98 6e       	ori	r25, 0xE8	; 232
     34a:	12 83       	std	Z+2, r17	; 0x02
     34c:	11 41       	sbci	r17, 0x11	; 17
     34e:	ef 8d       	ldd	r30, Y+31	; 0x1f
     350:	21 14       	cp	r2, r1
     352:	89 3b       	cpi	r24, 0xB9	; 185
     354:	e6 55       	subi	r30, 0x56	; 86
     356:	16 cf       	rjmp	.-468    	; 0x184 <__SREG__+0x145>
     358:	fe e6       	ldi	r31, 0x6E	; 110
     35a:	db 18       	sub	r13, r11
     35c:	d1 84       	ldd	r13, Z+9	; 0x09
     35e:	4b 38       	cpi	r20, 0x8B	; 139
     360:	1b f7       	brvc	.-58     	; 0x328 <__trampolines_end+0xa8>
     362:	7c 1d       	adc	r23, r12
     364:	90 1d       	adc	r25, r0
     366:	a4 bb       	out	0x14, r26	; 20
     368:	e4 24       	eor	r14, r4
     36a:	20 32       	cpi	r18, 0x20	; 32
     36c:	84 72       	andi	r24, 0x24	; 36
     36e:	5e 22       	and	r5, r30
     370:	81 00       	.word	0x0081	; ????
     372:	c9 f1       	breq	.+114    	; 0x3e6 <BacLevel+0x12>
     374:	24 ec       	ldi	r18, 0xC4	; 196
     376:	a1 e5       	ldi	r26, 0x51	; 81
     378:	3d 27       	eor	r19, r29

0000037a <__ctors_end>:
     37a:	11 24       	eor	r1, r1
     37c:	1f be       	out	0x3f, r1	; 63
     37e:	cf ef       	ldi	r28, 0xFF	; 255
     380:	d1 e2       	ldi	r29, 0x21	; 33
     382:	de bf       	out	0x3e, r29	; 62
     384:	cd bf       	out	0x3d, r28	; 61
     386:	00 e0       	ldi	r16, 0x00	; 0
     388:	0c bf       	out	0x3c, r16	; 60

0000038a <__do_copy_data>:
     38a:	11 e1       	ldi	r17, 0x11	; 17
     38c:	a0 e0       	ldi	r26, 0x00	; 0
     38e:	b2 e0       	ldi	r27, 0x02	; 2
     390:	e6 e5       	ldi	r30, 0x56	; 86
     392:	f8 e5       	ldi	r31, 0x58	; 88
     394:	00 e0       	ldi	r16, 0x00	; 0
     396:	0b bf       	out	0x3b, r16	; 59
     398:	02 c0       	rjmp	.+4      	; 0x39e <__do_copy_data+0x14>
     39a:	07 90       	elpm	r0, Z+
     39c:	0d 92       	st	X+, r0
     39e:	a0 33       	cpi	r26, 0x30	; 48
     3a0:	b1 07       	cpc	r27, r17
     3a2:	d9 f7       	brne	.-10     	; 0x39a <__do_copy_data+0x10>

000003a4 <__do_clear_bss>:
     3a4:	25 e1       	ldi	r18, 0x15	; 21
     3a6:	a0 e3       	ldi	r26, 0x30	; 48
     3a8:	b1 e1       	ldi	r27, 0x11	; 17
     3aa:	01 c0       	rjmp	.+2      	; 0x3ae <.do_clear_bss_start>

000003ac <.do_clear_bss_loop>:
     3ac:	1d 92       	st	X+, r1

000003ae <.do_clear_bss_start>:
     3ae:	ac 3c       	cpi	r26, 0xCC	; 204
     3b0:	b2 07       	cpc	r27, r18
     3b2:	e1 f7       	brne	.-8      	; 0x3ac <.do_clear_bss_loop>
     3b4:	0e 94 e2 21 	call	0x43c4	; 0x43c4 <main>
     3b8:	0c 94 29 2c 	jmp	0x5852	; 0x5852 <_exit>

000003bc <__bad_interrupt>:
     3bc:	21 ce       	rjmp	.-958    	; 0x0 <__vectors>

000003be <ADC_Init>:
{
	sensorValue = ADCW;
	sensor_volt = (float)sensorValue/adcResolution*voltageRef; //Voltage range = 3.3V da det er fra vores controller board, Resolution = 1023
	rs_gas = ((5.0*R2)/sensor_volt) - R2; //5V da det er på sensor boardet
	R0 = rs_gas / 60;
}
     3be:	87 e4       	ldi	r24, 0x47	; 71
     3c0:	80 93 7c 00 	sts	0x007C, r24	; 0x80007c <__TEXT_REGION_LENGTH__+0x7c007c>
     3c4:	87 ee       	ldi	r24, 0xE7	; 231
     3c6:	80 93 7a 00 	sts	0x007A, r24	; 0x80007a <__TEXT_REGION_LENGTH__+0x7c007a>
     3ca:	10 92 7b 00 	sts	0x007B, r1	; 0x80007b <__TEXT_REGION_LENGTH__+0x7c007b>
     3ce:	08 95       	ret

000003d0 <breathalyzerInit>:
     3d0:	f6 cf       	rjmp	.-20     	; 0x3be <ADC_Init>
     3d2:	08 95       	ret

000003d4 <BacLevel>:

///-bac_start
float BacLevel(){
     3d4:	4f 92       	push	r4
     3d6:	5f 92       	push	r5
     3d8:	6f 92       	push	r6
     3da:	7f 92       	push	r7
     3dc:	8f 92       	push	r8
     3de:	9f 92       	push	r9
     3e0:	af 92       	push	r10
     3e2:	bf 92       	push	r11
     3e4:	cf 92       	push	r12
     3e6:	df 92       	push	r13
     3e8:	ef 92       	push	r14
     3ea:	ff 92       	push	r15
	// Get ADC Value
	sensorValue = ADCW;
     3ec:	60 91 78 00 	lds	r22, 0x0078	; 0x800078 <__TEXT_REGION_LENGTH__+0x7c0078>
     3f0:	70 91 79 00 	lds	r23, 0x0079	; 0x800079 <__TEXT_REGION_LENGTH__+0x7c0079>
     3f4:	80 e0       	ldi	r24, 0x00	; 0
     3f6:	90 e0       	ldi	r25, 0x00	; 0
     3f8:	0e 94 1d 24 	call	0x483a	; 0x483a <__floatunsisf>
     3fc:	6b 01       	movw	r12, r22
     3fe:	7c 01       	movw	r14, r24
     400:	60 93 59 11 	sts	0x1159, r22	; 0x801159 <sensorValue>
     404:	70 93 5a 11 	sts	0x115A, r23	; 0x80115a <sensorValue+0x1>
     408:	80 93 5b 11 	sts	0x115B, r24	; 0x80115b <sensorValue+0x2>
     40c:	90 93 5c 11 	sts	0x115C, r25	; 0x80115c <sensorValue+0x3>
		
	// Recalculate into BAC
	sensor_volt = (float)sensorValue/adcResolution*voltageRef; //Voltage range = 5V from Mega2560, Resolution = 1023
     410:	80 90 00 02 	lds	r8, 0x0200	; 0x800200 <__DATA_REGION_ORIGIN__>
     414:	90 90 01 02 	lds	r9, 0x0201	; 0x800201 <__DATA_REGION_ORIGIN__+0x1>
     418:	a0 90 02 02 	lds	r10, 0x0202	; 0x800202 <__DATA_REGION_ORIGIN__+0x2>
     41c:	b0 90 03 02 	lds	r11, 0x0203	; 0x800203 <__DATA_REGION_ORIGIN__+0x3>
     420:	60 91 04 02 	lds	r22, 0x0204	; 0x800204 <adcResolution>
     424:	70 91 05 02 	lds	r23, 0x0205	; 0x800205 <adcResolution+0x1>
     428:	07 2e       	mov	r0, r23
     42a:	00 0c       	add	r0, r0
     42c:	88 0b       	sbc	r24, r24
     42e:	99 0b       	sbc	r25, r25
     430:	0e 94 1f 24 	call	0x483e	; 0x483e <__floatsisf>
     434:	9b 01       	movw	r18, r22
     436:	ac 01       	movw	r20, r24
     438:	c7 01       	movw	r24, r14
     43a:	b6 01       	movw	r22, r12
     43c:	0e 94 b5 23 	call	0x476a	; 0x476a <__divsf3>
     440:	a5 01       	movw	r20, r10
     442:	94 01       	movw	r18, r8
     444:	0e 94 cf 24 	call	0x499e	; 0x499e <__mulsf3>
     448:	2b 01       	movw	r4, r22
     44a:	3c 01       	movw	r6, r24
     44c:	60 93 61 11 	sts	0x1161, r22	; 0x801161 <sensor_volt>
     450:	70 93 62 11 	sts	0x1162, r23	; 0x801162 <sensor_volt+0x1>
     454:	80 93 63 11 	sts	0x1163, r24	; 0x801163 <sensor_volt+0x2>
     458:	90 93 64 11 	sts	0x1164, r25	; 0x801164 <sensor_volt+0x3>
	
	rs_gas = ((voltageRef*R2)/sensor_volt) - R2;
     45c:	c0 90 06 02 	lds	r12, 0x0206	; 0x800206 <R2>
     460:	d0 90 07 02 	lds	r13, 0x0207	; 0x800207 <R2+0x1>
     464:	e0 90 08 02 	lds	r14, 0x0208	; 0x800208 <R2+0x2>
     468:	f0 90 09 02 	lds	r15, 0x0209	; 0x800209 <R2+0x3>
     46c:	a7 01       	movw	r20, r14
     46e:	96 01       	movw	r18, r12
     470:	c5 01       	movw	r24, r10
     472:	b4 01       	movw	r22, r8
     474:	0e 94 cf 24 	call	0x499e	; 0x499e <__mulsf3>
     478:	a3 01       	movw	r20, r6
     47a:	92 01       	movw	r18, r4
     47c:	0e 94 b5 23 	call	0x476a	; 0x476a <__divsf3>
     480:	a7 01       	movw	r20, r14
     482:	96 01       	movw	r18, r12
     484:	0e 94 4c 23 	call	0x4698	; 0x4698 <__subsf3>
     488:	60 93 5d 11 	sts	0x115D, r22	; 0x80115d <rs_gas>
     48c:	70 93 5e 11 	sts	0x115E, r23	; 0x80115e <rs_gas+0x1>
     490:	80 93 5f 11 	sts	0x115F, r24	; 0x80115f <rs_gas+0x2>
     494:	90 93 60 11 	sts	0x1160, r25	; 0x801160 <rs_gas+0x3>
	ratio = rs_gas/R0;
     498:	20 91 0a 02 	lds	r18, 0x020A	; 0x80020a <R0>
     49c:	30 91 0b 02 	lds	r19, 0x020B	; 0x80020b <R0+0x1>
     4a0:	40 91 0c 02 	lds	r20, 0x020C	; 0x80020c <R0+0x2>
     4a4:	50 91 0d 02 	lds	r21, 0x020D	; 0x80020d <R0+0x3>
     4a8:	0e 94 b5 23 	call	0x476a	; 0x476a <__divsf3>
     4ac:	60 93 55 11 	sts	0x1155, r22	; 0x801155 <ratio>
     4b0:	70 93 56 11 	sts	0x1156, r23	; 0x801156 <ratio+0x1>
     4b4:	80 93 57 11 	sts	0x1157, r24	; 0x801157 <ratio+0x2>
     4b8:	90 93 58 11 	sts	0x1158, r25	; 0x801158 <ratio+0x3>
	double x = 0.4*ratio;
	BAC = pow(x,-1.431); // mg/L
     4bc:	2d ec       	ldi	r18, 0xCD	; 205
     4be:	3c ec       	ldi	r19, 0xCC	; 204
     4c0:	4c ec       	ldi	r20, 0xCC	; 204
     4c2:	5e e3       	ldi	r21, 0x3E	; 62
     4c4:	0e 94 cf 24 	call	0x499e	; 0x499e <__mulsf3>
     4c8:	22 e0       	ldi	r18, 0x02	; 2
     4ca:	3b e2       	ldi	r19, 0x2B	; 43
     4cc:	47 eb       	ldi	r20, 0xB7	; 183
     4ce:	5f eb       	ldi	r21, 0xBF	; 191
     4d0:	0e 94 32 25 	call	0x4a64	; 0x4a64 <pow>
	BAC *= 10; 
     4d4:	20 e0       	ldi	r18, 0x00	; 0
     4d6:	30 e0       	ldi	r19, 0x00	; 0
     4d8:	40 e2       	ldi	r20, 0x20	; 32
     4da:	51 e4       	ldi	r21, 0x41	; 65
     4dc:	0e 94 cf 24 	call	0x499e	; 0x499e <__mulsf3>
     4e0:	60 93 51 11 	sts	0x1151, r22	; 0x801151 <BAC>
     4e4:	70 93 52 11 	sts	0x1152, r23	; 0x801152 <BAC+0x1>
     4e8:	80 93 53 11 	sts	0x1153, r24	; 0x801153 <BAC+0x2>
     4ec:	90 93 54 11 	sts	0x1154, r25	; 0x801154 <BAC+0x3>

	return BAC;
}
     4f0:	ff 90       	pop	r15
     4f2:	ef 90       	pop	r14
     4f4:	df 90       	pop	r13
     4f6:	cf 90       	pop	r12
     4f8:	bf 90       	pop	r11
     4fa:	af 90       	pop	r10
     4fc:	9f 90       	pop	r9
     4fe:	8f 90       	pop	r8
     500:	7f 90       	pop	r7
     502:	6f 90       	pop	r6
     504:	5f 90       	pop	r5
     506:	4f 90       	pop	r4
     508:	08 95       	ret

0000050a <InitButton>:
 */ 
#include "Button.h"

void InitButton(unsigned char pinNumber){
		
	DDRB = pinNumber;						// Initialize digital pins
     50a:	84 b9       	out	0x04, r24	; 4
	PORTB = 0;								// Reset PORTB pin states
     50c:	15 b8       	out	0x05, r1	; 5
     50e:	08 95       	ret

00000510 <readButtonState>:
}


int readButtonState(unsigned int pinNumber){
	return (PINB & (1 << pinNumber));
     510:	23 b1       	in	r18, 0x03	; 3
     512:	41 e0       	ldi	r20, 0x01	; 1
     514:	50 e0       	ldi	r21, 0x00	; 0
     516:	ba 01       	movw	r22, r20
     518:	02 c0       	rjmp	.+4      	; 0x51e <readButtonState+0xe>
     51a:	66 0f       	add	r22, r22
     51c:	77 1f       	adc	r23, r23
     51e:	8a 95       	dec	r24
     520:	e2 f7       	brpl	.-8      	; 0x51a <readButtonState+0xa>
     522:	cb 01       	movw	r24, r22
     524:	30 e0       	ldi	r19, 0x00	; 0
}
     526:	82 23       	and	r24, r18
     528:	93 23       	and	r25, r19
     52a:	08 95       	ret

0000052c <disk_status>:
BYTE pdrv		/* Physical drive nmuber to identify the drive */
)
{
	DSTATUS stat;
	return stat;
}
     52c:	80 e0       	ldi	r24, 0x00	; 0
     52e:	08 95       	ret

00000530 <disk_initialize>:
BYTE pdrv				/* Physical drive nmuber to identify the drive */
)
{
	unsigned char result;

	result = SD_init();
     530:	0e 94 d6 15 	call	0x2bac	; 0x2bac <SD_init>
     534:	91 e0       	ldi	r25, 0x01	; 1
     536:	81 11       	cpse	r24, r1
     538:	01 c0       	rjmp	.+2      	; 0x53c <disk_initialize+0xc>
     53a:	90 e0       	ldi	r25, 0x00	; 0
	} 
	else
	{
		return RES_OK;	
	}
}
     53c:	89 2f       	mov	r24, r25
     53e:	08 95       	ret

00000540 <disk_read>:
BYTE pdrv,		/* Physical drive nmuber to identify the drive */
BYTE *buff,		/* Data buffer to store read data */
LBA_t sector,	/* Start sector in LBA */
UINT count		/* Number of sectors to read */
)
{
     540:	8f 92       	push	r8
     542:	9f 92       	push	r9
     544:	af 92       	push	r10
     546:	bf 92       	push	r11
     548:	cf 92       	push	r12
     54a:	df 92       	push	r13
     54c:	ef 92       	push	r14
     54e:	ff 92       	push	r15
     550:	0f 93       	push	r16
     552:	1f 93       	push	r17
     554:	cf 93       	push	r28
     556:	df 93       	push	r29
     558:	eb 01       	movw	r28, r22
	unsigned char result;

	//		result = MMC_disk_read(buff, sector, count);
	for (unsigned long i = 0; i < count; i++)
     55a:	48 01       	movw	r8, r16
     55c:	a1 2c       	mov	r10, r1
     55e:	b1 2c       	mov	r11, r1
     560:	81 14       	cp	r8, r1
     562:	91 04       	cpc	r9, r1
     564:	a1 04       	cpc	r10, r1
     566:	b1 04       	cpc	r11, r1
     568:	d1 f0       	breq	.+52     	; 0x59e <disk_read+0x5e>
     56a:	82 0e       	add	r8, r18
     56c:	93 1e       	adc	r9, r19
     56e:	a4 1e       	adc	r10, r20
     570:	b5 1e       	adc	r11, r21
     572:	69 01       	movw	r12, r18
     574:	7a 01       	movw	r14, r20
	{
		result = SD_readSingleBlock(sector+i, buff);	// Read block #i
     576:	ae 01       	movw	r20, r28
     578:	c7 01       	movw	r24, r14
     57a:	b6 01       	movw	r22, r12
     57c:	0e 94 68 16 	call	0x2cd0	; 0x2cd0 <SD_readSingleBlock>
		buff += 512;									// Move to next block
     580:	de 5f       	subi	r29, 0xFE	; 254
		
		if (result != 0){								// Check for errors
     582:	81 11       	cpse	r24, r1
     584:	0e c0       	rjmp	.+28     	; 0x5a2 <disk_read+0x62>
     586:	8f ef       	ldi	r24, 0xFF	; 255
     588:	c8 1a       	sub	r12, r24
     58a:	d8 0a       	sbc	r13, r24
     58c:	e8 0a       	sbc	r14, r24
     58e:	f8 0a       	sbc	r15, r24
)
{
	unsigned char result;

	//		result = MMC_disk_read(buff, sector, count);
	for (unsigned long i = 0; i < count; i++)
     590:	c8 14       	cp	r12, r8
     592:	d9 04       	cpc	r13, r9
     594:	ea 04       	cpc	r14, r10
     596:	fb 04       	cpc	r15, r11
     598:	71 f7       	brne	.-36     	; 0x576 <disk_read+0x36>
		
		if (result != 0){								// Check for errors
			return RES_ERROR;	
		}		
	}
	return RES_OK;
     59a:	80 e0       	ldi	r24, 0x00	; 0
     59c:	03 c0       	rjmp	.+6      	; 0x5a4 <disk_read+0x64>
     59e:	80 e0       	ldi	r24, 0x00	; 0
     5a0:	01 c0       	rjmp	.+2      	; 0x5a4 <disk_read+0x64>
	{
		result = SD_readSingleBlock(sector+i, buff);	// Read block #i
		buff += 512;									// Move to next block
		
		if (result != 0){								// Check for errors
			return RES_ERROR;	
     5a2:	81 e0       	ldi	r24, 0x01	; 1
		}		
	}
	return RES_OK;
}
     5a4:	df 91       	pop	r29
     5a6:	cf 91       	pop	r28
     5a8:	1f 91       	pop	r17
     5aa:	0f 91       	pop	r16
     5ac:	ff 90       	pop	r15
     5ae:	ef 90       	pop	r14
     5b0:	df 90       	pop	r13
     5b2:	cf 90       	pop	r12
     5b4:	bf 90       	pop	r11
     5b6:	af 90       	pop	r10
     5b8:	9f 90       	pop	r9
     5ba:	8f 90       	pop	r8
     5bc:	08 95       	ret

000005be <disk_write>:
BYTE pdrv,			/* Physical drive nmuber to identify the drive */
const BYTE *buff,	/* Data to be written */
LBA_t sector,		/* Start sector in LBA */
UINT count			/* Number of sectors to write */
)
{
     5be:	8f 92       	push	r8
     5c0:	9f 92       	push	r9
     5c2:	af 92       	push	r10
     5c4:	bf 92       	push	r11
     5c6:	cf 92       	push	r12
     5c8:	df 92       	push	r13
     5ca:	ef 92       	push	r14
     5cc:	ff 92       	push	r15
     5ce:	0f 93       	push	r16
     5d0:	1f 93       	push	r17
     5d2:	cf 93       	push	r28
     5d4:	df 93       	push	r29
     5d6:	eb 01       	movw	r28, r22
	unsigned char result;

	//   	result = MMC_disk_write(buff, sector, count);
	for (unsigned long i = 0; i<count; i++)
     5d8:	48 01       	movw	r8, r16
     5da:	a1 2c       	mov	r10, r1
     5dc:	b1 2c       	mov	r11, r1
     5de:	81 14       	cp	r8, r1
     5e0:	91 04       	cpc	r9, r1
     5e2:	a1 04       	cpc	r10, r1
     5e4:	b1 04       	cpc	r11, r1
     5e6:	d1 f0       	breq	.+52     	; 0x61c <disk_write+0x5e>
     5e8:	82 0e       	add	r8, r18
     5ea:	93 1e       	adc	r9, r19
     5ec:	a4 1e       	adc	r10, r20
     5ee:	b5 1e       	adc	r11, r21
     5f0:	69 01       	movw	r12, r18
     5f2:	7a 01       	movw	r14, r20
	{
		result = SD_writeSingleBlock(sector+i, buff);	// Write to block #i
     5f4:	ae 01       	movw	r20, r28
     5f6:	c7 01       	movw	r24, r14
     5f8:	b6 01       	movw	r22, r12
     5fa:	0e 94 91 16 	call	0x2d22	; 0x2d22 <SD_writeSingleBlock>
		buff += 512;									// Move to next block
     5fe:	de 5f       	subi	r29, 0xFE	; 254
		
		if (result != 0) {								// Check for errors
     600:	81 11       	cpse	r24, r1
     602:	0e c0       	rjmp	.+28     	; 0x620 <disk_write+0x62>
     604:	8f ef       	ldi	r24, 0xFF	; 255
     606:	c8 1a       	sub	r12, r24
     608:	d8 0a       	sbc	r13, r24
     60a:	e8 0a       	sbc	r14, r24
     60c:	f8 0a       	sbc	r15, r24
)
{
	unsigned char result;

	//   	result = MMC_disk_write(buff, sector, count);
	for (unsigned long i = 0; i<count; i++)
     60e:	c8 14       	cp	r12, r8
     610:	d9 04       	cpc	r13, r9
     612:	ea 04       	cpc	r14, r10
     614:	fb 04       	cpc	r15, r11
     616:	71 f7       	brne	.-36     	; 0x5f4 <disk_write+0x36>
		if (result != 0) {								// Check for errors
			return RES_ERROR;
		}
	}
	
	return RES_OK;
     618:	80 e0       	ldi	r24, 0x00	; 0
     61a:	03 c0       	rjmp	.+6      	; 0x622 <disk_write+0x64>
     61c:	80 e0       	ldi	r24, 0x00	; 0
     61e:	01 c0       	rjmp	.+2      	; 0x622 <disk_write+0x64>
	{
		result = SD_writeSingleBlock(sector+i, buff);	// Write to block #i
		buff += 512;									// Move to next block
		
		if (result != 0) {								// Check for errors
			return RES_ERROR;
     620:	81 e0       	ldi	r24, 0x01	; 1
		}
	}
	
	return RES_OK;
}
     622:	df 91       	pop	r29
     624:	cf 91       	pop	r28
     626:	1f 91       	pop	r17
     628:	0f 91       	pop	r16
     62a:	ff 90       	pop	r15
     62c:	ef 90       	pop	r14
     62e:	df 90       	pop	r13
     630:	cf 90       	pop	r12
     632:	bf 90       	pop	r11
     634:	af 90       	pop	r10
     636:	9f 90       	pop	r9
     638:	8f 90       	pop	r8
     63a:	08 95       	ret

0000063c <disk_ioctl>:
void *buff		/* Buffer to send/receive control data */
)
{
	DRESULT res;
	return res;
     63c:	80 e0       	ldi	r24, 0x00	; 0
     63e:	08 95       	ret

00000640 <ld_dword>:
		mem_cpy(rbuff, fp->buf + fp->fptr % SS(fs), rcnt);	/* Extract partial sector */
#endif
	}

	LEAVE_FF(fs, FR_OK);
}
     640:	fc 01       	movw	r30, r24
     642:	63 81       	ldd	r22, Z+3	; 0x03
     644:	86 2f       	mov	r24, r22
     646:	90 e0       	ldi	r25, 0x00	; 0
     648:	a0 e0       	ldi	r26, 0x00	; 0
     64a:	b0 e0       	ldi	r27, 0x00	; 0
     64c:	ba 2f       	mov	r27, r26
     64e:	a9 2f       	mov	r26, r25
     650:	98 2f       	mov	r25, r24
     652:	88 27       	eor	r24, r24
     654:	22 81       	ldd	r18, Z+2	; 0x02
     656:	82 2b       	or	r24, r18
     658:	ba 2f       	mov	r27, r26
     65a:	a9 2f       	mov	r26, r25
     65c:	98 2f       	mov	r25, r24
     65e:	88 27       	eor	r24, r24
     660:	21 81       	ldd	r18, Z+1	; 0x01
     662:	82 2b       	or	r24, r18
     664:	ba 2f       	mov	r27, r26
     666:	a9 2f       	mov	r26, r25
     668:	98 2f       	mov	r25, r24
     66a:	88 27       	eor	r24, r24
     66c:	20 81       	ld	r18, Z
     66e:	bc 01       	movw	r22, r24
     670:	cd 01       	movw	r24, r26
     672:	62 2b       	or	r22, r18
     674:	08 95       	ret

00000676 <mem_cpy>:
     676:	41 15       	cp	r20, r1
     678:	51 05       	cpc	r21, r1
     67a:	51 f0       	breq	.+20     	; 0x690 <mem_cpy+0x1a>
     67c:	a6 2f       	mov	r26, r22
     67e:	b7 2f       	mov	r27, r23
     680:	fc 01       	movw	r30, r24
     682:	48 0f       	add	r20, r24
     684:	59 1f       	adc	r21, r25
     686:	9d 91       	ld	r25, X+
     688:	91 93       	st	Z+, r25
     68a:	e4 17       	cp	r30, r20
     68c:	f5 07       	cpc	r31, r21
     68e:	d9 f7       	brne	.-10     	; 0x686 <mem_cpy+0x10>
     690:	08 95       	ret

00000692 <clst2sect>:
     692:	0f 93       	push	r16
     694:	1f 93       	push	r17
     696:	fc 01       	movw	r30, r24
     698:	9a 01       	movw	r18, r20
     69a:	ab 01       	movw	r20, r22
     69c:	22 50       	subi	r18, 0x02	; 2
     69e:	31 09       	sbc	r19, r1
     6a0:	41 09       	sbc	r20, r1
     6a2:	51 09       	sbc	r21, r1
     6a4:	83 89       	ldd	r24, Z+19	; 0x13
     6a6:	94 89       	ldd	r25, Z+20	; 0x14
     6a8:	a5 89       	ldd	r26, Z+21	; 0x15
     6aa:	b6 89       	ldd	r27, Z+22	; 0x16
     6ac:	02 97       	sbiw	r24, 0x02	; 2
     6ae:	a1 09       	sbc	r26, r1
     6b0:	b1 09       	sbc	r27, r1
     6b2:	28 17       	cp	r18, r24
     6b4:	39 07       	cpc	r19, r25
     6b6:	4a 07       	cpc	r20, r26
     6b8:	5b 07       	cpc	r21, r27
     6ba:	68 f4       	brcc	.+26     	; 0x6d6 <clst2sect+0x44>
     6bc:	a1 85       	ldd	r26, Z+9	; 0x09
     6be:	b2 85       	ldd	r27, Z+10	; 0x0a
     6c0:	0e 94 c1 26 	call	0x4d82	; 0x4d82 <__muluhisi3>
     6c4:	07 a1       	ldd	r16, Z+39	; 0x27
     6c6:	10 a5       	ldd	r17, Z+40	; 0x28
     6c8:	21 a5       	ldd	r18, Z+41	; 0x29
     6ca:	32 a5       	ldd	r19, Z+42	; 0x2a
     6cc:	60 0f       	add	r22, r16
     6ce:	71 1f       	adc	r23, r17
     6d0:	82 1f       	adc	r24, r18
     6d2:	93 1f       	adc	r25, r19
     6d4:	03 c0       	rjmp	.+6      	; 0x6dc <clst2sect+0x4a>
     6d6:	60 e0       	ldi	r22, 0x00	; 0
     6d8:	70 e0       	ldi	r23, 0x00	; 0
     6da:	cb 01       	movw	r24, r22
     6dc:	1f 91       	pop	r17
     6de:	0f 91       	pop	r16
     6e0:	08 95       	ret

000006e2 <get_ldnumber>:
     6e2:	cf 93       	push	r28
     6e4:	df 93       	push	r29
     6e6:	ec 01       	movw	r28, r24
     6e8:	a8 81       	ld	r26, Y
     6ea:	b9 81       	ldd	r27, Y+1	; 0x01
     6ec:	10 97       	sbiw	r26, 0x00	; 0
     6ee:	f1 f0       	breq	.+60     	; 0x72c <get_ldnumber+0x4a>
     6f0:	9d 01       	movw	r18, r26
     6f2:	2f 5f       	subi	r18, 0xFF	; 255
     6f4:	3f 4f       	sbci	r19, 0xFF	; 255
     6f6:	f9 01       	movw	r30, r18
     6f8:	31 97       	sbiw	r30, 0x01	; 1
     6fa:	90 81       	ld	r25, Z
     6fc:	91 32       	cpi	r25, 0x21	; 33
     6fe:	18 f0       	brcs	.+6      	; 0x706 <get_ldnumber+0x24>
     700:	9a 33       	cpi	r25, 0x3A	; 58
     702:	b9 f7       	brne	.-18     	; 0x6f2 <get_ldnumber+0x10>
     704:	02 c0       	rjmp	.+4      	; 0x70a <get_ldnumber+0x28>
     706:	9a 33       	cpi	r25, 0x3A	; 58
     708:	a1 f4       	brne	.+40     	; 0x732 <get_ldnumber+0x50>
     70a:	8c 91       	ld	r24, X
     70c:	90 ed       	ldi	r25, 0xD0	; 208
     70e:	98 0f       	add	r25, r24
     710:	9a 30       	cpi	r25, 0x0A	; 10
     712:	90 f4       	brcc	.+36     	; 0x738 <get_ldnumber+0x56>
     714:	12 96       	adiw	r26, 0x02	; 2
     716:	2a 17       	cp	r18, r26
     718:	3b 07       	cpc	r19, r27
     71a:	89 f4       	brne	.+34     	; 0x73e <get_ldnumber+0x5c>
     71c:	90 e0       	ldi	r25, 0x00	; 0
     71e:	c0 97       	sbiw	r24, 0x30	; 48
     720:	18 16       	cp	r1, r24
     722:	19 06       	cpc	r1, r25
     724:	7c f0       	brlt	.+30     	; 0x744 <get_ldnumber+0x62>
     726:	39 83       	std	Y+1, r19	; 0x01
     728:	28 83       	st	Y, r18
     72a:	0e c0       	rjmp	.+28     	; 0x748 <get_ldnumber+0x66>
     72c:	8f ef       	ldi	r24, 0xFF	; 255
     72e:	9f ef       	ldi	r25, 0xFF	; 255
     730:	0b c0       	rjmp	.+22     	; 0x748 <get_ldnumber+0x66>
     732:	80 e0       	ldi	r24, 0x00	; 0
     734:	90 e0       	ldi	r25, 0x00	; 0
     736:	08 c0       	rjmp	.+16     	; 0x748 <get_ldnumber+0x66>
     738:	8f ef       	ldi	r24, 0xFF	; 255
     73a:	9f ef       	ldi	r25, 0xFF	; 255
     73c:	05 c0       	rjmp	.+10     	; 0x748 <get_ldnumber+0x66>
     73e:	8f ef       	ldi	r24, 0xFF	; 255
     740:	9f ef       	ldi	r25, 0xFF	; 255
     742:	02 c0       	rjmp	.+4      	; 0x748 <get_ldnumber+0x66>
     744:	8f ef       	ldi	r24, 0xFF	; 255
     746:	9f ef       	ldi	r25, 0xFF	; 255
     748:	df 91       	pop	r29
     74a:	cf 91       	pop	r28
     74c:	08 95       	ret

0000074e <validate>:
     74e:	0f 93       	push	r16
     750:	1f 93       	push	r17
     752:	cf 93       	push	r28
     754:	df 93       	push	r29
     756:	ec 01       	movw	r28, r24
     758:	8b 01       	movw	r16, r22
     75a:	89 2b       	or	r24, r25
     75c:	d9 f0       	breq	.+54     	; 0x794 <validate+0x46>
     75e:	e8 81       	ld	r30, Y
     760:	f9 81       	ldd	r31, Y+1	; 0x01
     762:	30 97       	sbiw	r30, 0x00	; 0
     764:	b9 f0       	breq	.+46     	; 0x794 <validate+0x46>
     766:	80 81       	ld	r24, Z
     768:	88 23       	and	r24, r24
     76a:	a1 f0       	breq	.+40     	; 0x794 <validate+0x46>
     76c:	2a 81       	ldd	r18, Y+2	; 0x02
     76e:	3b 81       	ldd	r19, Y+3	; 0x03
     770:	85 81       	ldd	r24, Z+5	; 0x05
     772:	96 81       	ldd	r25, Z+6	; 0x06
     774:	28 17       	cp	r18, r24
     776:	39 07       	cpc	r19, r25
     778:	69 f4       	brne	.+26     	; 0x794 <validate+0x46>
     77a:	81 81       	ldd	r24, Z+1	; 0x01
     77c:	d7 de       	rcall	.-594    	; 0x52c <disk_status>
     77e:	80 fd       	sbrc	r24, 0
     780:	09 c0       	rjmp	.+18     	; 0x794 <validate+0x46>
     782:	04 c0       	rjmp	.+8      	; 0x78c <validate+0x3e>
     784:	f8 01       	movw	r30, r16
     786:	31 83       	std	Z+1, r19	; 0x01
     788:	20 83       	st	Z, r18
     78a:	08 c0       	rjmp	.+16     	; 0x79c <validate+0x4e>
     78c:	28 81       	ld	r18, Y
     78e:	39 81       	ldd	r19, Y+1	; 0x01
     790:	80 e0       	ldi	r24, 0x00	; 0
     792:	f8 cf       	rjmp	.-16     	; 0x784 <validate+0x36>
     794:	89 e0       	ldi	r24, 0x09	; 9
     796:	20 e0       	ldi	r18, 0x00	; 0
     798:	30 e0       	ldi	r19, 0x00	; 0
     79a:	f4 cf       	rjmp	.-24     	; 0x784 <validate+0x36>
     79c:	df 91       	pop	r29
     79e:	cf 91       	pop	r28
     7a0:	1f 91       	pop	r17
     7a2:	0f 91       	pop	r16
     7a4:	08 95       	ret

000007a6 <sync_window>:
     7a6:	8f 92       	push	r8
     7a8:	9f 92       	push	r9
     7aa:	af 92       	push	r10
     7ac:	bf 92       	push	r11
     7ae:	ef 92       	push	r14
     7b0:	ff 92       	push	r15
     7b2:	0f 93       	push	r16
     7b4:	1f 93       	push	r17
     7b6:	cf 93       	push	r28
     7b8:	df 93       	push	r29
     7ba:	fc 01       	movw	r30, r24
     7bc:	23 81       	ldd	r18, Z+3	; 0x03
     7be:	22 23       	and	r18, r18
     7c0:	c1 f1       	breq	.+112    	; 0x832 <sync_window+0x8c>
     7c2:	ec 01       	movw	r28, r24
     7c4:	7c 01       	movw	r14, r24
     7c6:	ff e2       	ldi	r31, 0x2F	; 47
     7c8:	ef 0e       	add	r14, r31
     7ca:	f1 1c       	adc	r15, r1
     7cc:	2b a5       	ldd	r18, Y+43	; 0x2b
     7ce:	3c a5       	ldd	r19, Y+44	; 0x2c
     7d0:	4d a5       	ldd	r20, Y+45	; 0x2d
     7d2:	5e a5       	ldd	r21, Y+46	; 0x2e
     7d4:	01 e0       	ldi	r16, 0x01	; 1
     7d6:	10 e0       	ldi	r17, 0x00	; 0
     7d8:	b7 01       	movw	r22, r14
     7da:	89 81       	ldd	r24, Y+1	; 0x01
     7dc:	f0 de       	rcall	.-544    	; 0x5be <disk_write>
     7de:	81 11       	cpse	r24, r1
     7e0:	2a c0       	rjmp	.+84     	; 0x836 <sync_window+0x90>
     7e2:	1b 82       	std	Y+3, r1	; 0x03
     7e4:	0b a5       	ldd	r16, Y+43	; 0x2b
     7e6:	1c a5       	ldd	r17, Y+44	; 0x2c
     7e8:	2d a5       	ldd	r18, Y+45	; 0x2d
     7ea:	3e a5       	ldd	r19, Y+46	; 0x2e
     7ec:	8f 89       	ldd	r24, Y+23	; 0x17
     7ee:	98 8d       	ldd	r25, Y+24	; 0x18
     7f0:	a9 8d       	ldd	r26, Y+25	; 0x19
     7f2:	ba 8d       	ldd	r27, Y+26	; 0x1a
     7f4:	8f 8c       	ldd	r8, Y+31	; 0x1f
     7f6:	98 a0       	ldd	r9, Y+32	; 0x20
     7f8:	a9 a0       	ldd	r10, Y+33	; 0x21
     7fa:	ba a0       	ldd	r11, Y+34	; 0x22
     7fc:	b9 01       	movw	r22, r18
     7fe:	a8 01       	movw	r20, r16
     800:	48 19       	sub	r20, r8
     802:	59 09       	sbc	r21, r9
     804:	6a 09       	sbc	r22, r10
     806:	7b 09       	sbc	r23, r11
     808:	48 17       	cp	r20, r24
     80a:	59 07       	cpc	r21, r25
     80c:	6a 07       	cpc	r22, r26
     80e:	7b 07       	cpc	r23, r27
     810:	a0 f4       	brcc	.+40     	; 0x83a <sync_window+0x94>
     812:	6a 81       	ldd	r22, Y+2	; 0x02
     814:	62 30       	cpi	r22, 0x02	; 2
     816:	99 f4       	brne	.+38     	; 0x83e <sync_window+0x98>
     818:	a9 01       	movw	r20, r18
     81a:	98 01       	movw	r18, r16
     81c:	28 0f       	add	r18, r24
     81e:	39 1f       	adc	r19, r25
     820:	4a 1f       	adc	r20, r26
     822:	5b 1f       	adc	r21, r27
     824:	01 e0       	ldi	r16, 0x01	; 1
     826:	10 e0       	ldi	r17, 0x00	; 0
     828:	b7 01       	movw	r22, r14
     82a:	89 81       	ldd	r24, Y+1	; 0x01
     82c:	c8 de       	rcall	.-624    	; 0x5be <disk_write>
     82e:	80 e0       	ldi	r24, 0x00	; 0
     830:	07 c0       	rjmp	.+14     	; 0x840 <sync_window+0x9a>
     832:	80 e0       	ldi	r24, 0x00	; 0
     834:	05 c0       	rjmp	.+10     	; 0x840 <sync_window+0x9a>
     836:	81 e0       	ldi	r24, 0x01	; 1
     838:	03 c0       	rjmp	.+6      	; 0x840 <sync_window+0x9a>
     83a:	80 e0       	ldi	r24, 0x00	; 0
     83c:	01 c0       	rjmp	.+2      	; 0x840 <sync_window+0x9a>
     83e:	80 e0       	ldi	r24, 0x00	; 0
     840:	df 91       	pop	r29
     842:	cf 91       	pop	r28
     844:	1f 91       	pop	r17
     846:	0f 91       	pop	r16
     848:	ff 90       	pop	r15
     84a:	ef 90       	pop	r14
     84c:	bf 90       	pop	r11
     84e:	af 90       	pop	r10
     850:	9f 90       	pop	r9
     852:	8f 90       	pop	r8
     854:	08 95       	ret

00000856 <move_window>:
     856:	8f 92       	push	r8
     858:	9f 92       	push	r9
     85a:	af 92       	push	r10
     85c:	bf 92       	push	r11
     85e:	ff 92       	push	r15
     860:	0f 93       	push	r16
     862:	1f 93       	push	r17
     864:	cf 93       	push	r28
     866:	df 93       	push	r29
     868:	ec 01       	movw	r28, r24
     86a:	4a 01       	movw	r8, r20
     86c:	5b 01       	movw	r10, r22
     86e:	8b a5       	ldd	r24, Y+43	; 0x2b
     870:	9c a5       	ldd	r25, Y+44	; 0x2c
     872:	ad a5       	ldd	r26, Y+45	; 0x2d
     874:	be a5       	ldd	r27, Y+46	; 0x2e
     876:	84 17       	cp	r24, r20
     878:	95 07       	cpc	r25, r21
     87a:	a6 07       	cpc	r26, r22
     87c:	b7 07       	cpc	r27, r23
     87e:	d9 f0       	breq	.+54     	; 0x8b6 <move_window+0x60>
     880:	ce 01       	movw	r24, r28
     882:	91 df       	rcall	.-222    	; 0x7a6 <sync_window>
     884:	f8 2e       	mov	r15, r24
     886:	81 11       	cpse	r24, r1
     888:	17 c0       	rjmp	.+46     	; 0x8b8 <move_window+0x62>
     88a:	01 e0       	ldi	r16, 0x01	; 1
     88c:	10 e0       	ldi	r17, 0x00	; 0
     88e:	a5 01       	movw	r20, r10
     890:	94 01       	movw	r18, r8
     892:	be 01       	movw	r22, r28
     894:	61 5d       	subi	r22, 0xD1	; 209
     896:	7f 4f       	sbci	r23, 0xFF	; 255
     898:	89 81       	ldd	r24, Y+1	; 0x01
     89a:	52 de       	rcall	.-860    	; 0x540 <disk_read>
     89c:	88 23       	and	r24, r24
     89e:	31 f0       	breq	.+12     	; 0x8ac <move_window+0x56>
     8a0:	ff 24       	eor	r15, r15
     8a2:	f3 94       	inc	r15
     8a4:	88 24       	eor	r8, r8
     8a6:	8a 94       	dec	r8
     8a8:	98 2c       	mov	r9, r8
     8aa:	54 01       	movw	r10, r8
     8ac:	8b a6       	std	Y+43, r8	; 0x2b
     8ae:	9c a6       	std	Y+44, r9	; 0x2c
     8b0:	ad a6       	std	Y+45, r10	; 0x2d
     8b2:	be a6       	std	Y+46, r11	; 0x2e
     8b4:	01 c0       	rjmp	.+2      	; 0x8b8 <move_window+0x62>
     8b6:	f1 2c       	mov	r15, r1
     8b8:	8f 2d       	mov	r24, r15
     8ba:	df 91       	pop	r29
     8bc:	cf 91       	pop	r28
     8be:	1f 91       	pop	r17
     8c0:	0f 91       	pop	r16
     8c2:	ff 90       	pop	r15
     8c4:	bf 90       	pop	r11
     8c6:	af 90       	pop	r10
     8c8:	9f 90       	pop	r9
     8ca:	8f 90       	pop	r8
     8cc:	08 95       	ret

000008ce <dir_clear>:
     8ce:	8f 92       	push	r8
     8d0:	9f 92       	push	r9
     8d2:	af 92       	push	r10
     8d4:	bf 92       	push	r11
     8d6:	cf 92       	push	r12
     8d8:	df 92       	push	r13
     8da:	ef 92       	push	r14
     8dc:	ff 92       	push	r15
     8de:	0f 93       	push	r16
     8e0:	1f 93       	push	r17
     8e2:	cf 93       	push	r28
     8e4:	df 93       	push	r29
     8e6:	7c 01       	movw	r14, r24
     8e8:	4a 01       	movw	r8, r20
     8ea:	5b 01       	movw	r10, r22
     8ec:	5c df       	rcall	.-328    	; 0x7a6 <sync_window>
     8ee:	81 11       	cpse	r24, r1
     8f0:	40 c0       	rjmp	.+128    	; 0x972 <dir_clear+0xa4>
     8f2:	b5 01       	movw	r22, r10
     8f4:	a4 01       	movw	r20, r8
     8f6:	c7 01       	movw	r24, r14
     8f8:	cc de       	rcall	.-616    	; 0x692 <clst2sect>
     8fa:	4b 01       	movw	r8, r22
     8fc:	5c 01       	movw	r10, r24
     8fe:	f7 01       	movw	r30, r14
     900:	63 a7       	std	Z+43, r22	; 0x2b
     902:	74 a7       	std	Z+44, r23	; 0x2c
     904:	85 a7       	std	Z+45, r24	; 0x2d
     906:	96 a7       	std	Z+46, r25	; 0x2e
     908:	67 01       	movw	r12, r14
     90a:	ff e2       	ldi	r31, 0x2F	; 47
     90c:	cf 0e       	add	r12, r31
     90e:	d1 1c       	adc	r13, r1
     910:	f6 01       	movw	r30, r12
     912:	c7 01       	movw	r24, r14
     914:	81 5d       	subi	r24, 0xD1	; 209
     916:	9d 4f       	sbci	r25, 0xFD	; 253
     918:	11 92       	st	Z+, r1
     91a:	e8 17       	cp	r30, r24
     91c:	f9 07       	cpc	r31, r25
     91e:	e1 f7       	brne	.-8      	; 0x918 <dir_clear+0x4a>
     920:	f7 01       	movw	r30, r14
     922:	81 85       	ldd	r24, Z+9	; 0x09
     924:	92 85       	ldd	r25, Z+10	; 0x0a
     926:	89 2b       	or	r24, r25
     928:	59 f4       	brne	.+22     	; 0x940 <dir_clear+0x72>
     92a:	c0 e0       	ldi	r28, 0x00	; 0
     92c:	d0 e0       	ldi	r29, 0x00	; 0
     92e:	18 c0       	rjmp	.+48     	; 0x960 <dir_clear+0x92>
     930:	21 96       	adiw	r28, 0x01	; 1
     932:	f7 01       	movw	r30, r14
     934:	81 85       	ldd	r24, Z+9	; 0x09
     936:	92 85       	ldd	r25, Z+10	; 0x0a
     938:	c8 17       	cp	r28, r24
     93a:	d9 07       	cpc	r29, r25
     93c:	18 f0       	brcs	.+6      	; 0x944 <dir_clear+0x76>
     93e:	10 c0       	rjmp	.+32     	; 0x960 <dir_clear+0x92>
     940:	c0 e0       	ldi	r28, 0x00	; 0
     942:	d0 e0       	ldi	r29, 0x00	; 0
     944:	01 e0       	ldi	r16, 0x01	; 1
     946:	10 e0       	ldi	r17, 0x00	; 0
     948:	a5 01       	movw	r20, r10
     94a:	94 01       	movw	r18, r8
     94c:	2c 0f       	add	r18, r28
     94e:	3d 1f       	adc	r19, r29
     950:	41 1d       	adc	r20, r1
     952:	51 1d       	adc	r21, r1
     954:	b6 01       	movw	r22, r12
     956:	f7 01       	movw	r30, r14
     958:	81 81       	ldd	r24, Z+1	; 0x01
     95a:	31 de       	rcall	.-926    	; 0x5be <disk_write>
     95c:	88 23       	and	r24, r24
     95e:	41 f3       	breq	.-48     	; 0x930 <dir_clear+0x62>
     960:	81 e0       	ldi	r24, 0x01	; 1
     962:	f7 01       	movw	r30, r14
     964:	21 85       	ldd	r18, Z+9	; 0x09
     966:	32 85       	ldd	r19, Z+10	; 0x0a
     968:	2c 17       	cp	r18, r28
     96a:	3d 07       	cpc	r19, r29
     96c:	19 f4       	brne	.+6      	; 0x974 <dir_clear+0xa6>
     96e:	80 e0       	ldi	r24, 0x00	; 0
     970:	01 c0       	rjmp	.+2      	; 0x974 <dir_clear+0xa6>
     972:	81 e0       	ldi	r24, 0x01	; 1
     974:	df 91       	pop	r29
     976:	cf 91       	pop	r28
     978:	1f 91       	pop	r17
     97a:	0f 91       	pop	r16
     97c:	ff 90       	pop	r15
     97e:	ef 90       	pop	r14
     980:	df 90       	pop	r13
     982:	cf 90       	pop	r12
     984:	bf 90       	pop	r11
     986:	af 90       	pop	r10
     988:	9f 90       	pop	r9
     98a:	8f 90       	pop	r8
     98c:	08 95       	ret

0000098e <sync_fs>:
     98e:	0f 93       	push	r16
     990:	1f 93       	push	r17
     992:	cf 93       	push	r28
     994:	df 93       	push	r29
     996:	ec 01       	movw	r28, r24
     998:	06 df       	rcall	.-500    	; 0x7a6 <sync_window>
     99a:	98 2f       	mov	r25, r24
     99c:	81 11       	cpse	r24, r1
     99e:	5f c0       	rjmp	.+190    	; 0xa5e <sync_fs+0xd0>
     9a0:	88 81       	ld	r24, Y
     9a2:	83 30       	cpi	r24, 0x03	; 3
     9a4:	09 f0       	breq	.+2      	; 0x9a8 <sync_fs+0x1a>
     9a6:	52 c0       	rjmp	.+164    	; 0xa4c <sync_fs+0xbe>
     9a8:	8c 81       	ldd	r24, Y+4	; 0x04
     9aa:	81 30       	cpi	r24, 0x01	; 1
     9ac:	09 f0       	breq	.+2      	; 0x9b0 <sync_fs+0x22>
     9ae:	4e c0       	rjmp	.+156    	; 0xa4c <sync_fs+0xbe>
     9b0:	be 01       	movw	r22, r28
     9b2:	61 5d       	subi	r22, 0xD1	; 209
     9b4:	7f 4f       	sbci	r23, 0xFF	; 255
     9b6:	fb 01       	movw	r30, r22
     9b8:	ce 01       	movw	r24, r28
     9ba:	81 5d       	subi	r24, 0xD1	; 209
     9bc:	9d 4f       	sbci	r25, 0xFD	; 253
     9be:	11 92       	st	Z+, r1
     9c0:	e8 17       	cp	r30, r24
     9c2:	f9 07       	cpc	r31, r25
     9c4:	e1 f7       	brne	.-8      	; 0x9be <sync_fs+0x30>
     9c6:	85 e5       	ldi	r24, 0x55	; 85
     9c8:	fe 01       	movw	r30, r28
     9ca:	e3 5d       	subi	r30, 0xD3	; 211
     9cc:	fd 4f       	sbci	r31, 0xFD	; 253
     9ce:	80 83       	st	Z, r24
     9d0:	8a ea       	ldi	r24, 0xAA	; 170
     9d2:	31 96       	adiw	r30, 0x01	; 1
     9d4:	80 83       	st	Z, r24
     9d6:	82 e5       	ldi	r24, 0x52	; 82
     9d8:	8f a7       	std	Y+47, r24	; 0x2f
     9da:	88 ab       	std	Y+48, r24	; 0x30
     9dc:	81 e6       	ldi	r24, 0x61	; 97
     9de:	89 ab       	std	Y+49, r24	; 0x31
     9e0:	91 e4       	ldi	r25, 0x41	; 65
     9e2:	9a ab       	std	Y+50, r25	; 0x32
     9e4:	22 e7       	ldi	r18, 0x72	; 114
     9e6:	7b 97       	sbiw	r30, 0x1b	; 27
     9e8:	20 83       	st	Z, r18
     9ea:	31 96       	adiw	r30, 0x01	; 1
     9ec:	20 83       	st	Z, r18
     9ee:	31 96       	adiw	r30, 0x01	; 1
     9f0:	90 83       	st	Z, r25
     9f2:	31 96       	adiw	r30, 0x01	; 1
     9f4:	80 83       	st	Z, r24
     9f6:	3f 85       	ldd	r19, Y+15	; 0x0f
     9f8:	28 89       	ldd	r18, Y+16	; 0x10
     9fa:	99 89       	ldd	r25, Y+17	; 0x11
     9fc:	8a 89       	ldd	r24, Y+18	; 0x12
     9fe:	31 96       	adiw	r30, 0x01	; 1
     a00:	30 83       	st	Z, r19
     a02:	31 96       	adiw	r30, 0x01	; 1
     a04:	20 83       	st	Z, r18
     a06:	31 96       	adiw	r30, 0x01	; 1
     a08:	90 83       	st	Z, r25
     a0a:	31 96       	adiw	r30, 0x01	; 1
     a0c:	80 83       	st	Z, r24
     a0e:	3b 85       	ldd	r19, Y+11	; 0x0b
     a10:	2c 85       	ldd	r18, Y+12	; 0x0c
     a12:	9d 85       	ldd	r25, Y+13	; 0x0d
     a14:	8e 85       	ldd	r24, Y+14	; 0x0e
     a16:	31 96       	adiw	r30, 0x01	; 1
     a18:	30 83       	st	Z, r19
     a1a:	31 96       	adiw	r30, 0x01	; 1
     a1c:	20 83       	st	Z, r18
     a1e:	31 96       	adiw	r30, 0x01	; 1
     a20:	90 83       	st	Z, r25
     a22:	31 96       	adiw	r30, 0x01	; 1
     a24:	80 83       	st	Z, r24
     a26:	8b 8d       	ldd	r24, Y+27	; 0x1b
     a28:	9c 8d       	ldd	r25, Y+28	; 0x1c
     a2a:	ad 8d       	ldd	r26, Y+29	; 0x1d
     a2c:	be 8d       	ldd	r27, Y+30	; 0x1e
     a2e:	9c 01       	movw	r18, r24
     a30:	ad 01       	movw	r20, r26
     a32:	2f 5f       	subi	r18, 0xFF	; 255
     a34:	3f 4f       	sbci	r19, 0xFF	; 255
     a36:	4f 4f       	sbci	r20, 0xFF	; 255
     a38:	5f 4f       	sbci	r21, 0xFF	; 255
     a3a:	2b a7       	std	Y+43, r18	; 0x2b
     a3c:	3c a7       	std	Y+44, r19	; 0x2c
     a3e:	4d a7       	std	Y+45, r20	; 0x2d
     a40:	5e a7       	std	Y+46, r21	; 0x2e
     a42:	01 e0       	ldi	r16, 0x01	; 1
     a44:	10 e0       	ldi	r17, 0x00	; 0
     a46:	89 81       	ldd	r24, Y+1	; 0x01
     a48:	ba dd       	rcall	.-1164   	; 0x5be <disk_write>
     a4a:	1c 82       	std	Y+4, r1	; 0x04
     a4c:	40 e0       	ldi	r20, 0x00	; 0
     a4e:	50 e0       	ldi	r21, 0x00	; 0
     a50:	60 e0       	ldi	r22, 0x00	; 0
     a52:	89 81       	ldd	r24, Y+1	; 0x01
     a54:	f3 dd       	rcall	.-1050   	; 0x63c <disk_ioctl>
     a56:	91 e0       	ldi	r25, 0x01	; 1
     a58:	81 11       	cpse	r24, r1
     a5a:	01 c0       	rjmp	.+2      	; 0xa5e <sync_fs+0xd0>
     a5c:	90 e0       	ldi	r25, 0x00	; 0
     a5e:	89 2f       	mov	r24, r25
     a60:	df 91       	pop	r29
     a62:	cf 91       	pop	r28
     a64:	1f 91       	pop	r17
     a66:	0f 91       	pop	r16
     a68:	08 95       	ret

00000a6a <put_fat>:
     a6a:	2f 92       	push	r2
     a6c:	3f 92       	push	r3
     a6e:	4f 92       	push	r4
     a70:	5f 92       	push	r5
     a72:	6f 92       	push	r6
     a74:	7f 92       	push	r7
     a76:	8f 92       	push	r8
     a78:	9f 92       	push	r9
     a7a:	af 92       	push	r10
     a7c:	bf 92       	push	r11
     a7e:	cf 92       	push	r12
     a80:	df 92       	push	r13
     a82:	ef 92       	push	r14
     a84:	ff 92       	push	r15
     a86:	0f 93       	push	r16
     a88:	1f 93       	push	r17
     a8a:	cf 93       	push	r28
     a8c:	df 93       	push	r29
     a8e:	42 30       	cpi	r20, 0x02	; 2
     a90:	51 05       	cpc	r21, r1
     a92:	61 05       	cpc	r22, r1
     a94:	71 05       	cpc	r23, r1
     a96:	08 f4       	brcc	.+2      	; 0xa9a <put_fat+0x30>
     a98:	cc c0       	rjmp	.+408    	; 0xc32 <put_fat+0x1c8>
     a9a:	fc 01       	movw	r30, r24
     a9c:	c3 88       	ldd	r12, Z+19	; 0x13
     a9e:	d4 88       	ldd	r13, Z+20	; 0x14
     aa0:	e5 88       	ldd	r14, Z+21	; 0x15
     aa2:	f6 88       	ldd	r15, Z+22	; 0x16
     aa4:	4c 15       	cp	r20, r12
     aa6:	5d 05       	cpc	r21, r13
     aa8:	6e 05       	cpc	r22, r14
     aaa:	7f 05       	cpc	r23, r15
     aac:	08 f0       	brcs	.+2      	; 0xab0 <put_fat+0x46>
     aae:	c3 c0       	rjmp	.+390    	; 0xc36 <put_fat+0x1cc>
     ab0:	28 01       	movw	r4, r16
     ab2:	39 01       	movw	r6, r18
     ab4:	6a 01       	movw	r12, r20
     ab6:	7b 01       	movw	r14, r22
     ab8:	ec 01       	movw	r28, r24
     aba:	80 81       	ld	r24, Z
     abc:	82 30       	cpi	r24, 0x02	; 2
     abe:	09 f4       	brne	.+2      	; 0xac2 <put_fat+0x58>
     ac0:	61 c0       	rjmp	.+194    	; 0xb84 <put_fat+0x11a>
     ac2:	83 30       	cpi	r24, 0x03	; 3
     ac4:	09 f4       	brne	.+2      	; 0xac8 <put_fat+0x5e>
     ac6:	7e c0       	rjmp	.+252    	; 0xbc4 <put_fat+0x15a>
     ac8:	81 30       	cpi	r24, 0x01	; 1
     aca:	09 f0       	breq	.+2      	; 0xace <put_fat+0x64>
     acc:	b6 c0       	rjmp	.+364    	; 0xc3a <put_fat+0x1d0>
     ace:	5a 01       	movw	r10, r20
     ad0:	b6 94       	lsr	r11
     ad2:	a7 94       	ror	r10
     ad4:	a4 0e       	add	r10, r20
     ad6:	b5 1e       	adc	r11, r21
     ad8:	c5 01       	movw	r24, r10
     ada:	89 2f       	mov	r24, r25
     adc:	99 27       	eor	r25, r25
     ade:	86 95       	lsr	r24
     ae0:	47 8d       	ldd	r20, Z+31	; 0x1f
     ae2:	50 a1       	ldd	r21, Z+32	; 0x20
     ae4:	61 a1       	ldd	r22, Z+33	; 0x21
     ae6:	72 a1       	ldd	r23, Z+34	; 0x22
     ae8:	48 0f       	add	r20, r24
     aea:	59 1f       	adc	r21, r25
     aec:	61 1d       	adc	r22, r1
     aee:	71 1d       	adc	r23, r1
     af0:	cf 01       	movw	r24, r30
     af2:	b1 de       	rcall	.-670    	; 0x856 <move_window>
     af4:	18 2f       	mov	r17, r24
     af6:	81 11       	cpse	r24, r1
     af8:	c0 c0       	rjmp	.+384    	; 0xc7a <put_fat+0x210>
     afa:	1e 01       	movw	r2, r28
     afc:	ff e2       	ldi	r31, 0x2F	; 47
     afe:	2f 0e       	add	r2, r31
     b00:	31 1c       	adc	r3, r1
     b02:	45 01       	movw	r8, r10
     b04:	2f ef       	ldi	r18, 0xFF	; 255
     b06:	82 1a       	sub	r8, r18
     b08:	92 0a       	sbc	r9, r18
     b0a:	31 e0       	ldi	r19, 0x01	; 1
     b0c:	b3 22       	and	r11, r19
     b0e:	f1 01       	movw	r30, r2
     b10:	ea 0d       	add	r30, r10
     b12:	fb 1d       	adc	r31, r11
     b14:	c0 fe       	sbrs	r12, 0
     b16:	1d c0       	rjmp	.+58     	; 0xb52 <put_fat+0xe8>
     b18:	80 81       	ld	r24, Z
     b1a:	28 2f       	mov	r18, r24
     b1c:	2f 70       	andi	r18, 0x0F	; 15
     b1e:	30 e1       	ldi	r19, 0x10	; 16
     b20:	43 9e       	mul	r4, r19
     b22:	c0 01       	movw	r24, r0
     b24:	11 24       	eor	r1, r1
     b26:	82 2b       	or	r24, r18
     b28:	80 83       	st	Z, r24
     b2a:	81 e0       	ldi	r24, 0x01	; 1
     b2c:	8b 83       	std	Y+3, r24	; 0x03
     b2e:	4f 8d       	ldd	r20, Y+31	; 0x1f
     b30:	58 a1       	ldd	r21, Y+32	; 0x20
     b32:	69 a1       	ldd	r22, Y+33	; 0x21
     b34:	7a a1       	ldd	r23, Y+34	; 0x22
     b36:	c4 01       	movw	r24, r8
     b38:	89 2f       	mov	r24, r25
     b3a:	99 27       	eor	r25, r25
     b3c:	86 95       	lsr	r24
     b3e:	48 0f       	add	r20, r24
     b40:	59 1f       	adc	r21, r25
     b42:	61 1d       	adc	r22, r1
     b44:	71 1d       	adc	r23, r1
     b46:	ce 01       	movw	r24, r28
     b48:	86 de       	rcall	.-756    	; 0x856 <move_window>
     b4a:	88 23       	and	r24, r24
     b4c:	09 f4       	brne	.+2      	; 0xb50 <put_fat+0xe6>
     b4e:	7b c0       	rjmp	.+246    	; 0xc46 <put_fat+0x1dc>
     b50:	76 c0       	rjmp	.+236    	; 0xc3e <put_fat+0x1d4>
     b52:	40 82       	st	Z, r4
     b54:	81 e0       	ldi	r24, 0x01	; 1
     b56:	8b 83       	std	Y+3, r24	; 0x03
     b58:	4f 8d       	ldd	r20, Y+31	; 0x1f
     b5a:	58 a1       	ldd	r21, Y+32	; 0x20
     b5c:	69 a1       	ldd	r22, Y+33	; 0x21
     b5e:	7a a1       	ldd	r23, Y+34	; 0x22
     b60:	c4 01       	movw	r24, r8
     b62:	89 2f       	mov	r24, r25
     b64:	99 27       	eor	r25, r25
     b66:	86 95       	lsr	r24
     b68:	48 0f       	add	r20, r24
     b6a:	59 1f       	adc	r21, r25
     b6c:	61 1d       	adc	r22, r1
     b6e:	71 1d       	adc	r23, r1
     b70:	ce 01       	movw	r24, r28
     b72:	71 de       	rcall	.-798    	; 0x856 <move_window>
     b74:	88 23       	and	r24, r24
     b76:	09 f4       	brne	.+2      	; 0xb7a <put_fat+0x110>
     b78:	74 c0       	rjmp	.+232    	; 0xc62 <put_fat+0x1f8>
     b7a:	63 c0       	rjmp	.+198    	; 0xc42 <put_fat+0x1d8>
     b7c:	40 82       	st	Z, r4
     b7e:	81 e0       	ldi	r24, 0x01	; 1
     b80:	8b 83       	std	Y+3, r24	; 0x03
     b82:	7b c0       	rjmp	.+246    	; 0xc7a <put_fat+0x210>
     b84:	45 2f       	mov	r20, r21
     b86:	56 2f       	mov	r21, r22
     b88:	67 2f       	mov	r22, r23
     b8a:	77 27       	eor	r23, r23
     b8c:	87 8d       	ldd	r24, Z+31	; 0x1f
     b8e:	90 a1       	ldd	r25, Z+32	; 0x20
     b90:	a1 a1       	ldd	r26, Z+33	; 0x21
     b92:	b2 a1       	ldd	r27, Z+34	; 0x22
     b94:	48 0f       	add	r20, r24
     b96:	59 1f       	adc	r21, r25
     b98:	6a 1f       	adc	r22, r26
     b9a:	7b 1f       	adc	r23, r27
     b9c:	cf 01       	movw	r24, r30
     b9e:	5b de       	rcall	.-842    	; 0x856 <move_window>
     ba0:	18 2f       	mov	r17, r24
     ba2:	81 11       	cpse	r24, r1
     ba4:	6a c0       	rjmp	.+212    	; 0xc7a <put_fat+0x210>
     ba6:	fe 01       	movw	r30, r28
     ba8:	bf 96       	adiw	r30, 0x2f	; 47
     baa:	cc 0c       	add	r12, r12
     bac:	dd 1c       	adc	r13, r13
     bae:	e8 94       	clt
     bb0:	c0 f8       	bld	r12, 0
     bb2:	81 e0       	ldi	r24, 0x01	; 1
     bb4:	d8 22       	and	r13, r24
     bb6:	ec 0d       	add	r30, r12
     bb8:	fd 1d       	adc	r31, r13
     bba:	40 82       	st	Z, r4
     bbc:	51 82       	std	Z+1, r5	; 0x01
     bbe:	81 e0       	ldi	r24, 0x01	; 1
     bc0:	8b 83       	std	Y+3, r24	; 0x03
     bc2:	5b c0       	rjmp	.+182    	; 0xc7a <put_fat+0x210>
     bc4:	87 8d       	ldd	r24, Z+31	; 0x1f
     bc6:	90 a1       	ldd	r25, Z+32	; 0x20
     bc8:	a1 a1       	ldd	r26, Z+33	; 0x21
     bca:	b2 a1       	ldd	r27, Z+34	; 0x22
     bcc:	68 94       	set
     bce:	16 f8       	bld	r1, 6
     bd0:	76 95       	lsr	r23
     bd2:	67 95       	ror	r22
     bd4:	57 95       	ror	r21
     bd6:	47 95       	ror	r20
     bd8:	16 94       	lsr	r1
     bda:	d1 f7       	brne	.-12     	; 0xbd0 <put_fat+0x166>
     bdc:	48 0f       	add	r20, r24
     bde:	59 1f       	adc	r21, r25
     be0:	6a 1f       	adc	r22, r26
     be2:	7b 1f       	adc	r23, r27
     be4:	cf 01       	movw	r24, r30
     be6:	37 de       	rcall	.-914    	; 0x856 <move_window>
     be8:	18 2f       	mov	r17, r24
     bea:	81 11       	cpse	r24, r1
     bec:	46 c0       	rjmp	.+140    	; 0xc7a <put_fat+0x210>
     bee:	ef e0       	ldi	r30, 0x0F	; 15
     bf0:	7e 22       	and	r7, r30
     bf2:	ce 01       	movw	r24, r28
     bf4:	8f 96       	adiw	r24, 0x2f	; 47
     bf6:	cc 0c       	add	r12, r12
     bf8:	dd 1c       	adc	r13, r13
     bfa:	cc 0c       	add	r12, r12
     bfc:	dd 1c       	adc	r13, r13
     bfe:	fc ef       	ldi	r31, 0xFC	; 252
     c00:	cf 22       	and	r12, r31
     c02:	f1 e0       	ldi	r31, 0x01	; 1
     c04:	df 22       	and	r13, r31
     c06:	c8 0e       	add	r12, r24
     c08:	d9 1e       	adc	r13, r25
     c0a:	c6 01       	movw	r24, r12
     c0c:	19 dd       	rcall	.-1486   	; 0x640 <ld_dword>
     c0e:	dc 01       	movw	r26, r24
     c10:	cb 01       	movw	r24, r22
     c12:	88 27       	eor	r24, r24
     c14:	99 27       	eor	r25, r25
     c16:	aa 27       	eor	r26, r26
     c18:	b0 7f       	andi	r27, 0xF0	; 240
     c1a:	48 2a       	or	r4, r24
     c1c:	59 2a       	or	r5, r25
     c1e:	6a 2a       	or	r6, r26
     c20:	7b 2a       	or	r7, r27
     c22:	f6 01       	movw	r30, r12
     c24:	40 82       	st	Z, r4
     c26:	51 82       	std	Z+1, r5	; 0x01
     c28:	62 82       	std	Z+2, r6	; 0x02
     c2a:	73 82       	std	Z+3, r7	; 0x03
     c2c:	81 e0       	ldi	r24, 0x01	; 1
     c2e:	8b 83       	std	Y+3, r24	; 0x03
     c30:	24 c0       	rjmp	.+72     	; 0xc7a <put_fat+0x210>
     c32:	12 e0       	ldi	r17, 0x02	; 2
     c34:	22 c0       	rjmp	.+68     	; 0xc7a <put_fat+0x210>
     c36:	12 e0       	ldi	r17, 0x02	; 2
     c38:	20 c0       	rjmp	.+64     	; 0xc7a <put_fat+0x210>
     c3a:	12 e0       	ldi	r17, 0x02	; 2
     c3c:	1e c0       	rjmp	.+60     	; 0xc7a <put_fat+0x210>
     c3e:	18 2f       	mov	r17, r24
     c40:	1c c0       	rjmp	.+56     	; 0xc7a <put_fat+0x210>
     c42:	18 2f       	mov	r17, r24
     c44:	1a c0       	rjmp	.+52     	; 0xc7a <put_fat+0x210>
     c46:	f1 e0       	ldi	r31, 0x01	; 1
     c48:	9f 22       	and	r9, r31
     c4a:	f1 01       	movw	r30, r2
     c4c:	e8 0d       	add	r30, r8
     c4e:	f9 1d       	adc	r31, r9
     c50:	68 94       	set
     c52:	13 f8       	bld	r1, 3
     c54:	76 94       	lsr	r7
     c56:	67 94       	ror	r6
     c58:	57 94       	ror	r5
     c5a:	47 94       	ror	r4
     c5c:	16 94       	lsr	r1
     c5e:	d1 f7       	brne	.-12     	; 0xc54 <put_fat+0x1ea>
     c60:	8d cf       	rjmp	.-230    	; 0xb7c <put_fat+0x112>
     c62:	21 e0       	ldi	r18, 0x01	; 1
     c64:	92 22       	and	r9, r18
     c66:	f1 01       	movw	r30, r2
     c68:	e8 0d       	add	r30, r8
     c6a:	f9 1d       	adc	r31, r9
     c6c:	90 81       	ld	r25, Z
     c6e:	90 7f       	andi	r25, 0xF0	; 240
     c70:	85 2d       	mov	r24, r5
     c72:	8f 70       	andi	r24, 0x0F	; 15
     c74:	49 2e       	mov	r4, r25
     c76:	48 2a       	or	r4, r24
     c78:	81 cf       	rjmp	.-254    	; 0xb7c <put_fat+0x112>
     c7a:	81 2f       	mov	r24, r17
     c7c:	df 91       	pop	r29
     c7e:	cf 91       	pop	r28
     c80:	1f 91       	pop	r17
     c82:	0f 91       	pop	r16
     c84:	ff 90       	pop	r15
     c86:	ef 90       	pop	r14
     c88:	df 90       	pop	r13
     c8a:	cf 90       	pop	r12
     c8c:	bf 90       	pop	r11
     c8e:	af 90       	pop	r10
     c90:	9f 90       	pop	r9
     c92:	8f 90       	pop	r8
     c94:	7f 90       	pop	r7
     c96:	6f 90       	pop	r6
     c98:	5f 90       	pop	r5
     c9a:	4f 90       	pop	r4
     c9c:	3f 90       	pop	r3
     c9e:	2f 90       	pop	r2
     ca0:	08 95       	ret

00000ca2 <st_clust>:
     ca2:	fb 01       	movw	r30, r22
     ca4:	22 8f       	std	Z+26, r18	; 0x1a
     ca6:	33 8f       	std	Z+27, r19	; 0x1b
     ca8:	dc 01       	movw	r26, r24
     caa:	8c 91       	ld	r24, X
     cac:	83 30       	cpi	r24, 0x03	; 3
     cae:	29 f4       	brne	.+10     	; 0xcba <st_clust+0x18>
     cb0:	ca 01       	movw	r24, r20
     cb2:	aa 27       	eor	r26, r26
     cb4:	bb 27       	eor	r27, r27
     cb6:	84 8b       	std	Z+20, r24	; 0x14
     cb8:	95 8b       	std	Z+21, r25	; 0x15
     cba:	08 95       	ret

00000cbc <get_fat>:
     cbc:	af 92       	push	r10
     cbe:	bf 92       	push	r11
     cc0:	cf 92       	push	r12
     cc2:	df 92       	push	r13
     cc4:	ef 92       	push	r14
     cc6:	ff 92       	push	r15
     cc8:	0f 93       	push	r16
     cca:	1f 93       	push	r17
     ccc:	cf 93       	push	r28
     cce:	df 93       	push	r29
     cd0:	42 30       	cpi	r20, 0x02	; 2
     cd2:	51 05       	cpc	r21, r1
     cd4:	61 05       	cpc	r22, r1
     cd6:	71 05       	cpc	r23, r1
     cd8:	08 f4       	brcc	.+2      	; 0xcdc <get_fat+0x20>
     cda:	a1 c0       	rjmp	.+322    	; 0xe1e <get_fat+0x162>
     cdc:	fc 01       	movw	r30, r24
     cde:	c0 81       	ld	r28, Z
     ce0:	d1 81       	ldd	r29, Z+1	; 0x01
     ce2:	8b 89       	ldd	r24, Y+19	; 0x13
     ce4:	9c 89       	ldd	r25, Y+20	; 0x14
     ce6:	ad 89       	ldd	r26, Y+21	; 0x15
     ce8:	be 89       	ldd	r27, Y+22	; 0x16
     cea:	48 17       	cp	r20, r24
     cec:	59 07       	cpc	r21, r25
     cee:	6a 07       	cpc	r22, r26
     cf0:	7b 07       	cpc	r23, r27
     cf2:	08 f0       	brcs	.+2      	; 0xcf6 <get_fat+0x3a>
     cf4:	99 c0       	rjmp	.+306    	; 0xe28 <get_fat+0x16c>
     cf6:	6a 01       	movw	r12, r20
     cf8:	7b 01       	movw	r14, r22
     cfa:	88 81       	ld	r24, Y
     cfc:	82 30       	cpi	r24, 0x02	; 2
     cfe:	09 f4       	brne	.+2      	; 0xd02 <get_fat+0x46>
     d00:	4b c0       	rjmp	.+150    	; 0xd98 <get_fat+0xdc>
     d02:	83 30       	cpi	r24, 0x03	; 3
     d04:	09 f4       	brne	.+2      	; 0xd08 <get_fat+0x4c>
     d06:	69 c0       	rjmp	.+210    	; 0xdda <get_fat+0x11e>
     d08:	81 30       	cpi	r24, 0x01	; 1
     d0a:	09 f0       	breq	.+2      	; 0xd0e <get_fat+0x52>
     d0c:	92 c0       	rjmp	.+292    	; 0xe32 <get_fat+0x176>
     d0e:	8a 01       	movw	r16, r20
     d10:	16 95       	lsr	r17
     d12:	07 95       	ror	r16
     d14:	04 0f       	add	r16, r20
     d16:	15 1f       	adc	r17, r21
     d18:	c8 01       	movw	r24, r16
     d1a:	89 2f       	mov	r24, r25
     d1c:	99 27       	eor	r25, r25
     d1e:	86 95       	lsr	r24
     d20:	4f 8d       	ldd	r20, Y+31	; 0x1f
     d22:	58 a1       	ldd	r21, Y+32	; 0x20
     d24:	69 a1       	ldd	r22, Y+33	; 0x21
     d26:	7a a1       	ldd	r23, Y+34	; 0x22
     d28:	48 0f       	add	r20, r24
     d2a:	59 1f       	adc	r21, r25
     d2c:	61 1d       	adc	r22, r1
     d2e:	71 1d       	adc	r23, r1
     d30:	ce 01       	movw	r24, r28
     d32:	91 dd       	rcall	.-1246   	; 0x856 <move_window>
     d34:	81 11       	cpse	r24, r1
     d36:	82 c0       	rjmp	.+260    	; 0xe3c <get_fat+0x180>
     d38:	58 01       	movw	r10, r16
     d3a:	ff ef       	ldi	r31, 0xFF	; 255
     d3c:	af 1a       	sub	r10, r31
     d3e:	bf 0a       	sbc	r11, r31
     d40:	11 70       	andi	r17, 0x01	; 1
     d42:	fe 01       	movw	r30, r28
     d44:	e0 0f       	add	r30, r16
     d46:	f1 1f       	adc	r31, r17
     d48:	17 a5       	ldd	r17, Z+47	; 0x2f
     d4a:	c5 01       	movw	r24, r10
     d4c:	89 2f       	mov	r24, r25
     d4e:	99 27       	eor	r25, r25
     d50:	86 95       	lsr	r24
     d52:	4f 8d       	ldd	r20, Y+31	; 0x1f
     d54:	58 a1       	ldd	r21, Y+32	; 0x20
     d56:	69 a1       	ldd	r22, Y+33	; 0x21
     d58:	7a a1       	ldd	r23, Y+34	; 0x22
     d5a:	48 0f       	add	r20, r24
     d5c:	59 1f       	adc	r21, r25
     d5e:	61 1d       	adc	r22, r1
     d60:	71 1d       	adc	r23, r1
     d62:	ce 01       	movw	r24, r28
     d64:	78 dd       	rcall	.-1296   	; 0x856 <move_window>
     d66:	81 11       	cpse	r24, r1
     d68:	6d c0       	rjmp	.+218    	; 0xe44 <get_fat+0x188>
     d6a:	81 e0       	ldi	r24, 0x01	; 1
     d6c:	b8 22       	and	r11, r24
     d6e:	ca 0d       	add	r28, r10
     d70:	db 1d       	adc	r29, r11
     d72:	8f a5       	ldd	r24, Y+47	; 0x2f
     d74:	61 2f       	mov	r22, r17
     d76:	70 e0       	ldi	r23, 0x00	; 0
     d78:	78 2b       	or	r23, r24
     d7a:	c0 fe       	sbrs	r12, 0
     d7c:	09 c0       	rjmp	.+18     	; 0xd90 <get_fat+0xd4>
     d7e:	72 95       	swap	r23
     d80:	62 95       	swap	r22
     d82:	6f 70       	andi	r22, 0x0F	; 15
     d84:	67 27       	eor	r22, r23
     d86:	7f 70       	andi	r23, 0x0F	; 15
     d88:	67 27       	eor	r22, r23
     d8a:	80 e0       	ldi	r24, 0x00	; 0
     d8c:	90 e0       	ldi	r25, 0x00	; 0
     d8e:	65 c0       	rjmp	.+202    	; 0xe5a <get_fat+0x19e>
     d90:	7f 70       	andi	r23, 0x0F	; 15
     d92:	80 e0       	ldi	r24, 0x00	; 0
     d94:	90 e0       	ldi	r25, 0x00	; 0
     d96:	61 c0       	rjmp	.+194    	; 0xe5a <get_fat+0x19e>
     d98:	45 2f       	mov	r20, r21
     d9a:	56 2f       	mov	r21, r22
     d9c:	67 2f       	mov	r22, r23
     d9e:	77 27       	eor	r23, r23
     da0:	8f 8d       	ldd	r24, Y+31	; 0x1f
     da2:	98 a1       	ldd	r25, Y+32	; 0x20
     da4:	a9 a1       	ldd	r26, Y+33	; 0x21
     da6:	ba a1       	ldd	r27, Y+34	; 0x22
     da8:	48 0f       	add	r20, r24
     daa:	59 1f       	adc	r21, r25
     dac:	6a 1f       	adc	r22, r26
     dae:	7b 1f       	adc	r23, r27
     db0:	ce 01       	movw	r24, r28
     db2:	51 dd       	rcall	.-1374   	; 0x856 <move_window>
     db4:	81 11       	cpse	r24, r1
     db6:	4a c0       	rjmp	.+148    	; 0xe4c <get_fat+0x190>
     db8:	af 96       	adiw	r28, 0x2f	; 47
     dba:	a6 01       	movw	r20, r12
     dbc:	44 0f       	add	r20, r20
     dbe:	55 1f       	adc	r21, r21
     dc0:	4e 7f       	andi	r20, 0xFE	; 254
     dc2:	51 70       	andi	r21, 0x01	; 1
     dc4:	c4 0f       	add	r28, r20
     dc6:	d5 1f       	adc	r29, r21
     dc8:	69 81       	ldd	r22, Y+1	; 0x01
     dca:	70 e0       	ldi	r23, 0x00	; 0
     dcc:	76 2f       	mov	r23, r22
     dce:	66 27       	eor	r22, r22
     dd0:	88 81       	ld	r24, Y
     dd2:	68 2b       	or	r22, r24
     dd4:	80 e0       	ldi	r24, 0x00	; 0
     dd6:	90 e0       	ldi	r25, 0x00	; 0
     dd8:	40 c0       	rjmp	.+128    	; 0xe5a <get_fat+0x19e>
     dda:	8f 8d       	ldd	r24, Y+31	; 0x1f
     ddc:	98 a1       	ldd	r25, Y+32	; 0x20
     dde:	a9 a1       	ldd	r26, Y+33	; 0x21
     de0:	ba a1       	ldd	r27, Y+34	; 0x22
     de2:	68 94       	set
     de4:	16 f8       	bld	r1, 6
     de6:	76 95       	lsr	r23
     de8:	67 95       	ror	r22
     dea:	57 95       	ror	r21
     dec:	47 95       	ror	r20
     dee:	16 94       	lsr	r1
     df0:	d1 f7       	brne	.-12     	; 0xde6 <get_fat+0x12a>
     df2:	48 0f       	add	r20, r24
     df4:	59 1f       	adc	r21, r25
     df6:	6a 1f       	adc	r22, r26
     df8:	7b 1f       	adc	r23, r27
     dfa:	ce 01       	movw	r24, r28
     dfc:	2c dd       	rcall	.-1448   	; 0x856 <move_window>
     dfe:	81 11       	cpse	r24, r1
     e00:	29 c0       	rjmp	.+82     	; 0xe54 <get_fat+0x198>
     e02:	af 96       	adiw	r28, 0x2f	; 47
     e04:	a6 01       	movw	r20, r12
     e06:	44 0f       	add	r20, r20
     e08:	55 1f       	adc	r21, r21
     e0a:	44 0f       	add	r20, r20
     e0c:	55 1f       	adc	r21, r21
     e0e:	ca 01       	movw	r24, r20
     e10:	8c 7f       	andi	r24, 0xFC	; 252
     e12:	91 70       	andi	r25, 0x01	; 1
     e14:	8c 0f       	add	r24, r28
     e16:	9d 1f       	adc	r25, r29
     e18:	13 dc       	rcall	.-2010   	; 0x640 <ld_dword>
     e1a:	9f 70       	andi	r25, 0x0F	; 15
     e1c:	1e c0       	rjmp	.+60     	; 0xe5a <get_fat+0x19e>
     e1e:	61 e0       	ldi	r22, 0x01	; 1
     e20:	70 e0       	ldi	r23, 0x00	; 0
     e22:	80 e0       	ldi	r24, 0x00	; 0
     e24:	90 e0       	ldi	r25, 0x00	; 0
     e26:	19 c0       	rjmp	.+50     	; 0xe5a <get_fat+0x19e>
     e28:	61 e0       	ldi	r22, 0x01	; 1
     e2a:	70 e0       	ldi	r23, 0x00	; 0
     e2c:	80 e0       	ldi	r24, 0x00	; 0
     e2e:	90 e0       	ldi	r25, 0x00	; 0
     e30:	14 c0       	rjmp	.+40     	; 0xe5a <get_fat+0x19e>
     e32:	61 e0       	ldi	r22, 0x01	; 1
     e34:	70 e0       	ldi	r23, 0x00	; 0
     e36:	80 e0       	ldi	r24, 0x00	; 0
     e38:	90 e0       	ldi	r25, 0x00	; 0
     e3a:	0f c0       	rjmp	.+30     	; 0xe5a <get_fat+0x19e>
     e3c:	6f ef       	ldi	r22, 0xFF	; 255
     e3e:	7f ef       	ldi	r23, 0xFF	; 255
     e40:	cb 01       	movw	r24, r22
     e42:	0b c0       	rjmp	.+22     	; 0xe5a <get_fat+0x19e>
     e44:	6f ef       	ldi	r22, 0xFF	; 255
     e46:	7f ef       	ldi	r23, 0xFF	; 255
     e48:	cb 01       	movw	r24, r22
     e4a:	07 c0       	rjmp	.+14     	; 0xe5a <get_fat+0x19e>
     e4c:	6f ef       	ldi	r22, 0xFF	; 255
     e4e:	7f ef       	ldi	r23, 0xFF	; 255
     e50:	cb 01       	movw	r24, r22
     e52:	03 c0       	rjmp	.+6      	; 0xe5a <get_fat+0x19e>
     e54:	6f ef       	ldi	r22, 0xFF	; 255
     e56:	7f ef       	ldi	r23, 0xFF	; 255
     e58:	cb 01       	movw	r24, r22
     e5a:	df 91       	pop	r29
     e5c:	cf 91       	pop	r28
     e5e:	1f 91       	pop	r17
     e60:	0f 91       	pop	r16
     e62:	ff 90       	pop	r15
     e64:	ef 90       	pop	r14
     e66:	df 90       	pop	r13
     e68:	cf 90       	pop	r12
     e6a:	bf 90       	pop	r11
     e6c:	af 90       	pop	r10
     e6e:	08 95       	ret

00000e70 <dir_sdi>:
     e70:	4f 92       	push	r4
     e72:	5f 92       	push	r5
     e74:	6f 92       	push	r6
     e76:	7f 92       	push	r7
     e78:	8f 92       	push	r8
     e7a:	9f 92       	push	r9
     e7c:	af 92       	push	r10
     e7e:	bf 92       	push	r11
     e80:	cf 92       	push	r12
     e82:	df 92       	push	r13
     e84:	ef 92       	push	r14
     e86:	ff 92       	push	r15
     e88:	0f 93       	push	r16
     e8a:	1f 93       	push	r17
     e8c:	cf 93       	push	r28
     e8e:	df 93       	push	r29
     e90:	ec 01       	movw	r28, r24
     e92:	6a 01       	movw	r12, r20
     e94:	7b 01       	movw	r14, r22
     e96:	41 15       	cp	r20, r1
     e98:	51 05       	cpc	r21, r1
     e9a:	80 e2       	ldi	r24, 0x20	; 32
     e9c:	68 07       	cpc	r22, r24
     e9e:	71 05       	cpc	r23, r1
     ea0:	08 f0       	brcs	.+2      	; 0xea4 <dir_sdi+0x34>
     ea2:	b1 c0       	rjmp	.+354    	; 0x1006 <__EEPROM_REGION_LENGTH__+0x6>
     ea4:	db 01       	movw	r26, r22
     ea6:	ca 01       	movw	r24, r20
     ea8:	8f 71       	andi	r24, 0x1F	; 31
     eaa:	99 27       	eor	r25, r25
     eac:	aa 27       	eor	r26, r26
     eae:	bb 27       	eor	r27, r27
     eb0:	89 2b       	or	r24, r25
     eb2:	8a 2b       	or	r24, r26
     eb4:	8b 2b       	or	r24, r27
     eb6:	09 f0       	breq	.+2      	; 0xeba <dir_sdi+0x4a>
     eb8:	a8 c0       	rjmp	.+336    	; 0x100a <__EEPROM_REGION_LENGTH__+0xa>
     eba:	08 81       	ld	r16, Y
     ebc:	19 81       	ldd	r17, Y+1	; 0x01
     ebe:	4e 87       	std	Y+14, r20	; 0x0e
     ec0:	5f 87       	std	Y+15, r21	; 0x0f
     ec2:	68 8b       	std	Y+16, r22	; 0x10
     ec4:	79 8b       	std	Y+17, r23	; 0x11
     ec6:	8e 80       	ldd	r8, Y+6	; 0x06
     ec8:	9f 80       	ldd	r9, Y+7	; 0x07
     eca:	a8 84       	ldd	r10, Y+8	; 0x08
     ecc:	b9 84       	ldd	r11, Y+9	; 0x09
     ece:	81 14       	cp	r8, r1
     ed0:	91 04       	cpc	r9, r1
     ed2:	a1 04       	cpc	r10, r1
     ed4:	b1 04       	cpc	r11, r1
     ed6:	61 f5       	brne	.+88     	; 0xf30 <dir_sdi+0xc0>
     ed8:	f8 01       	movw	r30, r16
     eda:	80 81       	ld	r24, Z
     edc:	83 30       	cpi	r24, 0x03	; 3
     ede:	40 f0       	brcs	.+16     	; 0xef0 <dir_sdi+0x80>
     ee0:	83 a1       	ldd	r24, Z+35	; 0x23
     ee2:	94 a1       	ldd	r25, Z+36	; 0x24
     ee4:	a5 a1       	ldd	r26, Z+37	; 0x25
     ee6:	b6 a1       	ldd	r27, Z+38	; 0x26
     ee8:	00 97       	sbiw	r24, 0x00	; 0
     eea:	a1 05       	cpc	r26, r1
     eec:	b1 05       	cpc	r27, r1
     eee:	f1 f4       	brne	.+60     	; 0xf2c <dir_sdi+0xbc>
     ef0:	f8 01       	movw	r30, r16
     ef2:	87 81       	ldd	r24, Z+7	; 0x07
     ef4:	90 85       	ldd	r25, Z+8	; 0x08
     ef6:	a0 e0       	ldi	r26, 0x00	; 0
     ef8:	b0 e0       	ldi	r27, 0x00	; 0
     efa:	b7 01       	movw	r22, r14
     efc:	a6 01       	movw	r20, r12
     efe:	68 94       	set
     f00:	14 f8       	bld	r1, 4
     f02:	76 95       	lsr	r23
     f04:	67 95       	ror	r22
     f06:	57 95       	ror	r21
     f08:	47 95       	ror	r20
     f0a:	16 94       	lsr	r1
     f0c:	d1 f7       	brne	.-12     	; 0xf02 <dir_sdi+0x92>
     f0e:	48 17       	cp	r20, r24
     f10:	59 07       	cpc	r21, r25
     f12:	6a 07       	cpc	r22, r26
     f14:	7b 07       	cpc	r23, r27
     f16:	08 f0       	brcs	.+2      	; 0xf1a <dir_sdi+0xaa>
     f18:	7a c0       	rjmp	.+244    	; 0x100e <__EEPROM_REGION_LENGTH__+0xe>
     f1a:	83 a1       	ldd	r24, Z+35	; 0x23
     f1c:	94 a1       	ldd	r25, Z+36	; 0x24
     f1e:	a5 a1       	ldd	r26, Z+37	; 0x25
     f20:	b6 a1       	ldd	r27, Z+38	; 0x26
     f22:	8e 8b       	std	Y+22, r24	; 0x16
     f24:	9f 8b       	std	Y+23, r25	; 0x17
     f26:	a8 8f       	std	Y+24, r26	; 0x18
     f28:	b9 8f       	std	Y+25, r27	; 0x19
     f2a:	44 c0       	rjmp	.+136    	; 0xfb4 <dir_sdi+0x144>
     f2c:	4c 01       	movw	r8, r24
     f2e:	5d 01       	movw	r10, r26
     f30:	f8 01       	movw	r30, r16
     f32:	41 84       	ldd	r4, Z+9	; 0x09
     f34:	52 84       	ldd	r5, Z+10	; 0x0a
     f36:	61 2c       	mov	r6, r1
     f38:	71 2c       	mov	r7, r1
     f3a:	03 2e       	mov	r0, r19
     f3c:	39 e0       	ldi	r19, 0x09	; 9
     f3e:	44 0c       	add	r4, r4
     f40:	55 1c       	adc	r5, r5
     f42:	66 1c       	adc	r6, r6
     f44:	77 1c       	adc	r7, r7
     f46:	3a 95       	dec	r19
     f48:	d1 f7       	brne	.-12     	; 0xf3e <dir_sdi+0xce>
     f4a:	30 2d       	mov	r19, r0
     f4c:	c4 14       	cp	r12, r4
     f4e:	d5 04       	cpc	r13, r5
     f50:	e6 04       	cpc	r14, r6
     f52:	f7 04       	cpc	r15, r7
     f54:	38 f1       	brcs	.+78     	; 0xfa4 <dir_sdi+0x134>
     f56:	b5 01       	movw	r22, r10
     f58:	a4 01       	movw	r20, r8
     f5a:	ce 01       	movw	r24, r28
     f5c:	af de       	rcall	.-674    	; 0xcbc <get_fat>
     f5e:	4b 01       	movw	r8, r22
     f60:	5c 01       	movw	r10, r24
     f62:	6f 3f       	cpi	r22, 0xFF	; 255
     f64:	7f 4f       	sbci	r23, 0xFF	; 255
     f66:	8f 4f       	sbci	r24, 0xFF	; 255
     f68:	9f 4f       	sbci	r25, 0xFF	; 255
     f6a:	09 f4       	brne	.+2      	; 0xf6e <dir_sdi+0xfe>
     f6c:	52 c0       	rjmp	.+164    	; 0x1012 <__EEPROM_REGION_LENGTH__+0x12>
     f6e:	82 e0       	ldi	r24, 0x02	; 2
     f70:	88 16       	cp	r8, r24
     f72:	91 04       	cpc	r9, r1
     f74:	a1 04       	cpc	r10, r1
     f76:	b1 04       	cpc	r11, r1
     f78:	08 f4       	brcc	.+2      	; 0xf7c <dir_sdi+0x10c>
     f7a:	4d c0       	rjmp	.+154    	; 0x1016 <__EEPROM_REGION_LENGTH__+0x16>
     f7c:	f8 01       	movw	r30, r16
     f7e:	83 89       	ldd	r24, Z+19	; 0x13
     f80:	94 89       	ldd	r25, Z+20	; 0x14
     f82:	a5 89       	ldd	r26, Z+21	; 0x15
     f84:	b6 89       	ldd	r27, Z+22	; 0x16
     f86:	88 16       	cp	r8, r24
     f88:	99 06       	cpc	r9, r25
     f8a:	aa 06       	cpc	r10, r26
     f8c:	bb 06       	cpc	r11, r27
     f8e:	08 f0       	brcs	.+2      	; 0xf92 <dir_sdi+0x122>
     f90:	44 c0       	rjmp	.+136    	; 0x101a <__EEPROM_REGION_LENGTH__+0x1a>
     f92:	c4 18       	sub	r12, r4
     f94:	d5 08       	sbc	r13, r5
     f96:	e6 08       	sbc	r14, r6
     f98:	f7 08       	sbc	r15, r7
     f9a:	c4 14       	cp	r12, r4
     f9c:	d5 04       	cpc	r13, r5
     f9e:	e6 04       	cpc	r14, r6
     fa0:	f7 04       	cpc	r15, r7
     fa2:	c8 f6       	brcc	.-78     	; 0xf56 <dir_sdi+0xe6>
     fa4:	b5 01       	movw	r22, r10
     fa6:	a4 01       	movw	r20, r8
     fa8:	c8 01       	movw	r24, r16
     faa:	73 db       	rcall	.-2330   	; 0x692 <clst2sect>
     fac:	6e 8b       	std	Y+22, r22	; 0x16
     fae:	7f 8b       	std	Y+23, r23	; 0x17
     fb0:	88 8f       	std	Y+24, r24	; 0x18
     fb2:	99 8f       	std	Y+25, r25	; 0x19
     fb4:	8a 8a       	std	Y+18, r8	; 0x12
     fb6:	9b 8a       	std	Y+19, r9	; 0x13
     fb8:	ac 8a       	std	Y+20, r10	; 0x14
     fba:	bd 8a       	std	Y+21, r11	; 0x15
     fbc:	8e 89       	ldd	r24, Y+22	; 0x16
     fbe:	9f 89       	ldd	r25, Y+23	; 0x17
     fc0:	a8 8d       	ldd	r26, Y+24	; 0x18
     fc2:	b9 8d       	ldd	r27, Y+25	; 0x19
     fc4:	00 97       	sbiw	r24, 0x00	; 0
     fc6:	a1 05       	cpc	r26, r1
     fc8:	b1 05       	cpc	r27, r1
     fca:	49 f1       	breq	.+82     	; 0x101e <__EEPROM_REGION_LENGTH__+0x1e>
     fcc:	b7 01       	movw	r22, r14
     fce:	a6 01       	movw	r20, r12
     fd0:	03 2e       	mov	r0, r19
     fd2:	39 e0       	ldi	r19, 0x09	; 9
     fd4:	76 95       	lsr	r23
     fd6:	67 95       	ror	r22
     fd8:	57 95       	ror	r21
     fda:	47 95       	ror	r20
     fdc:	3a 95       	dec	r19
     fde:	d1 f7       	brne	.-12     	; 0xfd4 <dir_sdi+0x164>
     fe0:	30 2d       	mov	r19, r0
     fe2:	84 0f       	add	r24, r20
     fe4:	95 1f       	adc	r25, r21
     fe6:	a6 1f       	adc	r26, r22
     fe8:	b7 1f       	adc	r27, r23
     fea:	8e 8b       	std	Y+22, r24	; 0x16
     fec:	9f 8b       	std	Y+23, r25	; 0x17
     fee:	a8 8f       	std	Y+24, r26	; 0x18
     ff0:	b9 8f       	std	Y+25, r27	; 0x19
     ff2:	01 5d       	subi	r16, 0xD1	; 209
     ff4:	1f 4f       	sbci	r17, 0xFF	; 255
     ff6:	f1 e0       	ldi	r31, 0x01	; 1
     ff8:	df 22       	and	r13, r31
     ffa:	c0 0e       	add	r12, r16
     ffc:	d1 1e       	adc	r13, r17
     ffe:	db 8e       	std	Y+27, r13	; 0x1b
    1000:	ca 8e       	std	Y+26, r12	; 0x1a
    1002:	80 e0       	ldi	r24, 0x00	; 0
    1004:	0d c0       	rjmp	.+26     	; 0x1020 <__EEPROM_REGION_LENGTH__+0x20>
    1006:	82 e0       	ldi	r24, 0x02	; 2
    1008:	0b c0       	rjmp	.+22     	; 0x1020 <__EEPROM_REGION_LENGTH__+0x20>
    100a:	82 e0       	ldi	r24, 0x02	; 2
    100c:	09 c0       	rjmp	.+18     	; 0x1020 <__EEPROM_REGION_LENGTH__+0x20>
    100e:	82 e0       	ldi	r24, 0x02	; 2
    1010:	07 c0       	rjmp	.+14     	; 0x1020 <__EEPROM_REGION_LENGTH__+0x20>
    1012:	81 e0       	ldi	r24, 0x01	; 1
    1014:	05 c0       	rjmp	.+10     	; 0x1020 <__EEPROM_REGION_LENGTH__+0x20>
    1016:	82 e0       	ldi	r24, 0x02	; 2
    1018:	03 c0       	rjmp	.+6      	; 0x1020 <__EEPROM_REGION_LENGTH__+0x20>
    101a:	82 e0       	ldi	r24, 0x02	; 2
    101c:	01 c0       	rjmp	.+2      	; 0x1020 <__EEPROM_REGION_LENGTH__+0x20>
    101e:	82 e0       	ldi	r24, 0x02	; 2
    1020:	df 91       	pop	r29
    1022:	cf 91       	pop	r28
    1024:	1f 91       	pop	r17
    1026:	0f 91       	pop	r16
    1028:	ff 90       	pop	r15
    102a:	ef 90       	pop	r14
    102c:	df 90       	pop	r13
    102e:	cf 90       	pop	r12
    1030:	bf 90       	pop	r11
    1032:	af 90       	pop	r10
    1034:	9f 90       	pop	r9
    1036:	8f 90       	pop	r8
    1038:	7f 90       	pop	r7
    103a:	6f 90       	pop	r6
    103c:	5f 90       	pop	r5
    103e:	4f 90       	pop	r4
    1040:	08 95       	ret

00001042 <create_chain>:
    1042:	4f 92       	push	r4
    1044:	5f 92       	push	r5
    1046:	6f 92       	push	r6
    1048:	7f 92       	push	r7
    104a:	8f 92       	push	r8
    104c:	9f 92       	push	r9
    104e:	af 92       	push	r10
    1050:	bf 92       	push	r11
    1052:	cf 92       	push	r12
    1054:	df 92       	push	r13
    1056:	ef 92       	push	r14
    1058:	ff 92       	push	r15
    105a:	0f 93       	push	r16
    105c:	1f 93       	push	r17
    105e:	cf 93       	push	r28
    1060:	df 93       	push	r29
    1062:	8c 01       	movw	r16, r24
    1064:	2a 01       	movw	r4, r20
    1066:	3b 01       	movw	r6, r22
    1068:	fc 01       	movw	r30, r24
    106a:	c0 81       	ld	r28, Z
    106c:	d1 81       	ldd	r29, Z+1	; 0x01
    106e:	41 15       	cp	r20, r1
    1070:	51 05       	cpc	r21, r1
    1072:	61 05       	cpc	r22, r1
    1074:	71 05       	cpc	r23, r1
    1076:	c9 f4       	brne	.+50     	; 0x10aa <create_chain+0x68>
    1078:	8b 84       	ldd	r8, Y+11	; 0x0b
    107a:	9c 84       	ldd	r9, Y+12	; 0x0c
    107c:	ad 84       	ldd	r10, Y+13	; 0x0d
    107e:	be 84       	ldd	r11, Y+14	; 0x0e
    1080:	81 14       	cp	r8, r1
    1082:	91 04       	cpc	r9, r1
    1084:	a1 04       	cpc	r10, r1
    1086:	b1 04       	cpc	r11, r1
    1088:	09 f4       	brne	.+2      	; 0x108c <create_chain+0x4a>
    108a:	1d c1       	rjmp	.+570    	; 0x12c6 <create_chain+0x284>
    108c:	8b 89       	ldd	r24, Y+19	; 0x13
    108e:	9c 89       	ldd	r25, Y+20	; 0x14
    1090:	ad 89       	ldd	r26, Y+21	; 0x15
    1092:	be 89       	ldd	r27, Y+22	; 0x16
    1094:	88 16       	cp	r8, r24
    1096:	99 06       	cpc	r9, r25
    1098:	aa 06       	cpc	r10, r26
    109a:	bb 06       	cpc	r11, r27
    109c:	08 f4       	brcc	.+2      	; 0x10a0 <create_chain+0x5e>
    109e:	17 c1       	rjmp	.+558    	; 0x12ce <create_chain+0x28c>
    10a0:	81 2c       	mov	r8, r1
    10a2:	91 2c       	mov	r9, r1
    10a4:	54 01       	movw	r10, r8
    10a6:	83 94       	inc	r8
    10a8:	12 c1       	rjmp	.+548    	; 0x12ce <create_chain+0x28c>
    10aa:	08 de       	rcall	.-1008   	; 0xcbc <get_fat>
    10ac:	62 30       	cpi	r22, 0x02	; 2
    10ae:	71 05       	cpc	r23, r1
    10b0:	81 05       	cpc	r24, r1
    10b2:	91 05       	cpc	r25, r1
    10b4:	08 f4       	brcc	.+2      	; 0x10b8 <create_chain+0x76>
    10b6:	cf c0       	rjmp	.+414    	; 0x1256 <create_chain+0x214>
    10b8:	6f 3f       	cpi	r22, 0xFF	; 255
    10ba:	ff ef       	ldi	r31, 0xFF	; 255
    10bc:	7f 07       	cpc	r23, r31
    10be:	8f 07       	cpc	r24, r31
    10c0:	9f 07       	cpc	r25, r31
    10c2:	09 f4       	brne	.+2      	; 0x10c6 <create_chain+0x84>
    10c4:	cd c0       	rjmp	.+410    	; 0x1260 <create_chain+0x21e>
    10c6:	cb 88       	ldd	r12, Y+19	; 0x13
    10c8:	dc 88       	ldd	r13, Y+20	; 0x14
    10ca:	ed 88       	ldd	r14, Y+21	; 0x15
    10cc:	fe 88       	ldd	r15, Y+22	; 0x16
    10ce:	6c 15       	cp	r22, r12
    10d0:	7d 05       	cpc	r23, r13
    10d2:	8e 05       	cpc	r24, r14
    10d4:	9f 05       	cpc	r25, r15
    10d6:	08 f0       	brcs	.+2      	; 0x10da <create_chain+0x98>
    10d8:	e5 c0       	rjmp	.+458    	; 0x12a4 <create_chain+0x262>
    10da:	03 c1       	rjmp	.+518    	; 0x12e2 <create_chain+0x2a0>
    10dc:	73 01       	movw	r14, r6
    10de:	62 01       	movw	r12, r4
    10e0:	2f ef       	ldi	r18, 0xFF	; 255
    10e2:	c2 1a       	sub	r12, r18
    10e4:	d2 0a       	sbc	r13, r18
    10e6:	e2 0a       	sbc	r14, r18
    10e8:	f2 0a       	sbc	r15, r18
    10ea:	8b 89       	ldd	r24, Y+19	; 0x13
    10ec:	9c 89       	ldd	r25, Y+20	; 0x14
    10ee:	ad 89       	ldd	r26, Y+21	; 0x15
    10f0:	be 89       	ldd	r27, Y+22	; 0x16
    10f2:	c8 16       	cp	r12, r24
    10f4:	d9 06       	cpc	r13, r25
    10f6:	ea 06       	cpc	r14, r26
    10f8:	fb 06       	cpc	r15, r27
    10fa:	28 f0       	brcs	.+10     	; 0x1106 <create_chain+0xc4>
    10fc:	c1 2c       	mov	r12, r1
    10fe:	d1 2c       	mov	r13, r1
    1100:	76 01       	movw	r14, r12
    1102:	68 94       	set
    1104:	c1 f8       	bld	r12, 1
    1106:	b7 01       	movw	r22, r14
    1108:	a6 01       	movw	r20, r12
    110a:	c8 01       	movw	r24, r16
    110c:	d7 dd       	rcall	.-1106   	; 0xcbc <get_fat>
    110e:	61 30       	cpi	r22, 0x01	; 1
    1110:	71 05       	cpc	r23, r1
    1112:	81 05       	cpc	r24, r1
    1114:	91 05       	cpc	r25, r1
    1116:	09 f4       	brne	.+2      	; 0x111a <create_chain+0xd8>
    1118:	a7 c0       	rjmp	.+334    	; 0x1268 <create_chain+0x226>
    111a:	6f 3f       	cpi	r22, 0xFF	; 255
    111c:	ef ef       	ldi	r30, 0xFF	; 255
    111e:	7e 07       	cpc	r23, r30
    1120:	8e 07       	cpc	r24, r30
    1122:	9e 07       	cpc	r25, r30
    1124:	09 f4       	brne	.+2      	; 0x1128 <create_chain+0xe6>
    1126:	a5 c0       	rjmp	.+330    	; 0x1272 <create_chain+0x230>
    1128:	67 2b       	or	r22, r23
    112a:	68 2b       	or	r22, r24
    112c:	69 2b       	or	r22, r25
    112e:	b1 f0       	breq	.+44     	; 0x115c <create_chain+0x11a>
    1130:	8b 84       	ldd	r8, Y+11	; 0x0b
    1132:	9c 84       	ldd	r9, Y+12	; 0x0c
    1134:	ad 84       	ldd	r10, Y+13	; 0x0d
    1136:	be 84       	ldd	r11, Y+14	; 0x0e
    1138:	f2 e0       	ldi	r31, 0x02	; 2
    113a:	8f 16       	cp	r8, r31
    113c:	91 04       	cpc	r9, r1
    113e:	a1 04       	cpc	r10, r1
    1140:	b1 04       	cpc	r11, r1
    1142:	08 f4       	brcc	.+2      	; 0x1146 <create_chain+0x104>
    1144:	ba c0       	rjmp	.+372    	; 0x12ba <create_chain+0x278>
    1146:	8b 89       	ldd	r24, Y+19	; 0x13
    1148:	9c 89       	ldd	r25, Y+20	; 0x14
    114a:	ad 89       	ldd	r26, Y+21	; 0x15
    114c:	be 89       	ldd	r27, Y+22	; 0x16
    114e:	88 16       	cp	r8, r24
    1150:	99 06       	cpc	r9, r25
    1152:	aa 06       	cpc	r10, r26
    1154:	bb 06       	cpc	r11, r27
    1156:	08 f0       	brcs	.+2      	; 0x115a <create_chain+0x118>
    1158:	b3 c0       	rjmp	.+358    	; 0x12c0 <create_chain+0x27e>
    115a:	07 c0       	rjmp	.+14     	; 0x116a <create_chain+0x128>
    115c:	c1 14       	cp	r12, r1
    115e:	d1 04       	cpc	r13, r1
    1160:	e1 04       	cpc	r14, r1
    1162:	f1 04       	cpc	r15, r1
    1164:	c9 f5       	brne	.+114    	; 0x11d8 <create_chain+0x196>
    1166:	53 01       	movw	r10, r6
    1168:	42 01       	movw	r8, r4
    116a:	75 01       	movw	r14, r10
    116c:	64 01       	movw	r12, r8
    116e:	2f ef       	ldi	r18, 0xFF	; 255
    1170:	c2 1a       	sub	r12, r18
    1172:	d2 0a       	sbc	r13, r18
    1174:	e2 0a       	sbc	r14, r18
    1176:	f2 0a       	sbc	r15, r18
    1178:	8b 89       	ldd	r24, Y+19	; 0x13
    117a:	9c 89       	ldd	r25, Y+20	; 0x14
    117c:	ad 89       	ldd	r26, Y+21	; 0x15
    117e:	be 89       	ldd	r27, Y+22	; 0x16
    1180:	c8 16       	cp	r12, r24
    1182:	d9 06       	cpc	r13, r25
    1184:	ea 06       	cpc	r14, r26
    1186:	fb 06       	cpc	r15, r27
    1188:	60 f0       	brcs	.+24     	; 0x11a2 <create_chain+0x160>
    118a:	82 e0       	ldi	r24, 0x02	; 2
    118c:	88 16       	cp	r8, r24
    118e:	91 04       	cpc	r9, r1
    1190:	a1 04       	cpc	r10, r1
    1192:	b1 04       	cpc	r11, r1
    1194:	08 f4       	brcc	.+2      	; 0x1198 <create_chain+0x156>
    1196:	71 c0       	rjmp	.+226    	; 0x127a <create_chain+0x238>
    1198:	c1 2c       	mov	r12, r1
    119a:	d1 2c       	mov	r13, r1
    119c:	76 01       	movw	r14, r12
    119e:	68 94       	set
    11a0:	c1 f8       	bld	r12, 1
    11a2:	b7 01       	movw	r22, r14
    11a4:	a6 01       	movw	r20, r12
    11a6:	c8 01       	movw	r24, r16
    11a8:	89 dd       	rcall	.-1262   	; 0xcbc <get_fat>
    11aa:	61 15       	cp	r22, r1
    11ac:	71 05       	cpc	r23, r1
    11ae:	81 05       	cpc	r24, r1
    11b0:	91 05       	cpc	r25, r1
    11b2:	91 f0       	breq	.+36     	; 0x11d8 <create_chain+0x196>
    11b4:	61 30       	cpi	r22, 0x01	; 1
    11b6:	71 05       	cpc	r23, r1
    11b8:	81 05       	cpc	r24, r1
    11ba:	91 05       	cpc	r25, r1
    11bc:	09 f4       	brne	.+2      	; 0x11c0 <create_chain+0x17e>
    11be:	61 c0       	rjmp	.+194    	; 0x1282 <create_chain+0x240>
    11c0:	6f 3f       	cpi	r22, 0xFF	; 255
    11c2:	7f 4f       	sbci	r23, 0xFF	; 255
    11c4:	8f 4f       	sbci	r24, 0xFF	; 255
    11c6:	9f 4f       	sbci	r25, 0xFF	; 255
    11c8:	09 f4       	brne	.+2      	; 0x11cc <create_chain+0x18a>
    11ca:	60 c0       	rjmp	.+192    	; 0x128c <create_chain+0x24a>
    11cc:	c8 14       	cp	r12, r8
    11ce:	d9 04       	cpc	r13, r9
    11d0:	ea 04       	cpc	r14, r10
    11d2:	fb 04       	cpc	r15, r11
    11d4:	61 f6       	brne	.-104    	; 0x116e <create_chain+0x12c>
    11d6:	5e c0       	rjmp	.+188    	; 0x1294 <create_chain+0x252>
    11d8:	0f ef       	ldi	r16, 0xFF	; 255
    11da:	1f ef       	ldi	r17, 0xFF	; 255
    11dc:	98 01       	movw	r18, r16
    11de:	b7 01       	movw	r22, r14
    11e0:	a6 01       	movw	r20, r12
    11e2:	ce 01       	movw	r24, r28
    11e4:	42 dc       	rcall	.-1916   	; 0xa6a <put_fat>
    11e6:	81 11       	cpse	r24, r1
    11e8:	2f c0       	rjmp	.+94     	; 0x1248 <create_chain+0x206>
    11ea:	41 14       	cp	r4, r1
    11ec:	51 04       	cpc	r5, r1
    11ee:	61 04       	cpc	r6, r1
    11f0:	71 04       	cpc	r7, r1
    11f2:	41 f0       	breq	.+16     	; 0x1204 <create_chain+0x1c2>
    11f4:	97 01       	movw	r18, r14
    11f6:	86 01       	movw	r16, r12
    11f8:	b3 01       	movw	r22, r6
    11fa:	a2 01       	movw	r20, r4
    11fc:	ce 01       	movw	r24, r28
    11fe:	35 dc       	rcall	.-1942   	; 0xa6a <put_fat>
    1200:	81 11       	cpse	r24, r1
    1202:	22 c0       	rjmp	.+68     	; 0x1248 <create_chain+0x206>
    1204:	cb 86       	std	Y+11, r12	; 0x0b
    1206:	dc 86       	std	Y+12, r13	; 0x0c
    1208:	ed 86       	std	Y+13, r14	; 0x0d
    120a:	fe 86       	std	Y+14, r15	; 0x0e
    120c:	4f 85       	ldd	r20, Y+15	; 0x0f
    120e:	58 89       	ldd	r21, Y+16	; 0x10
    1210:	69 89       	ldd	r22, Y+17	; 0x11
    1212:	7a 89       	ldd	r23, Y+18	; 0x12
    1214:	8b 89       	ldd	r24, Y+19	; 0x13
    1216:	9c 89       	ldd	r25, Y+20	; 0x14
    1218:	ad 89       	ldd	r26, Y+21	; 0x15
    121a:	be 89       	ldd	r27, Y+22	; 0x16
    121c:	02 97       	sbiw	r24, 0x02	; 2
    121e:	a1 09       	sbc	r26, r1
    1220:	b1 09       	sbc	r27, r1
    1222:	84 17       	cp	r24, r20
    1224:	95 07       	cpc	r25, r21
    1226:	a6 07       	cpc	r26, r22
    1228:	b7 07       	cpc	r27, r23
    122a:	40 f0       	brcs	.+16     	; 0x123c <create_chain+0x1fa>
    122c:	41 50       	subi	r20, 0x01	; 1
    122e:	51 09       	sbc	r21, r1
    1230:	61 09       	sbc	r22, r1
    1232:	71 09       	sbc	r23, r1
    1234:	4f 87       	std	Y+15, r20	; 0x0f
    1236:	58 8b       	std	Y+16, r21	; 0x10
    1238:	69 8b       	std	Y+17, r22	; 0x11
    123a:	7a 8b       	std	Y+18, r23	; 0x12
    123c:	8c 81       	ldd	r24, Y+4	; 0x04
    123e:	81 60       	ori	r24, 0x01	; 1
    1240:	8c 83       	std	Y+4, r24	; 0x04
    1242:	c7 01       	movw	r24, r14
    1244:	b6 01       	movw	r22, r12
    1246:	4d c0       	rjmp	.+154    	; 0x12e2 <create_chain+0x2a0>
    1248:	81 30       	cpi	r24, 0x01	; 1
    124a:	41 f1       	breq	.+80     	; 0x129c <create_chain+0x25a>
    124c:	61 e0       	ldi	r22, 0x01	; 1
    124e:	70 e0       	ldi	r23, 0x00	; 0
    1250:	80 e0       	ldi	r24, 0x00	; 0
    1252:	90 e0       	ldi	r25, 0x00	; 0
    1254:	46 c0       	rjmp	.+140    	; 0x12e2 <create_chain+0x2a0>
    1256:	61 e0       	ldi	r22, 0x01	; 1
    1258:	70 e0       	ldi	r23, 0x00	; 0
    125a:	80 e0       	ldi	r24, 0x00	; 0
    125c:	90 e0       	ldi	r25, 0x00	; 0
    125e:	41 c0       	rjmp	.+130    	; 0x12e2 <create_chain+0x2a0>
    1260:	6f ef       	ldi	r22, 0xFF	; 255
    1262:	7f ef       	ldi	r23, 0xFF	; 255
    1264:	cb 01       	movw	r24, r22
    1266:	3d c0       	rjmp	.+122    	; 0x12e2 <create_chain+0x2a0>
    1268:	61 e0       	ldi	r22, 0x01	; 1
    126a:	70 e0       	ldi	r23, 0x00	; 0
    126c:	80 e0       	ldi	r24, 0x00	; 0
    126e:	90 e0       	ldi	r25, 0x00	; 0
    1270:	38 c0       	rjmp	.+112    	; 0x12e2 <create_chain+0x2a0>
    1272:	6f ef       	ldi	r22, 0xFF	; 255
    1274:	7f ef       	ldi	r23, 0xFF	; 255
    1276:	cb 01       	movw	r24, r22
    1278:	34 c0       	rjmp	.+104    	; 0x12e2 <create_chain+0x2a0>
    127a:	60 e0       	ldi	r22, 0x00	; 0
    127c:	70 e0       	ldi	r23, 0x00	; 0
    127e:	cb 01       	movw	r24, r22
    1280:	30 c0       	rjmp	.+96     	; 0x12e2 <create_chain+0x2a0>
    1282:	61 e0       	ldi	r22, 0x01	; 1
    1284:	70 e0       	ldi	r23, 0x00	; 0
    1286:	80 e0       	ldi	r24, 0x00	; 0
    1288:	90 e0       	ldi	r25, 0x00	; 0
    128a:	2b c0       	rjmp	.+86     	; 0x12e2 <create_chain+0x2a0>
    128c:	6f ef       	ldi	r22, 0xFF	; 255
    128e:	7f ef       	ldi	r23, 0xFF	; 255
    1290:	cb 01       	movw	r24, r22
    1292:	27 c0       	rjmp	.+78     	; 0x12e2 <create_chain+0x2a0>
    1294:	60 e0       	ldi	r22, 0x00	; 0
    1296:	70 e0       	ldi	r23, 0x00	; 0
    1298:	cb 01       	movw	r24, r22
    129a:	23 c0       	rjmp	.+70     	; 0x12e2 <create_chain+0x2a0>
    129c:	6f ef       	ldi	r22, 0xFF	; 255
    129e:	7f ef       	ldi	r23, 0xFF	; 255
    12a0:	cb 01       	movw	r24, r22
    12a2:	1f c0       	rjmp	.+62     	; 0x12e2 <create_chain+0x2a0>
    12a4:	6f 85       	ldd	r22, Y+15	; 0x0f
    12a6:	78 89       	ldd	r23, Y+16	; 0x10
    12a8:	89 89       	ldd	r24, Y+17	; 0x11
    12aa:	9a 89       	ldd	r25, Y+18	; 0x12
    12ac:	61 15       	cp	r22, r1
    12ae:	71 05       	cpc	r23, r1
    12b0:	81 05       	cpc	r24, r1
    12b2:	91 05       	cpc	r25, r1
    12b4:	09 f0       	breq	.+2      	; 0x12b8 <create_chain+0x276>
    12b6:	12 cf       	rjmp	.-476    	; 0x10dc <create_chain+0x9a>
    12b8:	14 c0       	rjmp	.+40     	; 0x12e2 <create_chain+0x2a0>
    12ba:	53 01       	movw	r10, r6
    12bc:	42 01       	movw	r8, r4
    12be:	55 cf       	rjmp	.-342    	; 0x116a <create_chain+0x128>
    12c0:	53 01       	movw	r10, r6
    12c2:	42 01       	movw	r8, r4
    12c4:	52 cf       	rjmp	.-348    	; 0x116a <create_chain+0x128>
    12c6:	81 2c       	mov	r8, r1
    12c8:	91 2c       	mov	r9, r1
    12ca:	54 01       	movw	r10, r8
    12cc:	83 94       	inc	r8
    12ce:	6f 85       	ldd	r22, Y+15	; 0x0f
    12d0:	78 89       	ldd	r23, Y+16	; 0x10
    12d2:	89 89       	ldd	r24, Y+17	; 0x11
    12d4:	9a 89       	ldd	r25, Y+18	; 0x12
    12d6:	61 15       	cp	r22, r1
    12d8:	71 05       	cpc	r23, r1
    12da:	81 05       	cpc	r24, r1
    12dc:	91 05       	cpc	r25, r1
    12de:	09 f0       	breq	.+2      	; 0x12e2 <create_chain+0x2a0>
    12e0:	44 cf       	rjmp	.-376    	; 0x116a <create_chain+0x128>
    12e2:	df 91       	pop	r29
    12e4:	cf 91       	pop	r28
    12e6:	1f 91       	pop	r17
    12e8:	0f 91       	pop	r16
    12ea:	ff 90       	pop	r15
    12ec:	ef 90       	pop	r14
    12ee:	df 90       	pop	r13
    12f0:	cf 90       	pop	r12
    12f2:	bf 90       	pop	r11
    12f4:	af 90       	pop	r10
    12f6:	9f 90       	pop	r9
    12f8:	8f 90       	pop	r8
    12fa:	7f 90       	pop	r7
    12fc:	6f 90       	pop	r6
    12fe:	5f 90       	pop	r5
    1300:	4f 90       	pop	r4
    1302:	08 95       	ret

00001304 <remove_chain>:
    1304:	4f 92       	push	r4
    1306:	5f 92       	push	r5
    1308:	6f 92       	push	r6
    130a:	7f 92       	push	r7
    130c:	af 92       	push	r10
    130e:	bf 92       	push	r11
    1310:	cf 92       	push	r12
    1312:	df 92       	push	r13
    1314:	ef 92       	push	r14
    1316:	ff 92       	push	r15
    1318:	0f 93       	push	r16
    131a:	1f 93       	push	r17
    131c:	cf 93       	push	r28
    131e:	df 93       	push	r29
    1320:	5c 01       	movw	r10, r24
    1322:	6a 01       	movw	r12, r20
    1324:	7b 01       	movw	r14, r22
    1326:	b9 01       	movw	r22, r18
    1328:	a8 01       	movw	r20, r16
    132a:	22 e0       	ldi	r18, 0x02	; 2
    132c:	c2 16       	cp	r12, r18
    132e:	d1 04       	cpc	r13, r1
    1330:	e1 04       	cpc	r14, r1
    1332:	f1 04       	cpc	r15, r1
    1334:	08 f4       	brcc	.+2      	; 0x1338 <remove_chain+0x34>
    1336:	60 c0       	rjmp	.+192    	; 0x13f8 <remove_chain+0xf4>
    1338:	fc 01       	movw	r30, r24
    133a:	c0 81       	ld	r28, Z
    133c:	d1 81       	ldd	r29, Z+1	; 0x01
    133e:	8b 89       	ldd	r24, Y+19	; 0x13
    1340:	9c 89       	ldd	r25, Y+20	; 0x14
    1342:	ad 89       	ldd	r26, Y+21	; 0x15
    1344:	be 89       	ldd	r27, Y+22	; 0x16
    1346:	c8 16       	cp	r12, r24
    1348:	d9 06       	cpc	r13, r25
    134a:	ea 06       	cpc	r14, r26
    134c:	fb 06       	cpc	r15, r27
    134e:	08 f0       	brcs	.+2      	; 0x1352 <remove_chain+0x4e>
    1350:	55 c0       	rjmp	.+170    	; 0x13fc <remove_chain+0xf8>
    1352:	41 15       	cp	r20, r1
    1354:	51 05       	cpc	r21, r1
    1356:	61 05       	cpc	r22, r1
    1358:	71 05       	cpc	r23, r1
    135a:	39 f0       	breq	.+14     	; 0x136a <remove_chain+0x66>
    135c:	0f ef       	ldi	r16, 0xFF	; 255
    135e:	1f ef       	ldi	r17, 0xFF	; 255
    1360:	98 01       	movw	r18, r16
    1362:	ce 01       	movw	r24, r28
    1364:	82 db       	rcall	.-2300   	; 0xa6a <put_fat>
    1366:	81 11       	cpse	r24, r1
    1368:	50 c0       	rjmp	.+160    	; 0x140a <remove_chain+0x106>
    136a:	b7 01       	movw	r22, r14
    136c:	a6 01       	movw	r20, r12
    136e:	c5 01       	movw	r24, r10
    1370:	a5 dc       	rcall	.-1718   	; 0xcbc <get_fat>
    1372:	2b 01       	movw	r4, r22
    1374:	3c 01       	movw	r6, r24
    1376:	61 15       	cp	r22, r1
    1378:	71 05       	cpc	r23, r1
    137a:	81 05       	cpc	r24, r1
    137c:	91 05       	cpc	r25, r1
    137e:	09 f4       	brne	.+2      	; 0x1382 <remove_chain+0x7e>
    1380:	3f c0       	rjmp	.+126    	; 0x1400 <remove_chain+0xfc>
    1382:	61 30       	cpi	r22, 0x01	; 1
    1384:	71 05       	cpc	r23, r1
    1386:	81 05       	cpc	r24, r1
    1388:	91 05       	cpc	r25, r1
    138a:	e1 f1       	breq	.+120    	; 0x1404 <remove_chain+0x100>
    138c:	6f 3f       	cpi	r22, 0xFF	; 255
    138e:	7f 4f       	sbci	r23, 0xFF	; 255
    1390:	8f 4f       	sbci	r24, 0xFF	; 255
    1392:	9f 4f       	sbci	r25, 0xFF	; 255
    1394:	c9 f1       	breq	.+114    	; 0x1408 <remove_chain+0x104>
    1396:	00 e0       	ldi	r16, 0x00	; 0
    1398:	10 e0       	ldi	r17, 0x00	; 0
    139a:	98 01       	movw	r18, r16
    139c:	b7 01       	movw	r22, r14
    139e:	a6 01       	movw	r20, r12
    13a0:	ce 01       	movw	r24, r28
    13a2:	63 db       	rcall	.-2362   	; 0xa6a <put_fat>
    13a4:	81 11       	cpse	r24, r1
    13a6:	31 c0       	rjmp	.+98     	; 0x140a <remove_chain+0x106>
    13a8:	8f 85       	ldd	r24, Y+15	; 0x0f
    13aa:	98 89       	ldd	r25, Y+16	; 0x10
    13ac:	a9 89       	ldd	r26, Y+17	; 0x11
    13ae:	ba 89       	ldd	r27, Y+18	; 0x12
    13b0:	4b 89       	ldd	r20, Y+19	; 0x13
    13b2:	5c 89       	ldd	r21, Y+20	; 0x14
    13b4:	6d 89       	ldd	r22, Y+21	; 0x15
    13b6:	7e 89       	ldd	r23, Y+22	; 0x16
    13b8:	6a 01       	movw	r12, r20
    13ba:	7b 01       	movw	r14, r22
    13bc:	e2 e0       	ldi	r30, 0x02	; 2
    13be:	ce 1a       	sub	r12, r30
    13c0:	d1 08       	sbc	r13, r1
    13c2:	e1 08       	sbc	r14, r1
    13c4:	f1 08       	sbc	r15, r1
    13c6:	8c 15       	cp	r24, r12
    13c8:	9d 05       	cpc	r25, r13
    13ca:	ae 05       	cpc	r26, r14
    13cc:	bf 05       	cpc	r27, r15
    13ce:	50 f4       	brcc	.+20     	; 0x13e4 <remove_chain+0xe0>
    13d0:	01 96       	adiw	r24, 0x01	; 1
    13d2:	a1 1d       	adc	r26, r1
    13d4:	b1 1d       	adc	r27, r1
    13d6:	8f 87       	std	Y+15, r24	; 0x0f
    13d8:	98 8b       	std	Y+16, r25	; 0x10
    13da:	a9 8b       	std	Y+17, r26	; 0x11
    13dc:	ba 8b       	std	Y+18, r27	; 0x12
    13de:	8c 81       	ldd	r24, Y+4	; 0x04
    13e0:	81 60       	ori	r24, 0x01	; 1
    13e2:	8c 83       	std	Y+4, r24	; 0x04
    13e4:	73 01       	movw	r14, r6
    13e6:	62 01       	movw	r12, r4
    13e8:	44 16       	cp	r4, r20
    13ea:	55 06       	cpc	r5, r21
    13ec:	66 06       	cpc	r6, r22
    13ee:	77 06       	cpc	r7, r23
    13f0:	08 f4       	brcc	.+2      	; 0x13f4 <remove_chain+0xf0>
    13f2:	bb cf       	rjmp	.-138    	; 0x136a <remove_chain+0x66>
    13f4:	80 e0       	ldi	r24, 0x00	; 0
    13f6:	09 c0       	rjmp	.+18     	; 0x140a <remove_chain+0x106>
    13f8:	82 e0       	ldi	r24, 0x02	; 2
    13fa:	07 c0       	rjmp	.+14     	; 0x140a <remove_chain+0x106>
    13fc:	82 e0       	ldi	r24, 0x02	; 2
    13fe:	05 c0       	rjmp	.+10     	; 0x140a <remove_chain+0x106>
    1400:	80 e0       	ldi	r24, 0x00	; 0
    1402:	03 c0       	rjmp	.+6      	; 0x140a <remove_chain+0x106>
    1404:	82 e0       	ldi	r24, 0x02	; 2
    1406:	01 c0       	rjmp	.+2      	; 0x140a <remove_chain+0x106>
    1408:	81 e0       	ldi	r24, 0x01	; 1
    140a:	df 91       	pop	r29
    140c:	cf 91       	pop	r28
    140e:	1f 91       	pop	r17
    1410:	0f 91       	pop	r16
    1412:	ff 90       	pop	r15
    1414:	ef 90       	pop	r14
    1416:	df 90       	pop	r13
    1418:	cf 90       	pop	r12
    141a:	bf 90       	pop	r11
    141c:	af 90       	pop	r10
    141e:	7f 90       	pop	r7
    1420:	6f 90       	pop	r6
    1422:	5f 90       	pop	r5
    1424:	4f 90       	pop	r4
    1426:	08 95       	ret

00001428 <dir_next>:
    1428:	4f 92       	push	r4
    142a:	5f 92       	push	r5
    142c:	6f 92       	push	r6
    142e:	7f 92       	push	r7
    1430:	af 92       	push	r10
    1432:	bf 92       	push	r11
    1434:	cf 92       	push	r12
    1436:	df 92       	push	r13
    1438:	ef 92       	push	r14
    143a:	ff 92       	push	r15
    143c:	0f 93       	push	r16
    143e:	1f 93       	push	r17
    1440:	cf 93       	push	r28
    1442:	df 93       	push	r29
    1444:	8b 01       	movw	r16, r22
    1446:	fc 01       	movw	r30, r24
    1448:	c6 84       	ldd	r12, Z+14	; 0x0e
    144a:	d7 84       	ldd	r13, Z+15	; 0x0f
    144c:	e0 88       	ldd	r14, Z+16	; 0x10
    144e:	f1 88       	ldd	r15, Z+17	; 0x11
    1450:	f0 e2       	ldi	r31, 0x20	; 32
    1452:	cf 0e       	add	r12, r31
    1454:	d1 1c       	adc	r13, r1
    1456:	e1 1c       	adc	r14, r1
    1458:	f1 1c       	adc	r15, r1
    145a:	c1 14       	cp	r12, r1
    145c:	d1 04       	cpc	r13, r1
    145e:	20 e2       	ldi	r18, 0x20	; 32
    1460:	e2 06       	cpc	r14, r18
    1462:	f1 04       	cpc	r15, r1
    1464:	38 f0       	brcs	.+14     	; 0x1474 <dir_next+0x4c>
    1466:	fc 01       	movw	r30, r24
    1468:	16 8a       	std	Z+22, r1	; 0x16
    146a:	17 8a       	std	Z+23, r1	; 0x17
    146c:	10 8e       	std	Z+24, r1	; 0x18
    146e:	11 8e       	std	Z+25, r1	; 0x19
    1470:	84 e0       	ldi	r24, 0x04	; 4
    1472:	c6 c0       	rjmp	.+396    	; 0x1600 <dir_next+0x1d8>
    1474:	fc 01       	movw	r30, r24
    1476:	46 89       	ldd	r20, Z+22	; 0x16
    1478:	57 89       	ldd	r21, Z+23	; 0x17
    147a:	60 8d       	ldd	r22, Z+24	; 0x18
    147c:	71 8d       	ldd	r23, Z+25	; 0x19
    147e:	41 15       	cp	r20, r1
    1480:	51 05       	cpc	r21, r1
    1482:	61 05       	cpc	r22, r1
    1484:	71 05       	cpc	r23, r1
    1486:	09 f4       	brne	.+2      	; 0x148a <dir_next+0x62>
    1488:	ae c0       	rjmp	.+348    	; 0x15e6 <dir_next+0x1be>
    148a:	ec 01       	movw	r28, r24
    148c:	a0 80       	ld	r10, Z
    148e:	b1 80       	ldd	r11, Z+1	; 0x01
    1490:	d7 01       	movw	r26, r14
    1492:	c6 01       	movw	r24, r12
    1494:	91 70       	andi	r25, 0x01	; 1
    1496:	aa 27       	eor	r26, r26
    1498:	bb 27       	eor	r27, r27
    149a:	89 2b       	or	r24, r25
    149c:	8a 2b       	or	r24, r26
    149e:	8b 2b       	or	r24, r27
    14a0:	09 f0       	breq	.+2      	; 0x14a4 <dir_next+0x7c>
    14a2:	92 c0       	rjmp	.+292    	; 0x15c8 <dir_next+0x1a0>
    14a4:	4f 5f       	subi	r20, 0xFF	; 255
    14a6:	5f 4f       	sbci	r21, 0xFF	; 255
    14a8:	6f 4f       	sbci	r22, 0xFF	; 255
    14aa:	7f 4f       	sbci	r23, 0xFF	; 255
    14ac:	46 8b       	std	Z+22, r20	; 0x16
    14ae:	57 8b       	std	Z+23, r21	; 0x17
    14b0:	60 8f       	std	Z+24, r22	; 0x18
    14b2:	71 8f       	std	Z+25, r23	; 0x19
    14b4:	42 89       	ldd	r20, Z+18	; 0x12
    14b6:	53 89       	ldd	r21, Z+19	; 0x13
    14b8:	64 89       	ldd	r22, Z+20	; 0x14
    14ba:	75 89       	ldd	r23, Z+21	; 0x15
    14bc:	41 15       	cp	r20, r1
    14be:	51 05       	cpc	r21, r1
    14c0:	61 05       	cpc	r22, r1
    14c2:	71 05       	cpc	r23, r1
    14c4:	d9 f4       	brne	.+54     	; 0x14fc <dir_next+0xd4>
    14c6:	f5 01       	movw	r30, r10
    14c8:	87 81       	ldd	r24, Z+7	; 0x07
    14ca:	90 85       	ldd	r25, Z+8	; 0x08
    14cc:	a0 e0       	ldi	r26, 0x00	; 0
    14ce:	b0 e0       	ldi	r27, 0x00	; 0
    14d0:	b7 01       	movw	r22, r14
    14d2:	a6 01       	movw	r20, r12
    14d4:	68 94       	set
    14d6:	14 f8       	bld	r1, 4
    14d8:	76 95       	lsr	r23
    14da:	67 95       	ror	r22
    14dc:	57 95       	ror	r21
    14de:	47 95       	ror	r20
    14e0:	16 94       	lsr	r1
    14e2:	d1 f7       	brne	.-12     	; 0x14d8 <dir_next+0xb0>
    14e4:	48 17       	cp	r20, r24
    14e6:	59 07       	cpc	r21, r25
    14e8:	6a 07       	cpc	r22, r26
    14ea:	7b 07       	cpc	r23, r27
    14ec:	08 f4       	brcc	.+2      	; 0x14f0 <dir_next+0xc8>
    14ee:	6c c0       	rjmp	.+216    	; 0x15c8 <dir_next+0x1a0>
    14f0:	1e 8a       	std	Y+22, r1	; 0x16
    14f2:	1f 8a       	std	Y+23, r1	; 0x17
    14f4:	18 8e       	std	Y+24, r1	; 0x18
    14f6:	19 8e       	std	Y+25, r1	; 0x19
    14f8:	84 e0       	ldi	r24, 0x04	; 4
    14fa:	82 c0       	rjmp	.+260    	; 0x1600 <dir_next+0x1d8>
    14fc:	f5 01       	movw	r30, r10
    14fe:	81 85       	ldd	r24, Z+9	; 0x09
    1500:	92 85       	ldd	r25, Z+10	; 0x0a
    1502:	01 97       	sbiw	r24, 0x01	; 1
    1504:	a0 e0       	ldi	r26, 0x00	; 0
    1506:	b0 e0       	ldi	r27, 0x00	; 0
    1508:	26 01       	movw	r4, r12
    150a:	37 01       	movw	r6, r14
    150c:	03 2e       	mov	r0, r19
    150e:	39 e0       	ldi	r19, 0x09	; 9
    1510:	76 94       	lsr	r7
    1512:	67 94       	ror	r6
    1514:	57 94       	ror	r5
    1516:	47 94       	ror	r4
    1518:	3a 95       	dec	r19
    151a:	d1 f7       	brne	.-12     	; 0x1510 <dir_next+0xe8>
    151c:	30 2d       	mov	r19, r0
    151e:	84 21       	and	r24, r4
    1520:	95 21       	and	r25, r5
    1522:	a6 21       	and	r26, r6
    1524:	b7 21       	and	r27, r7
    1526:	89 2b       	or	r24, r25
    1528:	8a 2b       	or	r24, r26
    152a:	8b 2b       	or	r24, r27
    152c:	09 f0       	breq	.+2      	; 0x1530 <dir_next+0x108>
    152e:	4c c0       	rjmp	.+152    	; 0x15c8 <dir_next+0x1a0>
    1530:	ce 01       	movw	r24, r28
    1532:	c4 db       	rcall	.-2168   	; 0xcbc <get_fat>
    1534:	2b 01       	movw	r4, r22
    1536:	3c 01       	movw	r6, r24
    1538:	62 30       	cpi	r22, 0x02	; 2
    153a:	71 05       	cpc	r23, r1
    153c:	81 05       	cpc	r24, r1
    153e:	91 05       	cpc	r25, r1
    1540:	08 f4       	brcc	.+2      	; 0x1544 <dir_next+0x11c>
    1542:	53 c0       	rjmp	.+166    	; 0x15ea <dir_next+0x1c2>
    1544:	6f 3f       	cpi	r22, 0xFF	; 255
    1546:	7f 4f       	sbci	r23, 0xFF	; 255
    1548:	8f 4f       	sbci	r24, 0xFF	; 255
    154a:	9f 4f       	sbci	r25, 0xFF	; 255
    154c:	09 f4       	brne	.+2      	; 0x1550 <dir_next+0x128>
    154e:	4f c0       	rjmp	.+158    	; 0x15ee <dir_next+0x1c6>
    1550:	f5 01       	movw	r30, r10
    1552:	83 89       	ldd	r24, Z+19	; 0x13
    1554:	94 89       	ldd	r25, Z+20	; 0x14
    1556:	a5 89       	ldd	r26, Z+21	; 0x15
    1558:	b6 89       	ldd	r27, Z+22	; 0x16
    155a:	48 16       	cp	r4, r24
    155c:	59 06       	cpc	r5, r25
    155e:	6a 06       	cpc	r6, r26
    1560:	7b 06       	cpc	r7, r27
    1562:	30 f1       	brcs	.+76     	; 0x15b0 <dir_next+0x188>
    1564:	01 2b       	or	r16, r17
    1566:	31 f4       	brne	.+12     	; 0x1574 <dir_next+0x14c>
    1568:	1e 8a       	std	Y+22, r1	; 0x16
    156a:	1f 8a       	std	Y+23, r1	; 0x17
    156c:	18 8e       	std	Y+24, r1	; 0x18
    156e:	19 8e       	std	Y+25, r1	; 0x19
    1570:	84 e0       	ldi	r24, 0x04	; 4
    1572:	46 c0       	rjmp	.+140    	; 0x1600 <dir_next+0x1d8>
    1574:	4a 89       	ldd	r20, Y+18	; 0x12
    1576:	5b 89       	ldd	r21, Y+19	; 0x13
    1578:	6c 89       	ldd	r22, Y+20	; 0x14
    157a:	7d 89       	ldd	r23, Y+21	; 0x15
    157c:	ce 01       	movw	r24, r28
    157e:	61 dd       	rcall	.-1342   	; 0x1042 <create_chain>
    1580:	2b 01       	movw	r4, r22
    1582:	3c 01       	movw	r6, r24
    1584:	61 15       	cp	r22, r1
    1586:	71 05       	cpc	r23, r1
    1588:	81 05       	cpc	r24, r1
    158a:	91 05       	cpc	r25, r1
    158c:	91 f1       	breq	.+100    	; 0x15f2 <dir_next+0x1ca>
    158e:	61 30       	cpi	r22, 0x01	; 1
    1590:	71 05       	cpc	r23, r1
    1592:	81 05       	cpc	r24, r1
    1594:	91 05       	cpc	r25, r1
    1596:	79 f1       	breq	.+94     	; 0x15f6 <dir_next+0x1ce>
    1598:	6f 3f       	cpi	r22, 0xFF	; 255
    159a:	2f ef       	ldi	r18, 0xFF	; 255
    159c:	72 07       	cpc	r23, r18
    159e:	82 07       	cpc	r24, r18
    15a0:	92 07       	cpc	r25, r18
    15a2:	59 f1       	breq	.+86     	; 0x15fa <dir_next+0x1d2>
    15a4:	ab 01       	movw	r20, r22
    15a6:	bc 01       	movw	r22, r24
    15a8:	c5 01       	movw	r24, r10
    15aa:	91 d9       	rcall	.-3294   	; 0x8ce <dir_clear>
    15ac:	81 11       	cpse	r24, r1
    15ae:	27 c0       	rjmp	.+78     	; 0x15fe <dir_next+0x1d6>
    15b0:	4a 8a       	std	Y+18, r4	; 0x12
    15b2:	5b 8a       	std	Y+19, r5	; 0x13
    15b4:	6c 8a       	std	Y+20, r6	; 0x14
    15b6:	7d 8a       	std	Y+21, r7	; 0x15
    15b8:	b3 01       	movw	r22, r6
    15ba:	a2 01       	movw	r20, r4
    15bc:	c5 01       	movw	r24, r10
    15be:	69 d8       	rcall	.-3886   	; 0x692 <clst2sect>
    15c0:	6e 8b       	std	Y+22, r22	; 0x16
    15c2:	7f 8b       	std	Y+23, r23	; 0x17
    15c4:	88 8f       	std	Y+24, r24	; 0x18
    15c6:	99 8f       	std	Y+25, r25	; 0x19
    15c8:	ce 86       	std	Y+14, r12	; 0x0e
    15ca:	df 86       	std	Y+15, r13	; 0x0f
    15cc:	e8 8a       	std	Y+16, r14	; 0x10
    15ce:	f9 8a       	std	Y+17, r15	; 0x11
    15d0:	8f e2       	ldi	r24, 0x2F	; 47
    15d2:	a8 0e       	add	r10, r24
    15d4:	b1 1c       	adc	r11, r1
    15d6:	e1 e0       	ldi	r30, 0x01	; 1
    15d8:	de 22       	and	r13, r30
    15da:	ca 0c       	add	r12, r10
    15dc:	db 1c       	adc	r13, r11
    15de:	db 8e       	std	Y+27, r13	; 0x1b
    15e0:	ca 8e       	std	Y+26, r12	; 0x1a
    15e2:	80 e0       	ldi	r24, 0x00	; 0
    15e4:	0d c0       	rjmp	.+26     	; 0x1600 <dir_next+0x1d8>
    15e6:	84 e0       	ldi	r24, 0x04	; 4
    15e8:	0b c0       	rjmp	.+22     	; 0x1600 <dir_next+0x1d8>
    15ea:	82 e0       	ldi	r24, 0x02	; 2
    15ec:	09 c0       	rjmp	.+18     	; 0x1600 <dir_next+0x1d8>
    15ee:	81 e0       	ldi	r24, 0x01	; 1
    15f0:	07 c0       	rjmp	.+14     	; 0x1600 <dir_next+0x1d8>
    15f2:	87 e0       	ldi	r24, 0x07	; 7
    15f4:	05 c0       	rjmp	.+10     	; 0x1600 <dir_next+0x1d8>
    15f6:	82 e0       	ldi	r24, 0x02	; 2
    15f8:	03 c0       	rjmp	.+6      	; 0x1600 <dir_next+0x1d8>
    15fa:	81 e0       	ldi	r24, 0x01	; 1
    15fc:	01 c0       	rjmp	.+2      	; 0x1600 <dir_next+0x1d8>
    15fe:	81 e0       	ldi	r24, 0x01	; 1
    1600:	df 91       	pop	r29
    1602:	cf 91       	pop	r28
    1604:	1f 91       	pop	r17
    1606:	0f 91       	pop	r16
    1608:	ff 90       	pop	r15
    160a:	ef 90       	pop	r14
    160c:	df 90       	pop	r13
    160e:	cf 90       	pop	r12
    1610:	bf 90       	pop	r11
    1612:	af 90       	pop	r10
    1614:	7f 90       	pop	r7
    1616:	6f 90       	pop	r6
    1618:	5f 90       	pop	r5
    161a:	4f 90       	pop	r4
    161c:	08 95       	ret

0000161e <dir_register>:
    161e:	ef 92       	push	r14
    1620:	ff 92       	push	r15
    1622:	0f 93       	push	r16
    1624:	1f 93       	push	r17
    1626:	cf 93       	push	r28
    1628:	8c 01       	movw	r16, r24
    162a:	dc 01       	movw	r26, r24
    162c:	ed 90       	ld	r14, X+
    162e:	fc 90       	ld	r15, X
    1630:	40 e0       	ldi	r20, 0x00	; 0
    1632:	50 e0       	ldi	r21, 0x00	; 0
    1634:	ba 01       	movw	r22, r20
    1636:	1c dc       	rcall	.-1992   	; 0xe70 <dir_sdi>
    1638:	c8 2f       	mov	r28, r24
    163a:	81 11       	cpse	r24, r1
    163c:	1b c0       	rjmp	.+54     	; 0x1674 <dir_register+0x56>
    163e:	f8 01       	movw	r30, r16
    1640:	46 89       	ldd	r20, Z+22	; 0x16
    1642:	57 89       	ldd	r21, Z+23	; 0x17
    1644:	60 8d       	ldd	r22, Z+24	; 0x18
    1646:	71 8d       	ldd	r23, Z+25	; 0x19
    1648:	c7 01       	movw	r24, r14
    164a:	05 d9       	rcall	.-3574   	; 0x856 <move_window>
    164c:	c8 2f       	mov	r28, r24
    164e:	81 11       	cpse	r24, r1
    1650:	11 c0       	rjmp	.+34     	; 0x1674 <dir_register+0x56>
    1652:	d8 01       	movw	r26, r16
    1654:	5a 96       	adiw	r26, 0x1a	; 26
    1656:	ed 91       	ld	r30, X+
    1658:	fc 91       	ld	r31, X
    165a:	5b 97       	sbiw	r26, 0x1b	; 27
    165c:	80 81       	ld	r24, Z
    165e:	85 3e       	cpi	r24, 0xE5	; 229
    1660:	69 f0       	breq	.+26     	; 0x167c <dir_register+0x5e>
    1662:	88 23       	and	r24, r24
    1664:	59 f0       	breq	.+22     	; 0x167c <dir_register+0x5e>
    1666:	61 e0       	ldi	r22, 0x01	; 1
    1668:	70 e0       	ldi	r23, 0x00	; 0
    166a:	c8 01       	movw	r24, r16
    166c:	dd de       	rcall	.-582    	; 0x1428 <dir_next>
    166e:	c8 2f       	mov	r28, r24
    1670:	88 23       	and	r24, r24
    1672:	29 f3       	breq	.-54     	; 0x163e <dir_register+0x20>
    1674:	c4 30       	cpi	r28, 0x04	; 4
    1676:	31 f1       	breq	.+76     	; 0x16c4 <dir_register+0xa6>
    1678:	c1 11       	cpse	r28, r1
    167a:	25 c0       	rjmp	.+74     	; 0x16c6 <dir_register+0xa8>
    167c:	f8 01       	movw	r30, r16
    167e:	46 89       	ldd	r20, Z+22	; 0x16
    1680:	57 89       	ldd	r21, Z+23	; 0x17
    1682:	60 8d       	ldd	r22, Z+24	; 0x18
    1684:	71 8d       	ldd	r23, Z+25	; 0x19
    1686:	c7 01       	movw	r24, r14
    1688:	e6 d8       	rcall	.-3636   	; 0x856 <move_window>
    168a:	c8 2f       	mov	r28, r24
    168c:	81 11       	cpse	r24, r1
    168e:	1b c0       	rjmp	.+54     	; 0x16c6 <dir_register+0xa8>
    1690:	d8 01       	movw	r26, r16
    1692:	5a 96       	adiw	r26, 0x1a	; 26
    1694:	ed 91       	ld	r30, X+
    1696:	fc 91       	ld	r31, X
    1698:	5b 97       	sbiw	r26, 0x1b	; 27
    169a:	cf 01       	movw	r24, r30
    169c:	80 96       	adiw	r24, 0x20	; 32
    169e:	11 92       	st	Z+, r1
    16a0:	e8 17       	cp	r30, r24
    16a2:	f9 07       	cpc	r31, r25
    16a4:	e1 f7       	brne	.-8      	; 0x169e <dir_register+0x80>
    16a6:	b8 01       	movw	r22, r16
    16a8:	64 5e       	subi	r22, 0xE4	; 228
    16aa:	7f 4f       	sbci	r23, 0xFF	; 255
    16ac:	4b e0       	ldi	r20, 0x0B	; 11
    16ae:	50 e0       	ldi	r21, 0x00	; 0
    16b0:	f8 01       	movw	r30, r16
    16b2:	82 8d       	ldd	r24, Z+26	; 0x1a
    16b4:	93 8d       	ldd	r25, Z+27	; 0x1b
    16b6:	0e 94 3b 03 	call	0x676	; 0x676 <mem_cpy>
    16ba:	81 e0       	ldi	r24, 0x01	; 1
    16bc:	d7 01       	movw	r26, r14
    16be:	13 96       	adiw	r26, 0x03	; 3
    16c0:	8c 93       	st	X, r24
    16c2:	01 c0       	rjmp	.+2      	; 0x16c6 <dir_register+0xa8>
    16c4:	c7 e0       	ldi	r28, 0x07	; 7
    16c6:	8c 2f       	mov	r24, r28
    16c8:	cf 91       	pop	r28
    16ca:	1f 91       	pop	r17
    16cc:	0f 91       	pop	r16
    16ce:	ff 90       	pop	r15
    16d0:	ef 90       	pop	r14
    16d2:	08 95       	ret

000016d4 <check_fs>:
    16d4:	cf 93       	push	r28
    16d6:	df 93       	push	r29
    16d8:	ec 01       	movw	r28, r24
    16da:	1b 82       	std	Y+3, r1	; 0x03
    16dc:	8f ef       	ldi	r24, 0xFF	; 255
    16de:	9f ef       	ldi	r25, 0xFF	; 255
    16e0:	dc 01       	movw	r26, r24
    16e2:	8b a7       	std	Y+43, r24	; 0x2b
    16e4:	9c a7       	std	Y+44, r25	; 0x2c
    16e6:	ad a7       	std	Y+45, r26	; 0x2d
    16e8:	be a7       	std	Y+46, r27	; 0x2e
    16ea:	ce 01       	movw	r24, r28
    16ec:	b4 d8       	rcall	.-3736   	; 0x856 <move_window>
    16ee:	81 11       	cpse	r24, r1
    16f0:	71 c0       	rjmp	.+226    	; 0x17d4 <check_fs+0x100>
    16f2:	fe 01       	movw	r30, r28
    16f4:	e2 5d       	subi	r30, 0xD2	; 210
    16f6:	fd 4f       	sbci	r31, 0xFD	; 253
    16f8:	20 81       	ld	r18, Z
    16fa:	30 e0       	ldi	r19, 0x00	; 0
    16fc:	32 2f       	mov	r19, r18
    16fe:	22 27       	eor	r18, r18
    1700:	31 97       	sbiw	r30, 0x01	; 1
    1702:	80 81       	ld	r24, Z
    1704:	28 2b       	or	r18, r24
    1706:	8f a5       	ldd	r24, Y+47	; 0x2f
    1708:	8b 3e       	cpi	r24, 0xEB	; 235
    170a:	21 f0       	breq	.+8      	; 0x1714 <check_fs+0x40>
    170c:	88 5e       	subi	r24, 0xE8	; 232
    170e:	82 30       	cpi	r24, 0x02	; 2
    1710:	08 f0       	brcs	.+2      	; 0x1714 <check_fs+0x40>
    1712:	5a c0       	rjmp	.+180    	; 0x17c8 <check_fs+0xf4>
    1714:	25 35       	cpi	r18, 0x55	; 85
    1716:	4a ea       	ldi	r20, 0xAA	; 170
    1718:	34 07       	cpc	r19, r20
    171a:	09 f0       	breq	.+2      	; 0x171e <check_fs+0x4a>
    171c:	67 c0       	rjmp	.+206    	; 0x17ec <check_fs+0x118>
    171e:	fe 01       	movw	r30, r28
    1720:	ef 57       	subi	r30, 0x7F	; 127
    1722:	ff 4f       	sbci	r31, 0xFF	; 255
    1724:	80 81       	ld	r24, Z
    1726:	90 e0       	ldi	r25, 0x00	; 0
    1728:	86 54       	subi	r24, 0x46	; 70
    172a:	91 09       	sbc	r25, r1
    172c:	de 01       	movw	r26, r28
    172e:	ae 57       	subi	r26, 0x7E	; 126
    1730:	bf 4f       	sbci	r27, 0xFF	; 255
    1732:	e5 e1       	ldi	r30, 0x15	; 21
    1734:	f2 e0       	ldi	r31, 0x02	; 2
    1736:	6c e1       	ldi	r22, 0x1C	; 28
    1738:	72 e0       	ldi	r23, 0x02	; 2
    173a:	08 c0       	rjmp	.+16     	; 0x174c <check_fs+0x78>
    173c:	8d 91       	ld	r24, X+
    173e:	41 91       	ld	r20, Z+
    1740:	90 e0       	ldi	r25, 0x00	; 0
    1742:	84 1b       	sub	r24, r20
    1744:	91 09       	sbc	r25, r1
    1746:	e6 17       	cp	r30, r22
    1748:	f7 07       	cpc	r31, r23
    174a:	19 f0       	breq	.+6      	; 0x1752 <check_fs+0x7e>
    174c:	89 2b       	or	r24, r25
    174e:	b1 f3       	breq	.-20     	; 0x173c <check_fs+0x68>
    1750:	04 c0       	rjmp	.+8      	; 0x175a <check_fs+0x86>
    1752:	89 2b       	or	r24, r25
    1754:	09 f4       	brne	.+2      	; 0x1758 <check_fs+0x84>
    1756:	41 c0       	rjmp	.+130    	; 0x17da <check_fs+0x106>
    1758:	59 c0       	rjmp	.+178    	; 0x180c <check_fs+0x138>
    175a:	8b ad       	ldd	r24, Y+59	; 0x3b
    175c:	90 e0       	ldi	r25, 0x00	; 0
    175e:	98 2f       	mov	r25, r24
    1760:	88 27       	eor	r24, r24
    1762:	4a ad       	ldd	r20, Y+58	; 0x3a
    1764:	84 2b       	or	r24, r20
    1766:	ac 01       	movw	r20, r24
    1768:	41 50       	subi	r20, 0x01	; 1
    176a:	51 09       	sbc	r21, r1
    176c:	48 23       	and	r20, r24
    176e:	59 23       	and	r21, r25
    1770:	45 2b       	or	r20, r21
    1772:	09 f4       	brne	.+2      	; 0x1776 <check_fs+0xa2>
    1774:	62 c0       	rjmp	.+196    	; 0x183a <check_fs+0x166>
    1776:	82 e0       	ldi	r24, 0x02	; 2
    1778:	90 e0       	ldi	r25, 0x00	; 0
    177a:	65 c0       	rjmp	.+202    	; 0x1846 <check_fs+0x172>
    177c:	8c ad       	ldd	r24, Y+60	; 0x3c
    177e:	88 23       	and	r24, r24
    1780:	19 f1       	breq	.+70     	; 0x17c8 <check_fs+0xf4>
    1782:	90 e0       	ldi	r25, 0x00	; 0
    1784:	ac 01       	movw	r20, r24
    1786:	41 50       	subi	r20, 0x01	; 1
    1788:	51 09       	sbc	r21, r1
    178a:	84 23       	and	r24, r20
    178c:	95 23       	and	r25, r21
    178e:	89 2b       	or	r24, r25
    1790:	d9 f4       	brne	.+54     	; 0x17c8 <check_fs+0xf4>
    1792:	8f ad       	ldd	r24, Y+63	; 0x3f
    1794:	81 50       	subi	r24, 0x01	; 1
    1796:	82 30       	cpi	r24, 0x02	; 2
    1798:	b8 f4       	brcc	.+46     	; 0x17c8 <check_fs+0xf4>
    179a:	fe 01       	movw	r30, r28
    179c:	ef 5b       	subi	r30, 0xBF	; 191
    179e:	ff 4f       	sbci	r31, 0xFF	; 255
    17a0:	80 81       	ld	r24, Z
    17a2:	90 e0       	ldi	r25, 0x00	; 0
    17a4:	98 2f       	mov	r25, r24
    17a6:	88 27       	eor	r24, r24
    17a8:	31 97       	sbiw	r30, 0x01	; 1
    17aa:	40 81       	ld	r20, Z
    17ac:	84 2b       	or	r24, r20
    17ae:	89 2b       	or	r24, r25
    17b0:	59 f0       	breq	.+22     	; 0x17c8 <check_fs+0xf4>
    17b2:	36 96       	adiw	r30, 0x06	; 6
    17b4:	80 81       	ld	r24, Z
    17b6:	90 e0       	ldi	r25, 0x00	; 0
    17b8:	98 2f       	mov	r25, r24
    17ba:	88 27       	eor	r24, r24
    17bc:	cb 5b       	subi	r28, 0xBB	; 187
    17be:	df 4f       	sbci	r29, 0xFF	; 255
    17c0:	48 81       	ld	r20, Y
    17c2:	84 2b       	or	r24, r20
    17c4:	89 2b       	or	r24, r25
    17c6:	61 f4       	brne	.+24     	; 0x17e0 <check_fs+0x10c>
    17c8:	25 35       	cpi	r18, 0x55	; 85
    17ca:	3a 4a       	sbci	r19, 0xAA	; 170
    17cc:	61 f0       	breq	.+24     	; 0x17e6 <check_fs+0x112>
    17ce:	83 e0       	ldi	r24, 0x03	; 3
    17d0:	90 e0       	ldi	r25, 0x00	; 0
    17d2:	39 c0       	rjmp	.+114    	; 0x1846 <check_fs+0x172>
    17d4:	84 e0       	ldi	r24, 0x04	; 4
    17d6:	90 e0       	ldi	r25, 0x00	; 0
    17d8:	36 c0       	rjmp	.+108    	; 0x1846 <check_fs+0x172>
    17da:	80 e0       	ldi	r24, 0x00	; 0
    17dc:	90 e0       	ldi	r25, 0x00	; 0
    17de:	33 c0       	rjmp	.+102    	; 0x1846 <check_fs+0x172>
    17e0:	80 e0       	ldi	r24, 0x00	; 0
    17e2:	90 e0       	ldi	r25, 0x00	; 0
    17e4:	30 c0       	rjmp	.+96     	; 0x1846 <check_fs+0x172>
    17e6:	82 e0       	ldi	r24, 0x02	; 2
    17e8:	90 e0       	ldi	r25, 0x00	; 0
    17ea:	2d c0       	rjmp	.+90     	; 0x1846 <check_fs+0x172>
    17ec:	8b ad       	ldd	r24, Y+59	; 0x3b
    17ee:	90 e0       	ldi	r25, 0x00	; 0
    17f0:	98 2f       	mov	r25, r24
    17f2:	88 27       	eor	r24, r24
    17f4:	4a ad       	ldd	r20, Y+58	; 0x3a
    17f6:	84 2b       	or	r24, r20
    17f8:	ac 01       	movw	r20, r24
    17fa:	41 50       	subi	r20, 0x01	; 1
    17fc:	51 09       	sbc	r21, r1
    17fe:	48 23       	and	r20, r24
    1800:	59 23       	and	r21, r25
    1802:	45 2b       	or	r20, r21
    1804:	99 f0       	breq	.+38     	; 0x182c <check_fs+0x158>
    1806:	83 e0       	ldi	r24, 0x03	; 3
    1808:	90 e0       	ldi	r25, 0x00	; 0
    180a:	1d c0       	rjmp	.+58     	; 0x1846 <check_fs+0x172>
    180c:	8b ad       	ldd	r24, Y+59	; 0x3b
    180e:	90 e0       	ldi	r25, 0x00	; 0
    1810:	98 2f       	mov	r25, r24
    1812:	88 27       	eor	r24, r24
    1814:	4a ad       	ldd	r20, Y+58	; 0x3a
    1816:	84 2b       	or	r24, r20
    1818:	ac 01       	movw	r20, r24
    181a:	41 50       	subi	r20, 0x01	; 1
    181c:	51 09       	sbc	r21, r1
    181e:	48 23       	and	r20, r24
    1820:	59 23       	and	r21, r25
    1822:	45 2b       	or	r20, r21
    1824:	51 f0       	breq	.+20     	; 0x183a <check_fs+0x166>
    1826:	82 e0       	ldi	r24, 0x02	; 2
    1828:	90 e0       	ldi	r25, 0x00	; 0
    182a:	0d c0       	rjmp	.+26     	; 0x1846 <check_fs+0x172>
    182c:	81 15       	cp	r24, r1
    182e:	92 40       	sbci	r25, 0x02	; 2
    1830:	09 f4       	brne	.+2      	; 0x1834 <check_fs+0x160>
    1832:	a4 cf       	rjmp	.-184    	; 0x177c <check_fs+0xa8>
    1834:	83 e0       	ldi	r24, 0x03	; 3
    1836:	90 e0       	ldi	r25, 0x00	; 0
    1838:	06 c0       	rjmp	.+12     	; 0x1846 <check_fs+0x172>
    183a:	81 15       	cp	r24, r1
    183c:	92 40       	sbci	r25, 0x02	; 2
    183e:	09 f4       	brne	.+2      	; 0x1842 <check_fs+0x16e>
    1840:	9d cf       	rjmp	.-198    	; 0x177c <check_fs+0xa8>
    1842:	82 e0       	ldi	r24, 0x02	; 2
    1844:	90 e0       	ldi	r25, 0x00	; 0
    1846:	df 91       	pop	r29
    1848:	cf 91       	pop	r28
    184a:	08 95       	ret

0000184c <mount_volume>:
    184c:	2f 92       	push	r2
    184e:	3f 92       	push	r3
    1850:	4f 92       	push	r4
    1852:	5f 92       	push	r5
    1854:	6f 92       	push	r6
    1856:	7f 92       	push	r7
    1858:	8f 92       	push	r8
    185a:	9f 92       	push	r9
    185c:	af 92       	push	r10
    185e:	bf 92       	push	r11
    1860:	cf 92       	push	r12
    1862:	df 92       	push	r13
    1864:	ef 92       	push	r14
    1866:	ff 92       	push	r15
    1868:	0f 93       	push	r16
    186a:	1f 93       	push	r17
    186c:	cf 93       	push	r28
    186e:	df 93       	push	r29
    1870:	cd b7       	in	r28, 0x3d	; 61
    1872:	de b7       	in	r29, 0x3e	; 62
    1874:	6e 97       	sbiw	r28, 0x1e	; 30
    1876:	0f b6       	in	r0, 0x3f	; 63
    1878:	f8 94       	cli
    187a:	de bf       	out	0x3e, r29	; 62
    187c:	0f be       	out	0x3f, r0	; 63
    187e:	cd bf       	out	0x3d, r28	; 61
    1880:	6b 01       	movw	r12, r22
    1882:	b4 2e       	mov	r11, r20
    1884:	db 01       	movw	r26, r22
    1886:	1d 92       	st	X+, r1
    1888:	1c 92       	st	X, r1
    188a:	0e 94 71 03 	call	0x6e2	; 0x6e2 <get_ldnumber>
    188e:	7c 01       	movw	r14, r24
    1890:	99 23       	and	r25, r25
    1892:	0c f4       	brge	.+2      	; 0x1896 <mount_volume+0x4a>
    1894:	68 c2       	rjmp	.+1232   	; 0x1d66 <mount_volume+0x51a>
    1896:	fc 01       	movw	r30, r24
    1898:	ee 0f       	add	r30, r30
    189a:	ff 1f       	adc	r31, r31
    189c:	ee 5c       	subi	r30, 0xCE	; 206
    189e:	fe 4e       	sbci	r31, 0xEE	; 238
    18a0:	00 81       	ld	r16, Z
    18a2:	11 81       	ldd	r17, Z+1	; 0x01
    18a4:	01 15       	cp	r16, r1
    18a6:	11 05       	cpc	r17, r1
    18a8:	09 f4       	brne	.+2      	; 0x18ac <mount_volume+0x60>
    18aa:	5f c2       	rjmp	.+1214   	; 0x1d6a <mount_volume+0x51e>
    18ac:	f6 01       	movw	r30, r12
    18ae:	11 83       	std	Z+1, r17	; 0x01
    18b0:	00 83       	st	Z, r16
    18b2:	fb 2d       	mov	r31, r11
    18b4:	fe 7f       	andi	r31, 0xFE	; 254
    18b6:	bf 2e       	mov	r11, r31
    18b8:	d8 01       	movw	r26, r16
    18ba:	8c 91       	ld	r24, X
    18bc:	88 23       	and	r24, r24
    18be:	69 f0       	breq	.+26     	; 0x18da <mount_volume+0x8e>
    18c0:	11 96       	adiw	r26, 0x01	; 1
    18c2:	8c 91       	ld	r24, X
    18c4:	0e 94 96 02 	call	0x52c	; 0x52c <disk_status>
    18c8:	80 fd       	sbrc	r24, 0
    18ca:	07 c0       	rjmp	.+14     	; 0x18da <mount_volume+0x8e>
    18cc:	bb 20       	and	r11, r11
    18ce:	09 f4       	brne	.+2      	; 0x18d2 <mount_volume+0x86>
    18d0:	4e c2       	rjmp	.+1180   	; 0x1d6e <mount_volume+0x522>
    18d2:	82 ff       	sbrs	r24, 2
    18d4:	4e c2       	rjmp	.+1180   	; 0x1d72 <mount_volume+0x526>
    18d6:	8a e0       	ldi	r24, 0x0A	; 10
    18d8:	f2 c2       	rjmp	.+1508   	; 0x1ebe <mount_volume+0x672>
    18da:	f8 01       	movw	r30, r16
    18dc:	10 82       	st	Z, r1
    18de:	e1 82       	std	Z+1, r14	; 0x01
    18e0:	8e 2d       	mov	r24, r14
    18e2:	0e 94 98 02 	call	0x530	; 0x530 <disk_initialize>
    18e6:	80 fd       	sbrc	r24, 0
    18e8:	46 c2       	rjmp	.+1164   	; 0x1d76 <mount_volume+0x52a>
    18ea:	bb 20       	and	r11, r11
    18ec:	09 f4       	brne	.+2      	; 0x18f0 <mount_volume+0xa4>
    18ee:	69 c2       	rjmp	.+1234   	; 0x1dc2 <mount_volume+0x576>
    18f0:	82 fd       	sbrc	r24, 2
    18f2:	43 c2       	rjmp	.+1158   	; 0x1d7a <mount_volume+0x52e>
    18f4:	40 e0       	ldi	r20, 0x00	; 0
    18f6:	50 e0       	ldi	r21, 0x00	; 0
    18f8:	ba 01       	movw	r22, r20
    18fa:	c8 01       	movw	r24, r16
    18fc:	eb de       	rcall	.-554    	; 0x16d4 <check_fs>
    18fe:	82 30       	cpi	r24, 0x02	; 2
    1900:	91 05       	cpc	r25, r1
    1902:	c1 f5       	brne	.+112    	; 0x1974 <mount_volume+0x128>
    1904:	48 01       	movw	r8, r16
    1906:	fb e0       	ldi	r31, 0x0B	; 11
    1908:	8f 1a       	sub	r8, r31
    190a:	fe ef       	ldi	r31, 0xFE	; 254
    190c:	9f 0a       	sbc	r9, r31
    190e:	9e 01       	movw	r18, r28
    1910:	2f 5f       	subi	r18, 0xFF	; 255
    1912:	3f 4f       	sbci	r19, 0xFF	; 255
    1914:	79 01       	movw	r14, r18
    1916:	6e 01       	movw	r12, r28
    1918:	31 e1       	ldi	r19, 0x11	; 17
    191a:	c3 0e       	add	r12, r19
    191c:	d1 1c       	adc	r13, r1
    191e:	57 01       	movw	r10, r14
    1920:	c4 01       	movw	r24, r8
    1922:	0e 94 20 03 	call	0x640	; 0x640 <ld_dword>
    1926:	d5 01       	movw	r26, r10
    1928:	6d 93       	st	X+, r22
    192a:	7d 93       	st	X+, r23
    192c:	8d 93       	st	X+, r24
    192e:	9d 93       	st	X+, r25
    1930:	5d 01       	movw	r10, r26
    1932:	b0 e1       	ldi	r27, 0x10	; 16
    1934:	8b 0e       	add	r8, r27
    1936:	91 1c       	adc	r9, r1
    1938:	ac 14       	cp	r10, r12
    193a:	bd 04       	cpc	r11, r13
    193c:	89 f7       	brne	.-30     	; 0x1920 <mount_volume+0xd4>
    193e:	0f 2e       	mov	r0, r31
    1940:	f3 e0       	ldi	r31, 0x03	; 3
    1942:	af 2e       	mov	r10, r31
    1944:	f0 2d       	mov	r31, r0
    1946:	b1 2c       	mov	r11, r1
    1948:	f7 01       	movw	r30, r14
    194a:	41 91       	ld	r20, Z+
    194c:	51 91       	ld	r21, Z+
    194e:	61 91       	ld	r22, Z+
    1950:	71 91       	ld	r23, Z+
    1952:	7f 01       	movw	r14, r30
    1954:	41 15       	cp	r20, r1
    1956:	51 05       	cpc	r21, r1
    1958:	61 05       	cpc	r22, r1
    195a:	71 05       	cpc	r23, r1
    195c:	31 f0       	breq	.+12     	; 0x196a <mount_volume+0x11e>
    195e:	c8 01       	movw	r24, r16
    1960:	b9 de       	rcall	.-654    	; 0x16d4 <check_fs>
    1962:	82 30       	cpi	r24, 0x02	; 2
    1964:	91 05       	cpc	r25, r1
    1966:	18 f4       	brcc	.+6      	; 0x196e <mount_volume+0x122>
    1968:	36 c2       	rjmp	.+1132   	; 0x1dd6 <mount_volume+0x58a>
    196a:	8a 2d       	mov	r24, r10
    196c:	9b 2d       	mov	r25, r11
    196e:	ce 14       	cp	r12, r14
    1970:	df 04       	cpc	r13, r15
    1972:	51 f7       	brne	.-44     	; 0x1948 <mount_volume+0xfc>
    1974:	84 30       	cpi	r24, 0x04	; 4
    1976:	91 05       	cpc	r25, r1
    1978:	09 f4       	brne	.+2      	; 0x197c <mount_volume+0x130>
    197a:	01 c2       	rjmp	.+1026   	; 0x1d7e <mount_volume+0x532>
    197c:	02 97       	sbiw	r24, 0x02	; 2
    197e:	08 f0       	brcs	.+2      	; 0x1982 <mount_volume+0x136>
    1980:	00 c2       	rjmp	.+1024   	; 0x1d82 <mount_volume+0x536>
    1982:	d8 01       	movw	r26, r16
    1984:	db 96       	adiw	r26, 0x3b	; 59
    1986:	8c 91       	ld	r24, X
    1988:	db 97       	sbiw	r26, 0x3b	; 59
    198a:	90 e0       	ldi	r25, 0x00	; 0
    198c:	98 2f       	mov	r25, r24
    198e:	88 27       	eor	r24, r24
    1990:	da 96       	adiw	r26, 0x3a	; 58
    1992:	2c 91       	ld	r18, X
    1994:	82 2b       	or	r24, r18
    1996:	81 15       	cp	r24, r1
    1998:	92 40       	sbci	r25, 0x02	; 2
    199a:	09 f0       	breq	.+2      	; 0x199e <mount_volume+0x152>
    199c:	f4 c1       	rjmp	.+1000   	; 0x1d86 <mount_volume+0x53a>
    199e:	f8 01       	movw	r30, r16
    19a0:	ea 5b       	subi	r30, 0xBA	; 186
    19a2:	ff 4f       	sbci	r31, 0xFF	; 255
    19a4:	80 80       	ld	r8, Z
    19a6:	91 2c       	mov	r9, r1
    19a8:	98 2c       	mov	r9, r8
    19aa:	88 24       	eor	r8, r8
    19ac:	31 97       	sbiw	r30, 0x01	; 1
    19ae:	80 81       	ld	r24, Z
    19b0:	88 2a       	or	r8, r24
    19b2:	94 01       	movw	r18, r8
    19b4:	40 e0       	ldi	r20, 0x00	; 0
    19b6:	50 e0       	ldi	r21, 0x00	; 0
    19b8:	29 8b       	std	Y+17, r18	; 0x11
    19ba:	3a 8b       	std	Y+18, r19	; 0x12
    19bc:	4b 8b       	std	Y+19, r20	; 0x13
    19be:	5c 8b       	std	Y+20, r21	; 0x14
    19c0:	23 2b       	or	r18, r19
    19c2:	24 2b       	or	r18, r20
    19c4:	25 2b       	or	r18, r21
    19c6:	49 f4       	brne	.+18     	; 0x19da <mount_volume+0x18e>
    19c8:	c8 01       	movw	r24, r16
    19ca:	8d 5a       	subi	r24, 0xAD	; 173
    19cc:	9f 4f       	sbci	r25, 0xFF	; 255
    19ce:	0e 94 20 03 	call	0x640	; 0x640 <ld_dword>
    19d2:	69 8b       	std	Y+17, r22	; 0x11
    19d4:	7a 8b       	std	Y+18, r23	; 0x12
    19d6:	8b 8b       	std	Y+19, r24	; 0x13
    19d8:	9c 8b       	std	Y+20, r25	; 0x14
    19da:	d8 01       	movw	r26, r16
    19dc:	9b 96       	adiw	r26, 0x2b	; 43
    19de:	8d 90       	ld	r8, X+
    19e0:	9d 90       	ld	r9, X+
    19e2:	ad 90       	ld	r10, X+
    19e4:	bc 90       	ld	r11, X
    19e6:	9e 97       	sbiw	r26, 0x2e	; 46
    19e8:	29 89       	ldd	r18, Y+17	; 0x11
    19ea:	3a 89       	ldd	r19, Y+18	; 0x12
    19ec:	4b 89       	ldd	r20, Y+19	; 0x13
    19ee:	5c 89       	ldd	r21, Y+20	; 0x14
    19f0:	57 96       	adiw	r26, 0x17	; 23
    19f2:	2d 93       	st	X+, r18
    19f4:	3d 93       	st	X+, r19
    19f6:	4d 93       	st	X+, r20
    19f8:	5c 93       	st	X, r21
    19fa:	5a 97       	sbiw	r26, 0x1a	; 26
    19fc:	df 96       	adiw	r26, 0x3f	; 63
    19fe:	7c 90       	ld	r7, X
    1a00:	df 97       	sbiw	r26, 0x3f	; 63
    1a02:	12 96       	adiw	r26, 0x02	; 2
    1a04:	7c 92       	st	X, r7
    1a06:	12 97       	sbiw	r26, 0x02	; 2
    1a08:	8f ef       	ldi	r24, 0xFF	; 255
    1a0a:	87 0d       	add	r24, r7
    1a0c:	82 30       	cpi	r24, 0x02	; 2
    1a0e:	08 f0       	brcs	.+2      	; 0x1a12 <mount_volume+0x1c6>
    1a10:	bc c1       	rjmp	.+888    	; 0x1d8a <mount_volume+0x53e>
    1a12:	dc 96       	adiw	r26, 0x3c	; 60
    1a14:	3c 90       	ld	r3, X
    1a16:	dc 97       	sbiw	r26, 0x3c	; 60
    1a18:	83 2d       	mov	r24, r3
    1a1a:	90 e0       	ldi	r25, 0x00	; 0
    1a1c:	1a 96       	adiw	r26, 0x0a	; 10
    1a1e:	9c 93       	st	X, r25
    1a20:	8e 93       	st	-X, r24
    1a22:	19 97       	sbiw	r26, 0x09	; 9
    1a24:	00 97       	sbiw	r24, 0x00	; 0
    1a26:	09 f4       	brne	.+2      	; 0x1a2a <mount_volume+0x1de>
    1a28:	b2 c1       	rjmp	.+868    	; 0x1d8e <mount_volume+0x542>
    1a2a:	9c 01       	movw	r18, r24
    1a2c:	21 50       	subi	r18, 0x01	; 1
    1a2e:	31 09       	sbc	r19, r1
    1a30:	82 23       	and	r24, r18
    1a32:	93 23       	and	r25, r19
    1a34:	89 2b       	or	r24, r25
    1a36:	09 f0       	breq	.+2      	; 0x1a3a <mount_volume+0x1ee>
    1a38:	ac c1       	rjmp	.+856    	; 0x1d92 <mount_volume+0x546>
    1a3a:	f8 01       	movw	r30, r16
    1a3c:	ef 5b       	subi	r30, 0xBF	; 191
    1a3e:	ff 4f       	sbci	r31, 0xFF	; 255
    1a40:	80 81       	ld	r24, Z
    1a42:	90 e0       	ldi	r25, 0x00	; 0
    1a44:	98 2f       	mov	r25, r24
    1a46:	88 27       	eor	r24, r24
    1a48:	31 97       	sbiw	r30, 0x01	; 1
    1a4a:	20 81       	ld	r18, Z
    1a4c:	fc 01       	movw	r30, r24
    1a4e:	e2 2b       	or	r30, r18
    1a50:	fe 8b       	std	Y+22, r31	; 0x16
    1a52:	ed 8b       	std	Y+21, r30	; 0x15
    1a54:	18 96       	adiw	r26, 0x08	; 8
    1a56:	fc 93       	st	X, r31
    1a58:	ee 93       	st	-X, r30
    1a5a:	17 97       	sbiw	r26, 0x07	; 7
    1a5c:	cf 01       	movw	r24, r30
    1a5e:	8f 70       	andi	r24, 0x0F	; 15
    1a60:	99 27       	eor	r25, r25
    1a62:	89 2b       	or	r24, r25
    1a64:	09 f0       	breq	.+2      	; 0x1a68 <mount_volume+0x21c>
    1a66:	97 c1       	rjmp	.+814    	; 0x1d96 <mount_volume+0x54a>
    1a68:	f8 01       	movw	r30, r16
    1a6a:	ed 5b       	subi	r30, 0xBD	; 189
    1a6c:	ff 4f       	sbci	r31, 0xFF	; 255
    1a6e:	c0 80       	ld	r12, Z
    1a70:	d1 2c       	mov	r13, r1
    1a72:	dc 2c       	mov	r13, r12
    1a74:	cc 24       	eor	r12, r12
    1a76:	31 97       	sbiw	r30, 0x01	; 1
    1a78:	80 81       	ld	r24, Z
    1a7a:	c8 2a       	or	r12, r24
    1a7c:	e1 2c       	mov	r14, r1
    1a7e:	f1 2c       	mov	r15, r1
    1a80:	c1 14       	cp	r12, r1
    1a82:	d1 04       	cpc	r13, r1
    1a84:	e1 04       	cpc	r14, r1
    1a86:	f1 04       	cpc	r15, r1
    1a88:	39 f4       	brne	.+14     	; 0x1a98 <mount_volume+0x24c>
    1a8a:	c8 01       	movw	r24, r16
    1a8c:	81 5b       	subi	r24, 0xB1	; 177
    1a8e:	9f 4f       	sbci	r25, 0xFF	; 255
    1a90:	0e 94 20 03 	call	0x640	; 0x640 <ld_dword>
    1a94:	6b 01       	movw	r12, r22
    1a96:	7c 01       	movw	r14, r24
    1a98:	d8 01       	movw	r26, r16
    1a9a:	de 96       	adiw	r26, 0x3e	; 62
    1a9c:	ec 91       	ld	r30, X
    1a9e:	de 97       	sbiw	r26, 0x3e	; 62
    1aa0:	f0 e0       	ldi	r31, 0x00	; 0
    1aa2:	fe 2f       	mov	r31, r30
    1aa4:	ee 27       	eor	r30, r30
    1aa6:	dd 96       	adiw	r26, 0x3d	; 61
    1aa8:	8c 91       	ld	r24, X
    1aaa:	e8 2b       	or	r30, r24
    1aac:	30 97       	sbiw	r30, 0x00	; 0
    1aae:	09 f4       	brne	.+2      	; 0x1ab2 <mount_volume+0x266>
    1ab0:	74 c1       	rjmp	.+744    	; 0x1d9a <mount_volume+0x54e>
    1ab2:	a7 2d       	mov	r26, r7
    1ab4:	b0 e0       	ldi	r27, 0x00	; 0
    1ab6:	29 89       	ldd	r18, Y+17	; 0x11
    1ab8:	3a 89       	ldd	r19, Y+18	; 0x12
    1aba:	4b 89       	ldd	r20, Y+19	; 0x13
    1abc:	5c 89       	ldd	r21, Y+20	; 0x14
    1abe:	0e 94 c1 26 	call	0x4d82	; 0x4d82 <__muluhisi3>
    1ac2:	6b 8f       	std	Y+27, r22	; 0x1b
    1ac4:	7c 8f       	std	Y+28, r23	; 0x1c
    1ac6:	8d 8f       	std	Y+29, r24	; 0x1d
    1ac8:	9e 8f       	std	Y+30, r25	; 0x1e
    1aca:	9f 01       	movw	r18, r30
    1acc:	40 e0       	ldi	r20, 0x00	; 0
    1ace:	50 e0       	ldi	r21, 0x00	; 0
    1ad0:	2f 8b       	std	Y+23, r18	; 0x17
    1ad2:	38 8f       	std	Y+24, r19	; 0x18
    1ad4:	49 8f       	std	Y+25, r20	; 0x19
    1ad6:	5a 8f       	std	Y+26, r21	; 0x1a
    1ad8:	8d 89       	ldd	r24, Y+21	; 0x15
    1ada:	9e 89       	ldd	r25, Y+22	; 0x16
    1adc:	92 95       	swap	r25
    1ade:	82 95       	swap	r24
    1ae0:	8f 70       	andi	r24, 0x0F	; 15
    1ae2:	89 27       	eor	r24, r25
    1ae4:	9f 70       	andi	r25, 0x0F	; 15
    1ae6:	89 27       	eor	r24, r25
    1ae8:	28 0f       	add	r18, r24
    1aea:	39 1f       	adc	r19, r25
    1aec:	41 1d       	adc	r20, r1
    1aee:	51 1d       	adc	r21, r1
    1af0:	4b 8c       	ldd	r4, Y+27	; 0x1b
    1af2:	5c 8c       	ldd	r5, Y+28	; 0x1c
    1af4:	6d 8c       	ldd	r6, Y+29	; 0x1d
    1af6:	7e 8c       	ldd	r7, Y+30	; 0x1e
    1af8:	42 0e       	add	r4, r18
    1afa:	53 1e       	adc	r5, r19
    1afc:	64 1e       	adc	r6, r20
    1afe:	75 1e       	adc	r7, r21
    1b00:	c4 14       	cp	r12, r4
    1b02:	d5 04       	cpc	r13, r5
    1b04:	e6 04       	cpc	r14, r6
    1b06:	f7 04       	cpc	r15, r7
    1b08:	08 f4       	brcc	.+2      	; 0x1b0c <mount_volume+0x2c0>
    1b0a:	49 c1       	rjmp	.+658    	; 0x1d9e <mount_volume+0x552>
    1b0c:	c7 01       	movw	r24, r14
    1b0e:	b6 01       	movw	r22, r12
    1b10:	64 19       	sub	r22, r4
    1b12:	75 09       	sbc	r23, r5
    1b14:	86 09       	sbc	r24, r6
    1b16:	97 09       	sbc	r25, r7
    1b18:	23 2d       	mov	r18, r3
    1b1a:	30 e0       	ldi	r19, 0x00	; 0
    1b1c:	40 e0       	ldi	r20, 0x00	; 0
    1b1e:	50 e0       	ldi	r21, 0x00	; 0
    1b20:	0e 94 97 26 	call	0x4d2e	; 0x4d2e <__udivmodsi4>
    1b24:	da 01       	movw	r26, r20
    1b26:	c9 01       	movw	r24, r18
    1b28:	21 15       	cp	r18, r1
    1b2a:	31 05       	cpc	r19, r1
    1b2c:	41 05       	cpc	r20, r1
    1b2e:	51 05       	cpc	r21, r1
    1b30:	09 f4       	brne	.+2      	; 0x1b34 <mount_volume+0x2e8>
    1b32:	37 c1       	rjmp	.+622    	; 0x1da2 <mount_volume+0x556>
    1b34:	26 3f       	cpi	r18, 0xF6	; 246
    1b36:	6f ef       	ldi	r22, 0xFF	; 255
    1b38:	36 07       	cpc	r19, r22
    1b3a:	46 07       	cpc	r20, r22
    1b3c:	6f e0       	ldi	r22, 0x0F	; 15
    1b3e:	56 07       	cpc	r21, r22
    1b40:	30 f4       	brcc	.+12     	; 0x1b4e <mount_volume+0x302>
    1b42:	0f 2e       	mov	r0, r31
    1b44:	f3 e0       	ldi	r31, 0x03	; 3
    1b46:	2f 2e       	mov	r2, r31
    1b48:	31 2c       	mov	r3, r1
    1b4a:	f0 2d       	mov	r31, r0
    1b4c:	02 c0       	rjmp	.+4      	; 0x1b52 <mount_volume+0x306>
    1b4e:	21 2c       	mov	r2, r1
    1b50:	31 2c       	mov	r3, r1
    1b52:	86 3f       	cpi	r24, 0xF6	; 246
    1b54:	ef ef       	ldi	r30, 0xFF	; 255
    1b56:	9e 07       	cpc	r25, r30
    1b58:	a1 05       	cpc	r26, r1
    1b5a:	b1 05       	cpc	r27, r1
    1b5c:	20 f4       	brcc	.+8      	; 0x1b66 <mount_volume+0x31a>
    1b5e:	68 94       	set
    1b60:	22 24       	eor	r2, r2
    1b62:	21 f8       	bld	r2, 1
    1b64:	31 2c       	mov	r3, r1
    1b66:	86 3f       	cpi	r24, 0xF6	; 246
    1b68:	9f 40       	sbci	r25, 0x0F	; 15
    1b6a:	a1 05       	cpc	r26, r1
    1b6c:	b1 05       	cpc	r27, r1
    1b6e:	08 f4       	brcc	.+2      	; 0x1b72 <mount_volume+0x326>
    1b70:	79 c1       	rjmp	.+754    	; 0x1e64 <mount_volume+0x618>
    1b72:	21 14       	cp	r2, r1
    1b74:	31 04       	cpc	r3, r1
    1b76:	09 f4       	brne	.+2      	; 0x1b7a <mount_volume+0x32e>
    1b78:	16 c1       	rjmp	.+556    	; 0x1da6 <mount_volume+0x55a>
    1b7a:	69 01       	movw	r12, r18
    1b7c:	7a 01       	movw	r14, r20
    1b7e:	62 e0       	ldi	r22, 0x02	; 2
    1b80:	c6 0e       	add	r12, r22
    1b82:	d1 1c       	adc	r13, r1
    1b84:	e1 1c       	adc	r14, r1
    1b86:	f1 1c       	adc	r15, r1
    1b88:	d8 01       	movw	r26, r16
    1b8a:	53 96       	adiw	r26, 0x13	; 19
    1b8c:	cd 92       	st	X+, r12
    1b8e:	dd 92       	st	X+, r13
    1b90:	ed 92       	st	X+, r14
    1b92:	fc 92       	st	X, r15
    1b94:	56 97       	sbiw	r26, 0x16	; 22
    1b96:	f8 01       	movw	r30, r16
    1b98:	83 8e       	std	Z+27, r8	; 0x1b
    1b9a:	94 8e       	std	Z+28, r9	; 0x1c
    1b9c:	a5 8e       	std	Z+29, r10	; 0x1d
    1b9e:	b6 8e       	std	Z+30, r11	; 0x1e
    1ba0:	8f 89       	ldd	r24, Y+23	; 0x17
    1ba2:	98 8d       	ldd	r25, Y+24	; 0x18
    1ba4:	a9 8d       	ldd	r26, Y+25	; 0x19
    1ba6:	ba 8d       	ldd	r27, Y+26	; 0x1a
    1ba8:	88 0d       	add	r24, r8
    1baa:	99 1d       	adc	r25, r9
    1bac:	aa 1d       	adc	r26, r10
    1bae:	bb 1d       	adc	r27, r11
    1bb0:	87 8f       	std	Z+31, r24	; 0x1f
    1bb2:	90 a3       	std	Z+32, r25	; 0x20
    1bb4:	a1 a3       	std	Z+33, r26	; 0x21
    1bb6:	b2 a3       	std	Z+34, r27	; 0x22
    1bb8:	b5 01       	movw	r22, r10
    1bba:	a4 01       	movw	r20, r8
    1bbc:	44 0d       	add	r20, r4
    1bbe:	55 1d       	adc	r21, r5
    1bc0:	66 1d       	adc	r22, r6
    1bc2:	77 1d       	adc	r23, r7
    1bc4:	47 a3       	std	Z+39, r20	; 0x27
    1bc6:	50 a7       	std	Z+40, r21	; 0x28
    1bc8:	61 a7       	std	Z+41, r22	; 0x29
    1bca:	72 a7       	std	Z+42, r23	; 0x2a
    1bcc:	f3 e0       	ldi	r31, 0x03	; 3
    1bce:	2f 16       	cp	r2, r31
    1bd0:	31 04       	cpc	r3, r1
    1bd2:	09 f0       	breq	.+2      	; 0x1bd6 <mount_volume+0x38a>
    1bd4:	40 c0       	rjmp	.+128    	; 0x1c56 <mount_volume+0x40a>
    1bd6:	f8 01       	movw	r30, r16
    1bd8:	e6 5a       	subi	r30, 0xA6	; 166
    1bda:	ff 4f       	sbci	r31, 0xFF	; 255
    1bdc:	80 81       	ld	r24, Z
    1bde:	90 e0       	ldi	r25, 0x00	; 0
    1be0:	98 2f       	mov	r25, r24
    1be2:	88 27       	eor	r24, r24
    1be4:	31 97       	sbiw	r30, 0x01	; 1
    1be6:	20 81       	ld	r18, Z
    1be8:	82 2b       	or	r24, r18
    1bea:	89 2b       	or	r24, r25
    1bec:	09 f0       	breq	.+2      	; 0x1bf0 <mount_volume+0x3a4>
    1bee:	dd c0       	rjmp	.+442    	; 0x1daa <mount_volume+0x55e>
    1bf0:	2d 89       	ldd	r18, Y+21	; 0x15
    1bf2:	3e 89       	ldd	r19, Y+22	; 0x16
    1bf4:	23 2b       	or	r18, r19
    1bf6:	09 f0       	breq	.+2      	; 0x1bfa <mount_volume+0x3ae>
    1bf8:	da c0       	rjmp	.+436    	; 0x1dae <mount_volume+0x562>
    1bfa:	c8 01       	movw	r24, r16
    1bfc:	85 5a       	subi	r24, 0xA5	; 165
    1bfe:	9f 4f       	sbci	r25, 0xFF	; 255
    1c00:	0e 94 20 03 	call	0x640	; 0x640 <ld_dword>
    1c04:	d8 01       	movw	r26, r16
    1c06:	93 96       	adiw	r26, 0x23	; 35
    1c08:	6d 93       	st	X+, r22
    1c0a:	7d 93       	st	X+, r23
    1c0c:	8d 93       	st	X+, r24
    1c0e:	9c 93       	st	X, r25
    1c10:	96 97       	sbiw	r26, 0x26	; 38
    1c12:	cc 0c       	add	r12, r12
    1c14:	dd 1c       	adc	r13, r13
    1c16:	ee 1c       	adc	r14, r14
    1c18:	ff 1c       	adc	r15, r15
    1c1a:	cc 0c       	add	r12, r12
    1c1c:	dd 1c       	adc	r13, r13
    1c1e:	ee 1c       	adc	r14, r14
    1c20:	ff 1c       	adc	r15, r15
    1c22:	bf ef       	ldi	r27, 0xFF	; 255
    1c24:	cb 0e       	add	r12, r27
    1c26:	b1 e0       	ldi	r27, 0x01	; 1
    1c28:	db 1e       	adc	r13, r27
    1c2a:	e1 1c       	adc	r14, r1
    1c2c:	f1 1c       	adc	r15, r1
    1c2e:	0b 2e       	mov	r0, r27
    1c30:	b9 e0       	ldi	r27, 0x09	; 9
    1c32:	f6 94       	lsr	r15
    1c34:	e7 94       	ror	r14
    1c36:	d7 94       	ror	r13
    1c38:	c7 94       	ror	r12
    1c3a:	ba 95       	dec	r27
    1c3c:	d1 f7       	brne	.-12     	; 0x1c32 <mount_volume+0x3e6>
    1c3e:	b0 2d       	mov	r27, r0
    1c40:	29 89       	ldd	r18, Y+17	; 0x11
    1c42:	3a 89       	ldd	r19, Y+18	; 0x12
    1c44:	4b 89       	ldd	r20, Y+19	; 0x13
    1c46:	5c 89       	ldd	r21, Y+20	; 0x14
    1c48:	2c 15       	cp	r18, r12
    1c4a:	3d 05       	cpc	r19, r13
    1c4c:	4e 05       	cpc	r20, r14
    1c4e:	5f 05       	cpc	r21, r15
    1c50:	08 f4       	brcc	.+2      	; 0x1c54 <mount_volume+0x408>
    1c52:	af c0       	rjmp	.+350    	; 0x1db2 <mount_volume+0x566>
    1c54:	ec c0       	rjmp	.+472    	; 0x1e2e <mount_volume+0x5e2>
    1c56:	4d 89       	ldd	r20, Y+21	; 0x15
    1c58:	5e 89       	ldd	r21, Y+22	; 0x16
    1c5a:	45 2b       	or	r20, r21
    1c5c:	09 f4       	brne	.+2      	; 0x1c60 <mount_volume+0x414>
    1c5e:	ab c0       	rjmp	.+342    	; 0x1db6 <mount_volume+0x56a>
    1c60:	4b 8c       	ldd	r4, Y+27	; 0x1b
    1c62:	5c 8c       	ldd	r5, Y+28	; 0x1c
    1c64:	6d 8c       	ldd	r6, Y+29	; 0x1d
    1c66:	7e 8c       	ldd	r7, Y+30	; 0x1e
    1c68:	48 0e       	add	r4, r24
    1c6a:	59 1e       	adc	r5, r25
    1c6c:	6a 1e       	adc	r6, r26
    1c6e:	7b 1e       	adc	r7, r27
    1c70:	d8 01       	movw	r26, r16
    1c72:	93 96       	adiw	r26, 0x23	; 35
    1c74:	4d 92       	st	X+, r4
    1c76:	5d 92       	st	X+, r5
    1c78:	6d 92       	st	X+, r6
    1c7a:	7c 92       	st	X, r7
    1c7c:	96 97       	sbiw	r26, 0x26	; 38
    1c7e:	b2 e0       	ldi	r27, 0x02	; 2
    1c80:	2b 16       	cp	r2, r27
    1c82:	31 04       	cpc	r3, r1
    1c84:	29 f4       	brne	.+10     	; 0x1c90 <mount_volume+0x444>
    1c86:	cc 0c       	add	r12, r12
    1c88:	dd 1c       	adc	r13, r13
    1c8a:	ee 1c       	adc	r14, r14
    1c8c:	ff 1c       	adc	r15, r15
    1c8e:	b6 c0       	rjmp	.+364    	; 0x1dfc <mount_volume+0x5b0>
    1c90:	a3 e0       	ldi	r26, 0x03	; 3
    1c92:	b0 e0       	ldi	r27, 0x00	; 0
    1c94:	a7 01       	movw	r20, r14
    1c96:	96 01       	movw	r18, r12
    1c98:	0e 94 c1 26 	call	0x4d82	; 0x4d82 <__muluhisi3>
    1c9c:	dc 01       	movw	r26, r24
    1c9e:	cb 01       	movw	r24, r22
    1ca0:	b6 95       	lsr	r27
    1ca2:	a7 95       	ror	r26
    1ca4:	97 95       	ror	r25
    1ca6:	87 95       	ror	r24
    1ca8:	e1 e0       	ldi	r30, 0x01	; 1
    1caa:	ce 22       	and	r12, r30
    1cac:	dd 24       	eor	r13, r13
    1cae:	ee 24       	eor	r14, r14
    1cb0:	ff 24       	eor	r15, r15
    1cb2:	c8 0e       	add	r12, r24
    1cb4:	d9 1e       	adc	r13, r25
    1cb6:	ea 1e       	adc	r14, r26
    1cb8:	fb 1e       	adc	r15, r27
    1cba:	a0 c0       	rjmp	.+320    	; 0x1dfc <mount_volume+0x5b0>
    1cbc:	b5 01       	movw	r22, r10
    1cbe:	a4 01       	movw	r20, r8
    1cc0:	4f 5f       	subi	r20, 0xFF	; 255
    1cc2:	5f 4f       	sbci	r21, 0xFF	; 255
    1cc4:	6f 4f       	sbci	r22, 0xFF	; 255
    1cc6:	7f 4f       	sbci	r23, 0xFF	; 255
    1cc8:	c8 01       	movw	r24, r16
    1cca:	0e 94 2b 04 	call	0x856	; 0x856 <move_window>
    1cce:	81 11       	cpse	r24, r1
    1cd0:	39 c0       	rjmp	.+114    	; 0x1d44 <mount_volume+0x4f8>
    1cd2:	d8 01       	movw	r26, r16
    1cd4:	14 96       	adiw	r26, 0x04	; 4
    1cd6:	1c 92       	st	X, r1
    1cd8:	f8 01       	movw	r30, r16
    1cda:	e2 5d       	subi	r30, 0xD2	; 210
    1cdc:	fd 4f       	sbci	r31, 0xFD	; 253
    1cde:	80 81       	ld	r24, Z
    1ce0:	90 e0       	ldi	r25, 0x00	; 0
    1ce2:	98 2f       	mov	r25, r24
    1ce4:	88 27       	eor	r24, r24
    1ce6:	31 97       	sbiw	r30, 0x01	; 1
    1ce8:	20 81       	ld	r18, Z
    1cea:	82 2b       	or	r24, r18
    1cec:	85 35       	cpi	r24, 0x55	; 85
    1cee:	9a 4a       	sbci	r25, 0xAA	; 170
    1cf0:	49 f5       	brne	.+82     	; 0x1d44 <mount_volume+0x4f8>
    1cf2:	c8 01       	movw	r24, r16
    1cf4:	8f 96       	adiw	r24, 0x2f	; 47
    1cf6:	0e 94 20 03 	call	0x640	; 0x640 <ld_dword>
    1cfa:	62 35       	cpi	r22, 0x52	; 82
    1cfc:	72 45       	sbci	r23, 0x52	; 82
    1cfe:	81 46       	sbci	r24, 0x61	; 97
    1d00:	91 44       	sbci	r25, 0x41	; 65
    1d02:	01 f5       	brne	.+64     	; 0x1d44 <mount_volume+0x4f8>
    1d04:	c8 01       	movw	r24, r16
    1d06:	8d 5e       	subi	r24, 0xED	; 237
    1d08:	9d 4f       	sbci	r25, 0xFD	; 253
    1d0a:	0e 94 20 03 	call	0x640	; 0x640 <ld_dword>
    1d0e:	62 37       	cpi	r22, 0x72	; 114
    1d10:	72 47       	sbci	r23, 0x72	; 114
    1d12:	81 44       	sbci	r24, 0x41	; 65
    1d14:	91 46       	sbci	r25, 0x61	; 97
    1d16:	b1 f4       	brne	.+44     	; 0x1d44 <mount_volume+0x4f8>
    1d18:	c8 01       	movw	r24, r16
    1d1a:	89 5e       	subi	r24, 0xE9	; 233
    1d1c:	9d 4f       	sbci	r25, 0xFD	; 253
    1d1e:	0e 94 20 03 	call	0x640	; 0x640 <ld_dword>
    1d22:	d8 01       	movw	r26, r16
    1d24:	1f 96       	adiw	r26, 0x0f	; 15
    1d26:	6d 93       	st	X+, r22
    1d28:	7d 93       	st	X+, r23
    1d2a:	8d 93       	st	X+, r24
    1d2c:	9c 93       	st	X, r25
    1d2e:	52 97       	sbiw	r26, 0x12	; 18
    1d30:	c8 01       	movw	r24, r16
    1d32:	85 5e       	subi	r24, 0xE5	; 229
    1d34:	9d 4f       	sbci	r25, 0xFD	; 253
    1d36:	0e 94 20 03 	call	0x640	; 0x640 <ld_dword>
    1d3a:	f8 01       	movw	r30, r16
    1d3c:	63 87       	std	Z+11, r22	; 0x0b
    1d3e:	74 87       	std	Z+12, r23	; 0x0c
    1d40:	85 87       	std	Z+13, r24	; 0x0d
    1d42:	96 87       	std	Z+14, r25	; 0x0e
    1d44:	d8 01       	movw	r26, r16
    1d46:	2c 92       	st	X, r2
    1d48:	80 91 30 11 	lds	r24, 0x1130	; 0x801130 <__data_end>
    1d4c:	90 91 31 11 	lds	r25, 0x1131	; 0x801131 <__data_end+0x1>
    1d50:	01 96       	adiw	r24, 0x01	; 1
    1d52:	90 93 31 11 	sts	0x1131, r25	; 0x801131 <__data_end+0x1>
    1d56:	80 93 30 11 	sts	0x1130, r24	; 0x801130 <__data_end>
    1d5a:	16 96       	adiw	r26, 0x06	; 6
    1d5c:	9c 93       	st	X, r25
    1d5e:	8e 93       	st	-X, r24
    1d60:	15 97       	sbiw	r26, 0x05	; 5
    1d62:	80 e0       	ldi	r24, 0x00	; 0
    1d64:	ac c0       	rjmp	.+344    	; 0x1ebe <mount_volume+0x672>
    1d66:	8b e0       	ldi	r24, 0x0B	; 11
    1d68:	aa c0       	rjmp	.+340    	; 0x1ebe <mount_volume+0x672>
    1d6a:	8c e0       	ldi	r24, 0x0C	; 12
    1d6c:	a8 c0       	rjmp	.+336    	; 0x1ebe <mount_volume+0x672>
    1d6e:	80 e0       	ldi	r24, 0x00	; 0
    1d70:	a6 c0       	rjmp	.+332    	; 0x1ebe <mount_volume+0x672>
    1d72:	80 e0       	ldi	r24, 0x00	; 0
    1d74:	a4 c0       	rjmp	.+328    	; 0x1ebe <mount_volume+0x672>
    1d76:	83 e0       	ldi	r24, 0x03	; 3
    1d78:	a2 c0       	rjmp	.+324    	; 0x1ebe <mount_volume+0x672>
    1d7a:	8a e0       	ldi	r24, 0x0A	; 10
    1d7c:	a0 c0       	rjmp	.+320    	; 0x1ebe <mount_volume+0x672>
    1d7e:	81 e0       	ldi	r24, 0x01	; 1
    1d80:	9e c0       	rjmp	.+316    	; 0x1ebe <mount_volume+0x672>
    1d82:	8d e0       	ldi	r24, 0x0D	; 13
    1d84:	9c c0       	rjmp	.+312    	; 0x1ebe <mount_volume+0x672>
    1d86:	8d e0       	ldi	r24, 0x0D	; 13
    1d88:	9a c0       	rjmp	.+308    	; 0x1ebe <mount_volume+0x672>
    1d8a:	8d e0       	ldi	r24, 0x0D	; 13
    1d8c:	98 c0       	rjmp	.+304    	; 0x1ebe <mount_volume+0x672>
    1d8e:	8d e0       	ldi	r24, 0x0D	; 13
    1d90:	96 c0       	rjmp	.+300    	; 0x1ebe <mount_volume+0x672>
    1d92:	8d e0       	ldi	r24, 0x0D	; 13
    1d94:	94 c0       	rjmp	.+296    	; 0x1ebe <mount_volume+0x672>
    1d96:	8d e0       	ldi	r24, 0x0D	; 13
    1d98:	92 c0       	rjmp	.+292    	; 0x1ebe <mount_volume+0x672>
    1d9a:	8d e0       	ldi	r24, 0x0D	; 13
    1d9c:	90 c0       	rjmp	.+288    	; 0x1ebe <mount_volume+0x672>
    1d9e:	8d e0       	ldi	r24, 0x0D	; 13
    1da0:	8e c0       	rjmp	.+284    	; 0x1ebe <mount_volume+0x672>
    1da2:	8d e0       	ldi	r24, 0x0D	; 13
    1da4:	8c c0       	rjmp	.+280    	; 0x1ebe <mount_volume+0x672>
    1da6:	8d e0       	ldi	r24, 0x0D	; 13
    1da8:	8a c0       	rjmp	.+276    	; 0x1ebe <mount_volume+0x672>
    1daa:	8d e0       	ldi	r24, 0x0D	; 13
    1dac:	88 c0       	rjmp	.+272    	; 0x1ebe <mount_volume+0x672>
    1dae:	8d e0       	ldi	r24, 0x0D	; 13
    1db0:	86 c0       	rjmp	.+268    	; 0x1ebe <mount_volume+0x672>
    1db2:	8d e0       	ldi	r24, 0x0D	; 13
    1db4:	84 c0       	rjmp	.+264    	; 0x1ebe <mount_volume+0x672>
    1db6:	8d e0       	ldi	r24, 0x0D	; 13
    1db8:	82 c0       	rjmp	.+260    	; 0x1ebe <mount_volume+0x672>
    1dba:	81 e0       	ldi	r24, 0x01	; 1
    1dbc:	80 c0       	rjmp	.+256    	; 0x1ebe <mount_volume+0x672>
    1dbe:	8d e0       	ldi	r24, 0x0D	; 13
    1dc0:	7e c0       	rjmp	.+252    	; 0x1ebe <mount_volume+0x672>
    1dc2:	40 e0       	ldi	r20, 0x00	; 0
    1dc4:	50 e0       	ldi	r21, 0x00	; 0
    1dc6:	ba 01       	movw	r22, r20
    1dc8:	c8 01       	movw	r24, r16
    1dca:	84 dc       	rcall	.-1784   	; 0x16d4 <check_fs>
    1dcc:	82 30       	cpi	r24, 0x02	; 2
    1dce:	91 05       	cpc	r25, r1
    1dd0:	09 f0       	breq	.+2      	; 0x1dd4 <mount_volume+0x588>
    1dd2:	d0 cd       	rjmp	.-1120   	; 0x1974 <mount_volume+0x128>
    1dd4:	97 cd       	rjmp	.-1234   	; 0x1904 <mount_volume+0xb8>
    1dd6:	04 97       	sbiw	r24, 0x04	; 4
    1dd8:	09 f0       	breq	.+2      	; 0x1ddc <mount_volume+0x590>
    1dda:	d3 cd       	rjmp	.-1114   	; 0x1982 <mount_volume+0x136>
    1ddc:	ee cf       	rjmp	.-36     	; 0x1dba <mount_volume+0x56e>
    1dde:	8f ef       	ldi	r24, 0xFF	; 255
    1de0:	9f ef       	ldi	r25, 0xFF	; 255
    1de2:	dc 01       	movw	r26, r24
    1de4:	f8 01       	movw	r30, r16
    1de6:	87 87       	std	Z+15, r24	; 0x0f
    1de8:	90 8b       	std	Z+16, r25	; 0x10
    1dea:	a1 8b       	std	Z+17, r26	; 0x11
    1dec:	b2 8b       	std	Z+18, r27	; 0x12
    1dee:	83 87       	std	Z+11, r24	; 0x0b
    1df0:	94 87       	std	Z+12, r25	; 0x0c
    1df2:	a5 87       	std	Z+13, r26	; 0x0d
    1df4:	b6 87       	std	Z+14, r27	; 0x0e
    1df6:	80 e8       	ldi	r24, 0x80	; 128
    1df8:	84 83       	std	Z+4, r24	; 0x04
    1dfa:	a4 cf       	rjmp	.-184    	; 0x1d44 <mount_volume+0x4f8>
    1dfc:	ff ef       	ldi	r31, 0xFF	; 255
    1dfe:	cf 0e       	add	r12, r31
    1e00:	f1 e0       	ldi	r31, 0x01	; 1
    1e02:	df 1e       	adc	r13, r31
    1e04:	e1 1c       	adc	r14, r1
    1e06:	f1 1c       	adc	r15, r1
    1e08:	0b 2e       	mov	r0, r27
    1e0a:	b9 e0       	ldi	r27, 0x09	; 9
    1e0c:	f6 94       	lsr	r15
    1e0e:	e7 94       	ror	r14
    1e10:	d7 94       	ror	r13
    1e12:	c7 94       	ror	r12
    1e14:	ba 95       	dec	r27
    1e16:	d1 f7       	brne	.-12     	; 0x1e0c <mount_volume+0x5c0>
    1e18:	b0 2d       	mov	r27, r0
    1e1a:	29 89       	ldd	r18, Y+17	; 0x11
    1e1c:	3a 89       	ldd	r19, Y+18	; 0x12
    1e1e:	4b 89       	ldd	r20, Y+19	; 0x13
    1e20:	5c 89       	ldd	r21, Y+20	; 0x14
    1e22:	2c 15       	cp	r18, r12
    1e24:	3d 05       	cpc	r19, r13
    1e26:	4e 05       	cpc	r20, r14
    1e28:	5f 05       	cpc	r21, r15
    1e2a:	48 f2       	brcs	.-110    	; 0x1dbe <mount_volume+0x572>
    1e2c:	d8 cf       	rjmp	.-80     	; 0x1dde <mount_volume+0x592>
    1e2e:	8f ef       	ldi	r24, 0xFF	; 255
    1e30:	9f ef       	ldi	r25, 0xFF	; 255
    1e32:	dc 01       	movw	r26, r24
    1e34:	f8 01       	movw	r30, r16
    1e36:	87 87       	std	Z+15, r24	; 0x0f
    1e38:	90 8b       	std	Z+16, r25	; 0x10
    1e3a:	a1 8b       	std	Z+17, r26	; 0x11
    1e3c:	b2 8b       	std	Z+18, r27	; 0x12
    1e3e:	83 87       	std	Z+11, r24	; 0x0b
    1e40:	94 87       	std	Z+12, r25	; 0x0c
    1e42:	a5 87       	std	Z+13, r26	; 0x0d
    1e44:	b6 87       	std	Z+14, r27	; 0x0e
    1e46:	80 e8       	ldi	r24, 0x80	; 128
    1e48:	84 83       	std	Z+4, r24	; 0x04
    1e4a:	e0 5a       	subi	r30, 0xA0	; 160
    1e4c:	ff 4f       	sbci	r31, 0xFF	; 255
    1e4e:	80 81       	ld	r24, Z
    1e50:	90 e0       	ldi	r25, 0x00	; 0
    1e52:	98 2f       	mov	r25, r24
    1e54:	88 27       	eor	r24, r24
    1e56:	31 97       	sbiw	r30, 0x01	; 1
    1e58:	20 81       	ld	r18, Z
    1e5a:	82 2b       	or	r24, r18
    1e5c:	01 97       	sbiw	r24, 0x01	; 1
    1e5e:	09 f0       	breq	.+2      	; 0x1e62 <mount_volume+0x616>
    1e60:	71 cf       	rjmp	.-286    	; 0x1d44 <mount_volume+0x4f8>
    1e62:	2c cf       	rjmp	.-424    	; 0x1cbc <mount_volume+0x470>
    1e64:	69 01       	movw	r12, r18
    1e66:	7a 01       	movw	r14, r20
    1e68:	f2 e0       	ldi	r31, 0x02	; 2
    1e6a:	cf 0e       	add	r12, r31
    1e6c:	d1 1c       	adc	r13, r1
    1e6e:	e1 1c       	adc	r14, r1
    1e70:	f1 1c       	adc	r15, r1
    1e72:	d8 01       	movw	r26, r16
    1e74:	53 96       	adiw	r26, 0x13	; 19
    1e76:	cd 92       	st	X+, r12
    1e78:	dd 92       	st	X+, r13
    1e7a:	ed 92       	st	X+, r14
    1e7c:	fc 92       	st	X, r15
    1e7e:	56 97       	sbiw	r26, 0x16	; 22
    1e80:	f8 01       	movw	r30, r16
    1e82:	83 8e       	std	Z+27, r8	; 0x1b
    1e84:	94 8e       	std	Z+28, r9	; 0x1c
    1e86:	a5 8e       	std	Z+29, r10	; 0x1d
    1e88:	b6 8e       	std	Z+30, r11	; 0x1e
    1e8a:	8f 89       	ldd	r24, Y+23	; 0x17
    1e8c:	98 8d       	ldd	r25, Y+24	; 0x18
    1e8e:	a9 8d       	ldd	r26, Y+25	; 0x19
    1e90:	ba 8d       	ldd	r27, Y+26	; 0x1a
    1e92:	88 0d       	add	r24, r8
    1e94:	99 1d       	adc	r25, r9
    1e96:	aa 1d       	adc	r26, r10
    1e98:	bb 1d       	adc	r27, r11
    1e9a:	87 8f       	std	Z+31, r24	; 0x1f
    1e9c:	90 a3       	std	Z+32, r25	; 0x20
    1e9e:	a1 a3       	std	Z+33, r26	; 0x21
    1ea0:	b2 a3       	std	Z+34, r27	; 0x22
    1ea2:	b5 01       	movw	r22, r10
    1ea4:	a4 01       	movw	r20, r8
    1ea6:	44 0d       	add	r20, r4
    1ea8:	55 1d       	adc	r21, r5
    1eaa:	66 1d       	adc	r22, r6
    1eac:	77 1d       	adc	r23, r7
    1eae:	47 a3       	std	Z+39, r20	; 0x27
    1eb0:	50 a7       	std	Z+40, r21	; 0x28
    1eb2:	61 a7       	std	Z+41, r22	; 0x29
    1eb4:	72 a7       	std	Z+42, r23	; 0x2a
    1eb6:	22 24       	eor	r2, r2
    1eb8:	23 94       	inc	r2
    1eba:	31 2c       	mov	r3, r1
    1ebc:	cc ce       	rjmp	.-616    	; 0x1c56 <mount_volume+0x40a>
    1ebe:	6e 96       	adiw	r28, 0x1e	; 30
    1ec0:	0f b6       	in	r0, 0x3f	; 63
    1ec2:	f8 94       	cli
    1ec4:	de bf       	out	0x3e, r29	; 62
    1ec6:	0f be       	out	0x3f, r0	; 63
    1ec8:	cd bf       	out	0x3d, r28	; 61
    1eca:	df 91       	pop	r29
    1ecc:	cf 91       	pop	r28
    1ece:	1f 91       	pop	r17
    1ed0:	0f 91       	pop	r16
    1ed2:	ff 90       	pop	r15
    1ed4:	ef 90       	pop	r14
    1ed6:	df 90       	pop	r13
    1ed8:	cf 90       	pop	r12
    1eda:	bf 90       	pop	r11
    1edc:	af 90       	pop	r10
    1ede:	9f 90       	pop	r9
    1ee0:	8f 90       	pop	r8
    1ee2:	7f 90       	pop	r7
    1ee4:	6f 90       	pop	r6
    1ee6:	5f 90       	pop	r5
    1ee8:	4f 90       	pop	r4
    1eea:	3f 90       	pop	r3
    1eec:	2f 90       	pop	r2
    1eee:	08 95       	ret

00001ef0 <ld_clust>:
    1ef0:	0f 93       	push	r16
    1ef2:	1f 93       	push	r17
    1ef4:	dc 01       	movw	r26, r24
    1ef6:	fb 01       	movw	r30, r22
    1ef8:	93 8d       	ldd	r25, Z+27	; 0x1b
    1efa:	69 2f       	mov	r22, r25
    1efc:	70 e0       	ldi	r23, 0x00	; 0
    1efe:	76 2f       	mov	r23, r22
    1f00:	66 27       	eor	r22, r22
    1f02:	82 8d       	ldd	r24, Z+26	; 0x1a
    1f04:	68 2b       	or	r22, r24
    1f06:	80 e0       	ldi	r24, 0x00	; 0
    1f08:	90 e0       	ldi	r25, 0x00	; 0
    1f0a:	2c 91       	ld	r18, X
    1f0c:	23 30       	cpi	r18, 0x03	; 3
    1f0e:	79 f4       	brne	.+30     	; 0x1f2e <ld_clust+0x3e>
    1f10:	05 89       	ldd	r16, Z+21	; 0x15
    1f12:	10 e0       	ldi	r17, 0x00	; 0
    1f14:	10 2f       	mov	r17, r16
    1f16:	00 27       	eor	r16, r16
    1f18:	24 89       	ldd	r18, Z+20	; 0x14
    1f1a:	02 2b       	or	r16, r18
    1f1c:	20 e0       	ldi	r18, 0x00	; 0
    1f1e:	30 e0       	ldi	r19, 0x00	; 0
    1f20:	98 01       	movw	r18, r16
    1f22:	11 27       	eor	r17, r17
    1f24:	00 27       	eor	r16, r16
    1f26:	60 2b       	or	r22, r16
    1f28:	71 2b       	or	r23, r17
    1f2a:	82 2b       	or	r24, r18
    1f2c:	93 2b       	or	r25, r19
    1f2e:	1f 91       	pop	r17
    1f30:	0f 91       	pop	r16
    1f32:	08 95       	ret

00001f34 <follow_path>:
    1f34:	2f 92       	push	r2
    1f36:	3f 92       	push	r3
    1f38:	4f 92       	push	r4
    1f3a:	5f 92       	push	r5
    1f3c:	6f 92       	push	r6
    1f3e:	7f 92       	push	r7
    1f40:	8f 92       	push	r8
    1f42:	9f 92       	push	r9
    1f44:	af 92       	push	r10
    1f46:	bf 92       	push	r11
    1f48:	cf 92       	push	r12
    1f4a:	df 92       	push	r13
    1f4c:	ef 92       	push	r14
    1f4e:	ff 92       	push	r15
    1f50:	0f 93       	push	r16
    1f52:	1f 93       	push	r17
    1f54:	cf 93       	push	r28
    1f56:	df 93       	push	r29
    1f58:	00 d0       	rcall	.+0      	; 0x1f5a <follow_path+0x26>
    1f5a:	1f 92       	push	r1
    1f5c:	cd b7       	in	r28, 0x3d	; 61
    1f5e:	de b7       	in	r29, 0x3e	; 62
    1f60:	9c 83       	std	Y+4, r25	; 0x04
    1f62:	8b 83       	std	Y+3, r24	; 0x03
    1f64:	dc 01       	movw	r26, r24
    1f66:	2d 90       	ld	r2, X+
    1f68:	3c 90       	ld	r3, X
    1f6a:	e6 2f       	mov	r30, r22
    1f6c:	f7 2f       	mov	r31, r23
    1f6e:	4f 01       	movw	r8, r30
    1f70:	81 91       	ld	r24, Z+
    1f72:	8f 32       	cpi	r24, 0x2F	; 47
    1f74:	e1 f3       	breq	.-8      	; 0x1f6e <follow_path+0x3a>
    1f76:	8c 35       	cpi	r24, 0x5C	; 92
    1f78:	d1 f3       	breq	.-12     	; 0x1f6e <follow_path+0x3a>
    1f7a:	eb 81       	ldd	r30, Y+3	; 0x03
    1f7c:	fc 81       	ldd	r31, Y+4	; 0x04
    1f7e:	df 01       	movw	r26, r30
    1f80:	16 82       	std	Z+6, r1	; 0x06
    1f82:	17 82       	std	Z+7, r1	; 0x07
    1f84:	10 86       	std	Z+8, r1	; 0x08
    1f86:	11 86       	std	Z+9, r1	; 0x09
    1f88:	f4 01       	movw	r30, r8
    1f8a:	80 81       	ld	r24, Z
    1f8c:	80 32       	cpi	r24, 0x20	; 32
    1f8e:	58 f4       	brcc	.+22     	; 0x1fa6 <follow_path+0x72>
    1f90:	80 e8       	ldi	r24, 0x80	; 128
    1f92:	97 96       	adiw	r26, 0x27	; 39
    1f94:	8c 93       	st	X, r24
    1f96:	97 97       	sbiw	r26, 0x27	; 39
    1f98:	40 e0       	ldi	r20, 0x00	; 0
    1f9a:	50 e0       	ldi	r21, 0x00	; 0
    1f9c:	ba 01       	movw	r22, r20
    1f9e:	cd 01       	movw	r24, r26
    1fa0:	0e 94 38 07 	call	0xe70	; 0xe70 <dir_sdi>
    1fa4:	0f c1       	rjmp	.+542    	; 0x21c4 <__DATA_REGION_LENGTH__+0x1c4>
    1fa6:	4b 80       	ldd	r4, Y+3	; 0x03
    1fa8:	5c 80       	ldd	r5, Y+4	; 0x04
    1faa:	fc e1       	ldi	r31, 0x1C	; 28
    1fac:	4f 0e       	add	r4, r31
    1fae:	51 1c       	adc	r5, r1
    1fb0:	eb 80       	ldd	r14, Y+3	; 0x03
    1fb2:	fc 80       	ldd	r15, Y+4	; 0x04
    1fb4:	27 e2       	ldi	r18, 0x27	; 39
    1fb6:	e2 0e       	add	r14, r18
    1fb8:	f1 1c       	adc	r15, r1
    1fba:	10 e2       	ldi	r17, 0x20	; 32
    1fbc:	a1 2c       	mov	r10, r1
    1fbe:	b1 2c       	mov	r11, r1
    1fc0:	38 e0       	ldi	r19, 0x08	; 8
    1fc2:	39 83       	std	Y+1, r19	; 0x01
    1fc4:	1a 82       	std	Y+2, r1	; 0x02
    1fc6:	31 01       	movw	r6, r2
    1fc8:	4f e2       	ldi	r20, 0x2F	; 47
    1fca:	64 0e       	add	r6, r20
    1fcc:	71 1c       	adc	r7, r1
    1fce:	f2 01       	movw	r30, r4
    1fd0:	11 93       	st	Z+, r17
    1fd2:	ee 15       	cp	r30, r14
    1fd4:	ff 05       	cpc	r31, r15
    1fd6:	e1 f7       	brne	.-8      	; 0x1fd0 <follow_path+0x9c>
    1fd8:	f4 01       	movw	r30, r8
    1fda:	ca 2c       	mov	r12, r10
    1fdc:	db 2c       	mov	r13, r11
    1fde:	20 e0       	ldi	r18, 0x00	; 0
    1fe0:	30 e0       	ldi	r19, 0x00	; 0
    1fe2:	68 e0       	ldi	r22, 0x08	; 8
    1fe4:	70 e0       	ldi	r23, 0x00	; 0
    1fe6:	2f 5f       	subi	r18, 0xFF	; 255
    1fe8:	3f 4f       	sbci	r19, 0xFF	; 255
    1fea:	01 91       	ld	r16, Z+
    1fec:	01 32       	cpi	r16, 0x21	; 33
    1fee:	a8 f1       	brcs	.+106    	; 0x205a <__DATA_REGION_LENGTH__+0x5a>
    1ff0:	0f 32       	cpi	r16, 0x2F	; 47
    1ff2:	11 f0       	breq	.+4      	; 0x1ff8 <follow_path+0xc4>
    1ff4:	0c 35       	cpi	r16, 0x5C	; 92
    1ff6:	61 f4       	brne	.+24     	; 0x2010 <__DATA_REGION_LENGTH__+0x10>
    1ff8:	f4 01       	movw	r30, r8
    1ffa:	e2 0f       	add	r30, r18
    1ffc:	f3 1f       	adc	r31, r19
    1ffe:	02 c0       	rjmp	.+4      	; 0x2004 <__DATA_REGION_LENGTH__+0x4>
    2000:	2f 5f       	subi	r18, 0xFF	; 255
    2002:	3f 4f       	sbci	r19, 0xFF	; 255
    2004:	81 91       	ld	r24, Z+
    2006:	8f 32       	cpi	r24, 0x2F	; 47
    2008:	d9 f3       	breq	.-10     	; 0x2000 <__DATA_REGION_LENGTH__>
    200a:	8c 35       	cpi	r24, 0x5C	; 92
    200c:	c9 f3       	breq	.-14     	; 0x2000 <__DATA_REGION_LENGTH__>
    200e:	25 c0       	rjmp	.+74     	; 0x205a <__DATA_REGION_LENGTH__+0x5a>
    2010:	0e 32       	cpi	r16, 0x2E	; 46
    2012:	09 f4       	brne	.+2      	; 0x2016 <__DATA_REGION_LENGTH__+0x16>
    2014:	cf c0       	rjmp	.+414    	; 0x21b4 <__DATA_REGION_LENGTH__+0x1b4>
    2016:	c6 16       	cp	r12, r22
    2018:	d7 06       	cpc	r13, r23
    201a:	08 f0       	brcs	.+2      	; 0x201e <__DATA_REGION_LENGTH__+0x1e>
    201c:	94 c0       	rjmp	.+296    	; 0x2146 <__DATA_REGION_LENGTH__+0x146>
    201e:	00 23       	and	r16, r16
    2020:	0c f0       	brlt	.+2      	; 0x2024 <__DATA_REGION_LENGTH__+0x24>
    2022:	9d c0       	rjmp	.+314    	; 0x215e <__DATA_REGION_LENGTH__+0x15e>
    2024:	a0 2f       	mov	r26, r16
    2026:	af 77       	andi	r26, 0x7F	; 127
    2028:	b0 e0       	ldi	r27, 0x00	; 0
    202a:	a4 5d       	subi	r26, 0xD4	; 212
    202c:	bd 4f       	sbci	r27, 0xFD	; 253
    202e:	0c 91       	ld	r16, X
    2030:	96 c0       	rjmp	.+300    	; 0x215e <__DATA_REGION_LENGTH__+0x15e>
    2032:	8d 91       	ld	r24, X+
    2034:	88 23       	and	r24, r24
    2036:	09 f4       	brne	.+2      	; 0x203a <__DATA_REGION_LENGTH__+0x3a>
    2038:	9a c0       	rjmp	.+308    	; 0x216e <__DATA_REGION_LENGTH__+0x16e>
    203a:	90 e0       	ldi	r25, 0x00	; 0
    203c:	48 17       	cp	r20, r24
    203e:	59 07       	cpc	r21, r25
    2040:	c1 f7       	brne	.-16     	; 0x2032 <__DATA_REGION_LENGTH__+0x32>
    2042:	86 e0       	ldi	r24, 0x06	; 6
    2044:	bf c0       	rjmp	.+382    	; 0x21c4 <__DATA_REGION_LENGTH__+0x1c4>
    2046:	00 52       	subi	r16, 0x20	; 32
    2048:	d2 01       	movw	r26, r4
    204a:	ac 0d       	add	r26, r12
    204c:	bd 1d       	adc	r27, r13
    204e:	0c 93       	st	X, r16
    2050:	a6 01       	movw	r20, r12
    2052:	4f 5f       	subi	r20, 0xFF	; 255
    2054:	5f 4f       	sbci	r21, 0xFF	; 255
    2056:	6a 01       	movw	r12, r20
    2058:	c6 cf       	rjmp	.-116    	; 0x1fe6 <follow_path+0xb2>
    205a:	82 0e       	add	r8, r18
    205c:	93 1e       	adc	r9, r19
    205e:	cd 28       	or	r12, r13
    2060:	09 f4       	brne	.+2      	; 0x2064 <__DATA_REGION_LENGTH__+0x64>
    2062:	73 c0       	rjmp	.+230    	; 0x214a <__DATA_REGION_LENGTH__+0x14a>
    2064:	ab 81       	ldd	r26, Y+3	; 0x03
    2066:	bc 81       	ldd	r27, Y+4	; 0x04
    2068:	5c 96       	adiw	r26, 0x1c	; 28
    206a:	8c 91       	ld	r24, X
    206c:	5c 97       	sbiw	r26, 0x1c	; 28
    206e:	85 3e       	cpi	r24, 0xE5	; 229
    2070:	19 f4       	brne	.+6      	; 0x2078 <__DATA_REGION_LENGTH__+0x78>
    2072:	e5 e0       	ldi	r30, 0x05	; 5
    2074:	5c 96       	adiw	r26, 0x1c	; 28
    2076:	ec 93       	st	X, r30
    2078:	01 32       	cpi	r16, 0x21	; 33
    207a:	10 f0       	brcs	.+4      	; 0x2080 <__DATA_REGION_LENGTH__+0x80>
    207c:	80 e0       	ldi	r24, 0x00	; 0
    207e:	01 c0       	rjmp	.+2      	; 0x2082 <__DATA_REGION_LENGTH__+0x82>
    2080:	84 e0       	ldi	r24, 0x04	; 4
    2082:	ab 81       	ldd	r26, Y+3	; 0x03
    2084:	bc 81       	ldd	r27, Y+4	; 0x04
    2086:	97 96       	adiw	r26, 0x27	; 39
    2088:	8c 93       	st	X, r24
    208a:	97 97       	sbiw	r26, 0x27	; 39
    208c:	cd 90       	ld	r12, X+
    208e:	dc 90       	ld	r13, X
    2090:	11 97       	sbiw	r26, 0x01	; 1
    2092:	40 e0       	ldi	r20, 0x00	; 0
    2094:	50 e0       	ldi	r21, 0x00	; 0
    2096:	ba 01       	movw	r22, r20
    2098:	cd 01       	movw	r24, r26
    209a:	0e 94 38 07 	call	0xe70	; 0xe70 <dir_sdi>
    209e:	81 11       	cpse	r24, r1
    20a0:	6c c0       	rjmp	.+216    	; 0x217a <__DATA_REGION_LENGTH__+0x17a>
    20a2:	ab 81       	ldd	r26, Y+3	; 0x03
    20a4:	bc 81       	ldd	r27, Y+4	; 0x04
    20a6:	56 96       	adiw	r26, 0x16	; 22
    20a8:	4d 91       	ld	r20, X+
    20aa:	5d 91       	ld	r21, X+
    20ac:	6d 91       	ld	r22, X+
    20ae:	7c 91       	ld	r23, X
    20b0:	59 97       	sbiw	r26, 0x19	; 25
    20b2:	c6 01       	movw	r24, r12
    20b4:	0e 94 2b 04 	call	0x856	; 0x856 <move_window>
    20b8:	81 11       	cpse	r24, r1
    20ba:	60 c0       	rjmp	.+192    	; 0x217c <__DATA_REGION_LENGTH__+0x17c>
    20bc:	eb 81       	ldd	r30, Y+3	; 0x03
    20be:	fc 81       	ldd	r31, Y+4	; 0x04
    20c0:	42 8d       	ldd	r20, Z+26	; 0x1a
    20c2:	53 8d       	ldd	r21, Z+27	; 0x1b
    20c4:	da 01       	movw	r26, r20
    20c6:	9c 91       	ld	r25, X
    20c8:	99 23       	and	r25, r25
    20ca:	11 f1       	breq	.+68     	; 0x2110 <__DATA_REGION_LENGTH__+0x110>
    20cc:	1b 96       	adiw	r26, 0x0b	; 11
    20ce:	6c 91       	ld	r22, X
    20d0:	1b 97       	sbiw	r26, 0x0b	; 11
    20d2:	96 2f       	mov	r25, r22
    20d4:	9f 73       	andi	r25, 0x3F	; 63
    20d6:	94 83       	std	Z+4, r25	; 0x04
    20d8:	1b 96       	adiw	r26, 0x0b	; 11
    20da:	9c 91       	ld	r25, X
    20dc:	93 ff       	sbrs	r25, 3
    20de:	5b c0       	rjmp	.+182    	; 0x2196 <__DATA_REGION_LENGTH__+0x196>
    20e0:	0f c0       	rjmp	.+30     	; 0x2100 <__DATA_REGION_LENGTH__+0x100>
    20e2:	21 91       	ld	r18, Z+
    20e4:	9d 91       	ld	r25, X+
    20e6:	30 e0       	ldi	r19, 0x00	; 0
    20e8:	29 1b       	sub	r18, r25
    20ea:	31 09       	sbc	r19, r1
    20ec:	4e 17       	cp	r20, r30
    20ee:	5f 07       	cpc	r21, r31
    20f0:	19 f0       	breq	.+6      	; 0x20f8 <__DATA_REGION_LENGTH__+0xf8>
    20f2:	23 2b       	or	r18, r19
    20f4:	b1 f3       	breq	.-20     	; 0x20e2 <__DATA_REGION_LENGTH__+0xe2>
    20f6:	04 c0       	rjmp	.+8      	; 0x2100 <__DATA_REGION_LENGTH__+0x100>
    20f8:	87 2f       	mov	r24, r23
    20fa:	23 2b       	or	r18, r19
    20fc:	09 f4       	brne	.+2      	; 0x2100 <__DATA_REGION_LENGTH__+0x100>
    20fe:	45 c0       	rjmp	.+138    	; 0x218a <__DATA_REGION_LENGTH__+0x18a>
    2100:	6a 2d       	mov	r22, r10
    2102:	7b 2d       	mov	r23, r11
    2104:	8b 81       	ldd	r24, Y+3	; 0x03
    2106:	9c 81       	ldd	r25, Y+4	; 0x04
    2108:	8f d9       	rcall	.-3298   	; 0x1428 <dir_next>
    210a:	88 23       	and	r24, r24
    210c:	51 f2       	breq	.-108    	; 0x20a2 <__DATA_REGION_LENGTH__+0xa2>
    210e:	36 c0       	rjmp	.+108    	; 0x217c <__DATA_REGION_LENGTH__+0x17c>
    2110:	eb 81       	ldd	r30, Y+3	; 0x03
    2112:	fc 81       	ldd	r31, Y+4	; 0x04
    2114:	97 a1       	ldd	r25, Z+39	; 0x27
    2116:	92 fd       	sbrc	r25, 2
    2118:	1a c0       	rjmp	.+52     	; 0x214e <__DATA_REGION_LENGTH__+0x14e>
    211a:	85 e0       	ldi	r24, 0x05	; 5
    211c:	53 c0       	rjmp	.+166    	; 0x21c4 <__DATA_REGION_LENGTH__+0x1c4>
    211e:	64 ff       	sbrs	r22, 4
    2120:	18 c0       	rjmp	.+48     	; 0x2152 <__DATA_REGION_LENGTH__+0x152>
    2122:	ab 81       	ldd	r26, Y+3	; 0x03
    2124:	bc 81       	ldd	r27, Y+4	; 0x04
    2126:	1e 96       	adiw	r26, 0x0e	; 14
    2128:	6d 91       	ld	r22, X+
    212a:	7c 91       	ld	r23, X
    212c:	1f 97       	sbiw	r26, 0x0f	; 15
    212e:	71 70       	andi	r23, 0x01	; 1
    2130:	66 0d       	add	r22, r6
    2132:	77 1d       	adc	r23, r7
    2134:	c1 01       	movw	r24, r2
    2136:	dc de       	rcall	.-584    	; 0x1ef0 <ld_clust>
    2138:	eb 81       	ldd	r30, Y+3	; 0x03
    213a:	fc 81       	ldd	r31, Y+4	; 0x04
    213c:	66 83       	std	Z+6, r22	; 0x06
    213e:	77 83       	std	Z+7, r23	; 0x07
    2140:	80 87       	std	Z+8, r24	; 0x08
    2142:	91 87       	std	Z+9, r25	; 0x09
    2144:	44 cf       	rjmp	.-376    	; 0x1fce <follow_path+0x9a>
    2146:	86 e0       	ldi	r24, 0x06	; 6
    2148:	3d c0       	rjmp	.+122    	; 0x21c4 <__DATA_REGION_LENGTH__+0x1c4>
    214a:	86 e0       	ldi	r24, 0x06	; 6
    214c:	3b c0       	rjmp	.+118    	; 0x21c4 <__DATA_REGION_LENGTH__+0x1c4>
    214e:	84 e0       	ldi	r24, 0x04	; 4
    2150:	39 c0       	rjmp	.+114    	; 0x21c4 <__DATA_REGION_LENGTH__+0x1c4>
    2152:	85 e0       	ldi	r24, 0x05	; 5
    2154:	37 c0       	rjmp	.+110    	; 0x21c4 <__DATA_REGION_LENGTH__+0x1c4>
    2156:	86 e0       	ldi	r24, 0x06	; 6
    2158:	35 c0       	rjmp	.+106    	; 0x21c4 <__DATA_REGION_LENGTH__+0x1c4>
    215a:	86 e0       	ldi	r24, 0x06	; 6
    215c:	33 c0       	rjmp	.+102    	; 0x21c4 <__DATA_REGION_LENGTH__+0x1c4>
    215e:	40 2f       	mov	r20, r16
    2160:	50 e0       	ldi	r21, 0x00	; 0
    2162:	42 32       	cpi	r20, 0x22	; 34
    2164:	51 05       	cpc	r21, r1
    2166:	b9 f3       	breq	.-18     	; 0x2156 <__DATA_REGION_LENGTH__+0x156>
    2168:	ae e1       	ldi	r26, 0x1E	; 30
    216a:	b2 e0       	ldi	r27, 0x02	; 2
    216c:	62 cf       	rjmp	.-316    	; 0x2032 <__DATA_REGION_LENGTH__+0x32>
    216e:	8f e9       	ldi	r24, 0x9F	; 159
    2170:	80 0f       	add	r24, r16
    2172:	8a 31       	cpi	r24, 0x1A	; 26
    2174:	08 f4       	brcc	.+2      	; 0x2178 <__DATA_REGION_LENGTH__+0x178>
    2176:	67 cf       	rjmp	.-306    	; 0x2046 <__DATA_REGION_LENGTH__+0x46>
    2178:	67 cf       	rjmp	.-306    	; 0x2048 <__DATA_REGION_LENGTH__+0x48>
    217a:	00 c0       	rjmp	.+0      	; 0x217c <__DATA_REGION_LENGTH__+0x17c>
    217c:	ab 81       	ldd	r26, Y+3	; 0x03
    217e:	bc 81       	ldd	r27, Y+4	; 0x04
    2180:	97 96       	adiw	r26, 0x27	; 39
    2182:	9c 91       	ld	r25, X
    2184:	84 30       	cpi	r24, 0x04	; 4
    2186:	f1 f4       	brne	.+60     	; 0x21c4 <__DATA_REGION_LENGTH__+0x1c4>
    2188:	c6 cf       	rjmp	.-116    	; 0x2116 <__DATA_REGION_LENGTH__+0x116>
    218a:	eb 81       	ldd	r30, Y+3	; 0x03
    218c:	fc 81       	ldd	r31, Y+4	; 0x04
    218e:	97 a1       	ldd	r25, Z+39	; 0x27
    2190:	92 ff       	sbrs	r25, 2
    2192:	c5 cf       	rjmp	.-118    	; 0x211e <__DATA_REGION_LENGTH__+0x11e>
    2194:	17 c0       	rjmp	.+46     	; 0x21c4 <__DATA_REGION_LENGTH__+0x1c4>
    2196:	fa 01       	movw	r30, r20
    2198:	21 91       	ld	r18, Z+
    219a:	30 e0       	ldi	r19, 0x00	; 0
    219c:	ab 81       	ldd	r26, Y+3	; 0x03
    219e:	bc 81       	ldd	r27, Y+4	; 0x04
    21a0:	5c 96       	adiw	r26, 0x1c	; 28
    21a2:	9c 91       	ld	r25, X
    21a4:	5c 97       	sbiw	r26, 0x1c	; 28
    21a6:	29 1b       	sub	r18, r25
    21a8:	31 09       	sbc	r19, r1
    21aa:	5d 96       	adiw	r26, 0x1d	; 29
    21ac:	45 5f       	subi	r20, 0xF5	; 245
    21ae:	5f 4f       	sbci	r21, 0xFF	; 255
    21b0:	78 2f       	mov	r23, r24
    21b2:	9f cf       	rjmp	.-194    	; 0x20f2 <__DATA_REGION_LENGTH__+0xf2>
    21b4:	6b 30       	cpi	r22, 0x0B	; 11
    21b6:	71 05       	cpc	r23, r1
    21b8:	81 f2       	breq	.-96     	; 0x215a <__DATA_REGION_LENGTH__+0x15a>
    21ba:	c9 80       	ldd	r12, Y+1	; 0x01
    21bc:	da 80       	ldd	r13, Y+2	; 0x02
    21be:	6b e0       	ldi	r22, 0x0B	; 11
    21c0:	70 e0       	ldi	r23, 0x00	; 0
    21c2:	11 cf       	rjmp	.-478    	; 0x1fe6 <follow_path+0xb2>
    21c4:	0f 90       	pop	r0
    21c6:	0f 90       	pop	r0
    21c8:	0f 90       	pop	r0
    21ca:	0f 90       	pop	r0
    21cc:	df 91       	pop	r29
    21ce:	cf 91       	pop	r28
    21d0:	1f 91       	pop	r17
    21d2:	0f 91       	pop	r16
    21d4:	ff 90       	pop	r15
    21d6:	ef 90       	pop	r14
    21d8:	df 90       	pop	r13
    21da:	cf 90       	pop	r12
    21dc:	bf 90       	pop	r11
    21de:	af 90       	pop	r10
    21e0:	9f 90       	pop	r9
    21e2:	8f 90       	pop	r8
    21e4:	7f 90       	pop	r7
    21e6:	6f 90       	pop	r6
    21e8:	5f 90       	pop	r5
    21ea:	4f 90       	pop	r4
    21ec:	3f 90       	pop	r3
    21ee:	2f 90       	pop	r2
    21f0:	08 95       	ret

000021f2 <f_mount>:
    21f2:	1f 93       	push	r17
    21f4:	cf 93       	push	r28
    21f6:	df 93       	push	r29
    21f8:	00 d0       	rcall	.+0      	; 0x21fa <f_mount+0x8>
    21fa:	00 d0       	rcall	.+0      	; 0x21fc <f_mount+0xa>
    21fc:	cd b7       	in	r28, 0x3d	; 61
    21fe:	de b7       	in	r29, 0x3e	; 62
    2200:	9c 83       	std	Y+4, r25	; 0x04
    2202:	8b 83       	std	Y+3, r24	; 0x03
    2204:	7e 83       	std	Y+6, r23	; 0x06
    2206:	6d 83       	std	Y+5, r22	; 0x05
    2208:	14 2f       	mov	r17, r20
    220a:	7a 83       	std	Y+2, r23	; 0x02
    220c:	69 83       	std	Y+1, r22	; 0x01
    220e:	ce 01       	movw	r24, r28
    2210:	01 96       	adiw	r24, 0x01	; 1
    2212:	0e 94 71 03 	call	0x6e2	; 0x6e2 <get_ldnumber>
    2216:	99 23       	and	r25, r25
    2218:	1c f1       	brlt	.+70     	; 0x2260 <__stack+0x61>
    221a:	fc 01       	movw	r30, r24
    221c:	ee 0f       	add	r30, r30
    221e:	ff 1f       	adc	r31, r31
    2220:	ee 5c       	subi	r30, 0xCE	; 206
    2222:	fe 4e       	sbci	r31, 0xEE	; 238
    2224:	01 90       	ld	r0, Z+
    2226:	f0 81       	ld	r31, Z
    2228:	e0 2d       	mov	r30, r0
    222a:	30 97       	sbiw	r30, 0x00	; 0
    222c:	09 f0       	breq	.+2      	; 0x2230 <__stack+0x31>
    222e:	10 82       	st	Z, r1
    2230:	eb 81       	ldd	r30, Y+3	; 0x03
    2232:	fc 81       	ldd	r31, Y+4	; 0x04
    2234:	30 97       	sbiw	r30, 0x00	; 0
    2236:	09 f0       	breq	.+2      	; 0x223a <__stack+0x3b>
    2238:	10 82       	st	Z, r1
    223a:	88 0f       	add	r24, r24
    223c:	99 1f       	adc	r25, r25
    223e:	fc 01       	movw	r30, r24
    2240:	ee 5c       	subi	r30, 0xCE	; 206
    2242:	fe 4e       	sbci	r31, 0xEE	; 238
    2244:	8b 81       	ldd	r24, Y+3	; 0x03
    2246:	9c 81       	ldd	r25, Y+4	; 0x04
    2248:	91 83       	std	Z+1, r25	; 0x01
    224a:	80 83       	st	Z, r24
    224c:	11 23       	and	r17, r17
    224e:	51 f0       	breq	.+20     	; 0x2264 <__stack+0x65>
    2250:	40 e0       	ldi	r20, 0x00	; 0
    2252:	be 01       	movw	r22, r28
    2254:	6d 5f       	subi	r22, 0xFD	; 253
    2256:	7f 4f       	sbci	r23, 0xFF	; 255
    2258:	ce 01       	movw	r24, r28
    225a:	05 96       	adiw	r24, 0x05	; 5
    225c:	f7 da       	rcall	.-2578   	; 0x184c <mount_volume>
    225e:	03 c0       	rjmp	.+6      	; 0x2266 <__stack+0x67>
    2260:	8b e0       	ldi	r24, 0x0B	; 11
    2262:	01 c0       	rjmp	.+2      	; 0x2266 <__stack+0x67>
    2264:	80 e0       	ldi	r24, 0x00	; 0
    2266:	26 96       	adiw	r28, 0x06	; 6
    2268:	0f b6       	in	r0, 0x3f	; 63
    226a:	f8 94       	cli
    226c:	de bf       	out	0x3e, r29	; 62
    226e:	0f be       	out	0x3f, r0	; 63
    2270:	cd bf       	out	0x3d, r28	; 61
    2272:	df 91       	pop	r29
    2274:	cf 91       	pop	r28
    2276:	1f 91       	pop	r17
    2278:	08 95       	ret

0000227a <f_open>:
    227a:	2f 92       	push	r2
    227c:	3f 92       	push	r3
    227e:	4f 92       	push	r4
    2280:	5f 92       	push	r5
    2282:	6f 92       	push	r6
    2284:	7f 92       	push	r7
    2286:	8f 92       	push	r8
    2288:	9f 92       	push	r9
    228a:	af 92       	push	r10
    228c:	bf 92       	push	r11
    228e:	cf 92       	push	r12
    2290:	df 92       	push	r13
    2292:	ef 92       	push	r14
    2294:	ff 92       	push	r15
    2296:	0f 93       	push	r16
    2298:	1f 93       	push	r17
    229a:	cf 93       	push	r28
    229c:	df 93       	push	r29
    229e:	cd b7       	in	r28, 0x3d	; 61
    22a0:	de b7       	in	r29, 0x3e	; 62
    22a2:	ac 97       	sbiw	r28, 0x2c	; 44
    22a4:	0f b6       	in	r0, 0x3f	; 63
    22a6:	f8 94       	cli
    22a8:	de bf       	out	0x3e, r29	; 62
    22aa:	0f be       	out	0x3f, r0	; 63
    22ac:	cd bf       	out	0x3d, r28	; 61
    22ae:	7c a7       	std	Y+44, r23	; 0x2c
    22b0:	6b a7       	std	Y+43, r22	; 0x2b
    22b2:	00 97       	sbiw	r24, 0x00	; 0
    22b4:	09 f4       	brne	.+2      	; 0x22b8 <f_open+0x3e>
    22b6:	38 c1       	rjmp	.+624    	; 0x2528 <f_open+0x2ae>
    22b8:	14 2f       	mov	r17, r20
    22ba:	7c 01       	movw	r14, r24
    22bc:	84 2f       	mov	r24, r20
    22be:	8f 73       	andi	r24, 0x3F	; 63
    22c0:	d8 2e       	mov	r13, r24
    22c2:	48 2f       	mov	r20, r24
    22c4:	be 01       	movw	r22, r28
    22c6:	67 5d       	subi	r22, 0xD7	; 215
    22c8:	7f 4f       	sbci	r23, 0xFF	; 255
    22ca:	ce 01       	movw	r24, r28
    22cc:	8b 96       	adiw	r24, 0x2b	; 43
    22ce:	be da       	rcall	.-2692   	; 0x184c <mount_volume>
    22d0:	81 11       	cpse	r24, r1
    22d2:	26 c1       	rjmp	.+588    	; 0x2520 <f_open+0x2a6>
    22d4:	89 a5       	ldd	r24, Y+41	; 0x29
    22d6:	9a a5       	ldd	r25, Y+42	; 0x2a
    22d8:	9a 83       	std	Y+2, r25	; 0x02
    22da:	89 83       	std	Y+1, r24	; 0x01
    22dc:	6b a5       	ldd	r22, Y+43	; 0x2b
    22de:	7c a5       	ldd	r23, Y+44	; 0x2c
    22e0:	ce 01       	movw	r24, r28
    22e2:	01 96       	adiw	r24, 0x01	; 1
    22e4:	27 de       	rcall	.-946    	; 0x1f34 <follow_path>
    22e6:	81 11       	cpse	r24, r1
    22e8:	21 c1       	rjmp	.+578    	; 0x252c <f_open+0x2b2>
    22ea:	88 a5       	ldd	r24, Y+40	; 0x28
    22ec:	88 23       	and	r24, r24
    22ee:	0c f0       	brlt	.+2      	; 0x22f2 <f_open+0x78>
    22f0:	26 c1       	rjmp	.+588    	; 0x253e <f_open+0x2c4>
    22f2:	20 c1       	rjmp	.+576    	; 0x2534 <f_open+0x2ba>
    22f4:	84 30       	cpi	r24, 0x04	; 4
    22f6:	09 f0       	breq	.+2      	; 0x22fa <f_open+0x80>
    22f8:	4a c1       	rjmp	.+660    	; 0x258e <f_open+0x314>
    22fa:	ce 01       	movw	r24, r28
    22fc:	01 96       	adiw	r24, 0x01	; 1
    22fe:	8f d9       	rcall	.-3298   	; 0x161e <dir_register>
    2300:	9d 2d       	mov	r25, r13
    2302:	98 60       	ori	r25, 0x08	; 8
    2304:	d9 2e       	mov	r13, r25
    2306:	88 23       	and	r24, r24
    2308:	39 f0       	breq	.+14     	; 0x2318 <f_open+0x9e>
    230a:	0a c1       	rjmp	.+532    	; 0x2520 <f_open+0x2a6>
    230c:	8d 81       	ldd	r24, Y+5	; 0x05
    230e:	81 71       	andi	r24, 0x11	; 17
    2310:	09 f0       	breq	.+2      	; 0x2314 <f_open+0x9a>
    2312:	66 c1       	rjmp	.+716    	; 0x25e0 <f_open+0x366>
    2314:	12 fd       	sbrc	r17, 2
    2316:	66 c1       	rjmp	.+716    	; 0x25e4 <f_open+0x36a>
    2318:	d3 fe       	sbrs	r13, 3
    231a:	5d c0       	rjmp	.+186    	; 0x23d6 <f_open+0x15c>
    231c:	eb 8d       	ldd	r30, Y+27	; 0x1b
    231e:	fc 8d       	ldd	r31, Y+28	; 0x1c
    2320:	16 86       	std	Z+14, r1	; 0x0e
    2322:	17 86       	std	Z+15, r1	; 0x0f
    2324:	9d eb       	ldi	r25, 0xBD	; 189
    2326:	90 8b       	std	Z+16, r25	; 0x10
    2328:	84 e5       	ldi	r24, 0x54	; 84
    232a:	81 8b       	std	Z+17, r24	; 0x11
    232c:	eb 8d       	ldd	r30, Y+27	; 0x1b
    232e:	fc 8d       	ldd	r31, Y+28	; 0x1c
    2330:	16 8a       	std	Z+22, r1	; 0x16
    2332:	17 8a       	std	Z+23, r1	; 0x17
    2334:	90 8f       	std	Z+24, r25	; 0x18
    2336:	81 8f       	std	Z+25, r24	; 0x19
    2338:	ab 8c       	ldd	r10, Y+27	; 0x1b
    233a:	bc 8c       	ldd	r11, Y+28	; 0x1c
    233c:	09 a5       	ldd	r16, Y+41	; 0x29
    233e:	1a a5       	ldd	r17, Y+42	; 0x2a
    2340:	b5 01       	movw	r22, r10
    2342:	c8 01       	movw	r24, r16
    2344:	d5 dd       	rcall	.-1110   	; 0x1ef0 <ld_clust>
    2346:	2b 01       	movw	r4, r22
    2348:	3c 01       	movw	r6, r24
    234a:	80 e2       	ldi	r24, 0x20	; 32
    234c:	f5 01       	movw	r30, r10
    234e:	83 87       	std	Z+11, r24	; 0x0b
    2350:	6b 8d       	ldd	r22, Y+27	; 0x1b
    2352:	7c 8d       	ldd	r23, Y+28	; 0x1c
    2354:	20 e0       	ldi	r18, 0x00	; 0
    2356:	30 e0       	ldi	r19, 0x00	; 0
    2358:	a9 01       	movw	r20, r18
    235a:	c8 01       	movw	r24, r16
    235c:	0e 94 51 06 	call	0xca2	; 0xca2 <st_clust>
    2360:	eb 8d       	ldd	r30, Y+27	; 0x1b
    2362:	fc 8d       	ldd	r31, Y+28	; 0x1c
    2364:	14 8e       	std	Z+28, r1	; 0x1c
    2366:	15 8e       	std	Z+29, r1	; 0x1d
    2368:	16 8e       	std	Z+30, r1	; 0x1e
    236a:	17 8e       	std	Z+31, r1	; 0x1f
    236c:	e9 a5       	ldd	r30, Y+41	; 0x29
    236e:	fa a5       	ldd	r31, Y+42	; 0x2a
    2370:	81 e0       	ldi	r24, 0x01	; 1
    2372:	83 83       	std	Z+3, r24	; 0x03
    2374:	41 14       	cp	r4, r1
    2376:	51 04       	cpc	r5, r1
    2378:	61 04       	cpc	r6, r1
    237a:	71 04       	cpc	r7, r1
    237c:	49 f1       	breq	.+82     	; 0x23d0 <f_open+0x156>
    237e:	83 a4       	ldd	r8, Z+43	; 0x2b
    2380:	94 a4       	ldd	r9, Z+44	; 0x2c
    2382:	a5 a4       	ldd	r10, Z+45	; 0x2d
    2384:	b6 a4       	ldd	r11, Z+46	; 0x2e
    2386:	00 e0       	ldi	r16, 0x00	; 0
    2388:	10 e0       	ldi	r17, 0x00	; 0
    238a:	98 01       	movw	r18, r16
    238c:	b3 01       	movw	r22, r6
    238e:	a2 01       	movw	r20, r4
    2390:	ce 01       	movw	r24, r28
    2392:	01 96       	adiw	r24, 0x01	; 1
    2394:	0e 94 82 09 	call	0x1304	; 0x1304 <remove_chain>
    2398:	81 11       	cpse	r24, r1
    239a:	c2 c0       	rjmp	.+388    	; 0x2520 <f_open+0x2a6>
    239c:	b5 01       	movw	r22, r10
    239e:	a4 01       	movw	r20, r8
    23a0:	89 a5       	ldd	r24, Y+41	; 0x29
    23a2:	9a a5       	ldd	r25, Y+42	; 0x2a
    23a4:	0e 94 2b 04 	call	0x856	; 0x856 <move_window>
    23a8:	e9 a5       	ldd	r30, Y+41	; 0x29
    23aa:	fa a5       	ldd	r31, Y+42	; 0x2a
    23ac:	91 e0       	ldi	r25, 0x01	; 1
    23ae:	49 1a       	sub	r4, r25
    23b0:	51 08       	sbc	r5, r1
    23b2:	61 08       	sbc	r6, r1
    23b4:	71 08       	sbc	r7, r1
    23b6:	43 86       	std	Z+11, r4	; 0x0b
    23b8:	54 86       	std	Z+12, r5	; 0x0c
    23ba:	65 86       	std	Z+13, r6	; 0x0d
    23bc:	76 86       	std	Z+14, r7	; 0x0e
    23be:	88 23       	and	r24, r24
    23c0:	39 f0       	breq	.+14     	; 0x23d0 <f_open+0x156>
    23c2:	ae c0       	rjmp	.+348    	; 0x2520 <f_open+0x2a6>
    23c4:	11 ff       	sbrs	r17, 1
    23c6:	02 c0       	rjmp	.+4      	; 0x23cc <f_open+0x152>
    23c8:	80 fd       	sbrc	r24, 0
    23ca:	0e c1       	rjmp	.+540    	; 0x25e8 <f_open+0x36e>
    23cc:	13 ff       	sbrs	r17, 3
    23ce:	03 c0       	rjmp	.+6      	; 0x23d6 <f_open+0x15c>
    23d0:	ed 2d       	mov	r30, r13
    23d2:	e0 64       	ori	r30, 0x40	; 64
    23d4:	de 2e       	mov	r13, r30
    23d6:	e9 a5       	ldd	r30, Y+41	; 0x29
    23d8:	fa a5       	ldd	r31, Y+42	; 0x2a
    23da:	83 a5       	ldd	r24, Z+43	; 0x2b
    23dc:	94 a5       	ldd	r25, Z+44	; 0x2c
    23de:	a5 a5       	ldd	r26, Z+45	; 0x2d
    23e0:	b6 a5       	ldd	r27, Z+46	; 0x2e
    23e2:	f7 01       	movw	r30, r14
    23e4:	84 8f       	std	Z+28, r24	; 0x1c
    23e6:	95 8f       	std	Z+29, r25	; 0x1d
    23e8:	a6 8f       	std	Z+30, r26	; 0x1e
    23ea:	b7 8f       	std	Z+31, r27	; 0x1f
    23ec:	8b 8d       	ldd	r24, Y+27	; 0x1b
    23ee:	9c 8d       	ldd	r25, Y+28	; 0x1c
    23f0:	91 a3       	std	Z+33, r25	; 0x21
    23f2:	80 a3       	std	Z+32, r24	; 0x20
    23f4:	ab 8c       	ldd	r10, Y+27	; 0x1b
    23f6:	bc 8c       	ldd	r11, Y+28	; 0x1c
    23f8:	09 a5       	ldd	r16, Y+41	; 0x29
    23fa:	1a a5       	ldd	r17, Y+42	; 0x2a
    23fc:	b5 01       	movw	r22, r10
    23fe:	c8 01       	movw	r24, r16
    2400:	77 dd       	rcall	.-1298   	; 0x1ef0 <ld_clust>
    2402:	f7 01       	movw	r30, r14
    2404:	66 83       	std	Z+6, r22	; 0x06
    2406:	77 83       	std	Z+7, r23	; 0x07
    2408:	80 87       	std	Z+8, r24	; 0x08
    240a:	91 87       	std	Z+9, r25	; 0x09
    240c:	c5 01       	movw	r24, r10
    240e:	4c 96       	adiw	r24, 0x1c	; 28
    2410:	0e 94 20 03 	call	0x640	; 0x640 <ld_dword>
    2414:	f7 01       	movw	r30, r14
    2416:	62 87       	std	Z+10, r22	; 0x0a
    2418:	73 87       	std	Z+11, r23	; 0x0b
    241a:	84 87       	std	Z+12, r24	; 0x0c
    241c:	95 87       	std	Z+13, r25	; 0x0d
    241e:	11 83       	std	Z+1, r17	; 0x01
    2420:	00 83       	st	Z, r16
    2422:	f8 01       	movw	r30, r16
    2424:	85 81       	ldd	r24, Z+5	; 0x05
    2426:	96 81       	ldd	r25, Z+6	; 0x06
    2428:	f7 01       	movw	r30, r14
    242a:	93 83       	std	Z+3, r25	; 0x03
    242c:	82 83       	std	Z+2, r24	; 0x02
    242e:	d6 86       	std	Z+14, r13	; 0x0e
    2430:	17 86       	std	Z+15, r1	; 0x0f
    2432:	10 8e       	std	Z+24, r1	; 0x18
    2434:	11 8e       	std	Z+25, r1	; 0x19
    2436:	12 8e       	std	Z+26, r1	; 0x1a
    2438:	13 8e       	std	Z+27, r1	; 0x1b
    243a:	10 8a       	std	Z+16, r1	; 0x10
    243c:	11 8a       	std	Z+17, r1	; 0x11
    243e:	12 8a       	std	Z+18, r1	; 0x12
    2440:	13 8a       	std	Z+19, r1	; 0x13
    2442:	17 01       	movw	r2, r14
    2444:	f2 e2       	ldi	r31, 0x22	; 34
    2446:	2f 0e       	add	r2, r31
    2448:	31 1c       	adc	r3, r1
    244a:	f1 01       	movw	r30, r2
    244c:	c7 01       	movw	r24, r14
    244e:	8e 5d       	subi	r24, 0xDE	; 222
    2450:	9d 4f       	sbci	r25, 0xFD	; 253
    2452:	11 92       	st	Z+, r1
    2454:	e8 17       	cp	r30, r24
    2456:	f9 07       	cpc	r31, r25
    2458:	e1 f7       	brne	.-8      	; 0x2452 <f_open+0x1d8>
    245a:	d5 fe       	sbrs	r13, 5
    245c:	91 c0       	rjmp	.+290    	; 0x2580 <f_open+0x306>
    245e:	f7 01       	movw	r30, r14
    2460:	42 84       	ldd	r4, Z+10	; 0x0a
    2462:	53 84       	ldd	r5, Z+11	; 0x0b
    2464:	64 84       	ldd	r6, Z+12	; 0x0c
    2466:	75 84       	ldd	r7, Z+13	; 0x0d
    2468:	41 14       	cp	r4, r1
    246a:	51 04       	cpc	r5, r1
    246c:	61 04       	cpc	r6, r1
    246e:	71 04       	cpc	r7, r1
    2470:	09 f4       	brne	.+2      	; 0x2474 <f_open+0x1fa>
    2472:	86 c0       	rjmp	.+268    	; 0x2580 <f_open+0x306>
    2474:	40 8a       	std	Z+16, r4	; 0x10
    2476:	51 8a       	std	Z+17, r5	; 0x11
    2478:	62 8a       	std	Z+18, r6	; 0x12
    247a:	73 8a       	std	Z+19, r7	; 0x13
    247c:	f8 01       	movw	r30, r16
    247e:	81 85       	ldd	r24, Z+9	; 0x09
    2480:	92 85       	ldd	r25, Z+10	; 0x0a
    2482:	a0 e0       	ldi	r26, 0x00	; 0
    2484:	b0 e0       	ldi	r27, 0x00	; 0
    2486:	4c 01       	movw	r8, r24
    2488:	5d 01       	movw	r10, r26
    248a:	07 2e       	mov	r0, r23
    248c:	79 e0       	ldi	r23, 0x09	; 9
    248e:	88 0c       	add	r8, r8
    2490:	99 1c       	adc	r9, r9
    2492:	aa 1c       	adc	r10, r10
    2494:	bb 1c       	adc	r11, r11
    2496:	7a 95       	dec	r23
    2498:	d1 f7       	brne	.-12     	; 0x248e <f_open+0x214>
    249a:	70 2d       	mov	r23, r0
    249c:	f7 01       	movw	r30, r14
    249e:	46 81       	ldd	r20, Z+6	; 0x06
    24a0:	57 81       	ldd	r21, Z+7	; 0x07
    24a2:	60 85       	ldd	r22, Z+8	; 0x08
    24a4:	71 85       	ldd	r23, Z+9	; 0x09
    24a6:	84 14       	cp	r8, r4
    24a8:	95 04       	cpc	r9, r5
    24aa:	a6 04       	cpc	r10, r6
    24ac:	b7 04       	cpc	r11, r7
    24ae:	08 f0       	brcs	.+2      	; 0x24b2 <f_open+0x238>
    24b0:	58 c0       	rjmp	.+176    	; 0x2562 <f_open+0x2e8>
    24b2:	c7 01       	movw	r24, r14
    24b4:	0e 94 5e 06 	call	0xcbc	; 0xcbc <get_fat>
    24b8:	ab 01       	movw	r20, r22
    24ba:	bc 01       	movw	r22, r24
    24bc:	42 30       	cpi	r20, 0x02	; 2
    24be:	51 05       	cpc	r21, r1
    24c0:	61 05       	cpc	r22, r1
    24c2:	71 05       	cpc	r23, r1
    24c4:	08 f0       	brcs	.+2      	; 0x24c8 <f_open+0x24e>
    24c6:	76 c0       	rjmp	.+236    	; 0x25b4 <f_open+0x33a>
    24c8:	83 c0       	rjmp	.+262    	; 0x25d0 <f_open+0x356>
    24ca:	c9 a4       	ldd	r12, Y+41	; 0x29
    24cc:	da a4       	ldd	r13, Y+42	; 0x2a
    24ce:	c6 01       	movw	r24, r12
    24d0:	0e 94 49 03 	call	0x692	; 0x692 <clst2sect>
    24d4:	61 15       	cp	r22, r1
    24d6:	71 05       	cpc	r23, r1
    24d8:	81 05       	cpc	r24, r1
    24da:	91 05       	cpc	r25, r1
    24dc:	09 f4       	brne	.+2      	; 0x24e0 <f_open+0x266>
    24de:	52 c0       	rjmp	.+164    	; 0x2584 <f_open+0x30a>
    24e0:	93 01       	movw	r18, r6
    24e2:	82 01       	movw	r16, r4
    24e4:	0f 2e       	mov	r0, r31
    24e6:	f9 e0       	ldi	r31, 0x09	; 9
    24e8:	36 95       	lsr	r19
    24ea:	27 95       	ror	r18
    24ec:	17 95       	ror	r17
    24ee:	07 95       	ror	r16
    24f0:	fa 95       	dec	r31
    24f2:	d1 f7       	brne	.-12     	; 0x24e8 <f_open+0x26e>
    24f4:	f0 2d       	mov	r31, r0
    24f6:	a9 01       	movw	r20, r18
    24f8:	98 01       	movw	r18, r16
    24fa:	26 0f       	add	r18, r22
    24fc:	37 1f       	adc	r19, r23
    24fe:	48 1f       	adc	r20, r24
    2500:	59 1f       	adc	r21, r25
    2502:	f7 01       	movw	r30, r14
    2504:	20 8f       	std	Z+24, r18	; 0x18
    2506:	31 8f       	std	Z+25, r19	; 0x19
    2508:	42 8f       	std	Z+26, r20	; 0x1a
    250a:	53 8f       	std	Z+27, r21	; 0x1b
    250c:	01 e0       	ldi	r16, 0x01	; 1
    250e:	10 e0       	ldi	r17, 0x00	; 0
    2510:	b1 01       	movw	r22, r2
    2512:	f6 01       	movw	r30, r12
    2514:	81 81       	ldd	r24, Z+1	; 0x01
    2516:	0e 94 a0 02 	call	0x540	; 0x540 <disk_read>
    251a:	81 11       	cpse	r24, r1
    251c:	35 c0       	rjmp	.+106    	; 0x2588 <f_open+0x30e>
    251e:	30 c0       	rjmp	.+96     	; 0x2580 <f_open+0x306>
    2520:	f7 01       	movw	r30, r14
    2522:	11 82       	std	Z+1, r1	; 0x01
    2524:	10 82       	st	Z, r1
    2526:	64 c0       	rjmp	.+200    	; 0x25f0 <f_open+0x376>
    2528:	89 e0       	ldi	r24, 0x09	; 9
    252a:	62 c0       	rjmp	.+196    	; 0x25f0 <f_open+0x376>
    252c:	41 2f       	mov	r20, r17
    252e:	4c 71       	andi	r20, 0x1C	; 28
    2530:	59 f0       	breq	.+22     	; 0x2548 <f_open+0x2ce>
    2532:	e0 ce       	rjmp	.-576    	; 0x22f4 <f_open+0x7a>
    2534:	41 2f       	mov	r20, r17
    2536:	4c 71       	andi	r20, 0x1C	; 28
    2538:	49 f5       	brne	.+82     	; 0x258c <f_open+0x312>
    253a:	86 e0       	ldi	r24, 0x06	; 6
    253c:	05 c0       	rjmp	.+10     	; 0x2548 <f_open+0x2ce>
    253e:	81 2f       	mov	r24, r17
    2540:	8c 71       	andi	r24, 0x1C	; 28
    2542:	09 f0       	breq	.+2      	; 0x2546 <f_open+0x2cc>
    2544:	e3 ce       	rjmp	.-570    	; 0x230c <f_open+0x92>
    2546:	27 c0       	rjmp	.+78     	; 0x2596 <f_open+0x31c>
    2548:	81 11       	cpse	r24, r1
    254a:	ea cf       	rjmp	.-44     	; 0x2520 <f_open+0x2a6>
    254c:	53 cf       	rjmp	.-346    	; 0x23f4 <f_open+0x17a>
    254e:	8f ef       	ldi	r24, 0xFF	; 255
    2550:	9f ef       	ldi	r25, 0xFF	; 255
    2552:	dc 01       	movw	r26, r24
    2554:	f7 01       	movw	r30, r14
    2556:	84 8b       	std	Z+20, r24	; 0x14
    2558:	95 8b       	std	Z+21, r25	; 0x15
    255a:	a6 8b       	std	Z+22, r26	; 0x16
    255c:	b7 8b       	std	Z+23, r27	; 0x17
    255e:	81 e0       	ldi	r24, 0x01	; 1
    2560:	df cf       	rjmp	.-66     	; 0x2520 <f_open+0x2a6>
    2562:	f7 01       	movw	r30, r14
    2564:	44 8b       	std	Z+20, r20	; 0x14
    2566:	55 8b       	std	Z+21, r21	; 0x15
    2568:	66 8b       	std	Z+22, r22	; 0x16
    256a:	77 8b       	std	Z+23, r23	; 0x17
    256c:	d3 01       	movw	r26, r6
    256e:	c2 01       	movw	r24, r4
    2570:	91 70       	andi	r25, 0x01	; 1
    2572:	aa 27       	eor	r26, r26
    2574:	bb 27       	eor	r27, r27
    2576:	89 2b       	or	r24, r25
    2578:	8a 2b       	or	r24, r26
    257a:	8b 2b       	or	r24, r27
    257c:	09 f0       	breq	.+2      	; 0x2580 <f_open+0x306>
    257e:	a5 cf       	rjmp	.-182    	; 0x24ca <f_open+0x250>
    2580:	80 e0       	ldi	r24, 0x00	; 0
    2582:	36 c0       	rjmp	.+108    	; 0x25f0 <f_open+0x376>
    2584:	82 e0       	ldi	r24, 0x02	; 2
    2586:	cc cf       	rjmp	.-104    	; 0x2520 <f_open+0x2a6>
    2588:	81 e0       	ldi	r24, 0x01	; 1
    258a:	ca cf       	rjmp	.-108    	; 0x2520 <f_open+0x2a6>
    258c:	86 e0       	ldi	r24, 0x06	; 6
    258e:	fd 2d       	mov	r31, r13
    2590:	f8 60       	ori	r31, 0x08	; 8
    2592:	df 2e       	mov	r13, r31
    2594:	d9 cf       	rjmp	.-78     	; 0x2548 <f_open+0x2ce>
    2596:	8d 81       	ldd	r24, Y+5	; 0x05
    2598:	84 fd       	sbrc	r24, 4
    259a:	28 c0       	rjmp	.+80     	; 0x25ec <f_open+0x372>
    259c:	13 cf       	rjmp	.-474    	; 0x23c4 <f_open+0x14a>
    259e:	48 18       	sub	r4, r8
    25a0:	59 08       	sbc	r5, r9
    25a2:	6a 08       	sbc	r6, r10
    25a4:	7b 08       	sbc	r7, r11
    25a6:	84 14       	cp	r8, r4
    25a8:	95 04       	cpc	r9, r5
    25aa:	a6 04       	cpc	r10, r6
    25ac:	b7 04       	cpc	r11, r7
    25ae:	08 f4       	brcc	.+2      	; 0x25b2 <f_open+0x338>
    25b0:	80 cf       	rjmp	.-256    	; 0x24b2 <f_open+0x238>
    25b2:	d7 cf       	rjmp	.-82     	; 0x2562 <f_open+0x2e8>
    25b4:	4f 3f       	cpi	r20, 0xFF	; 255
    25b6:	8f ef       	ldi	r24, 0xFF	; 255
    25b8:	58 07       	cpc	r21, r24
    25ba:	68 07       	cpc	r22, r24
    25bc:	78 07       	cpc	r23, r24
    25be:	79 f7       	brne	.-34     	; 0x259e <f_open+0x324>
    25c0:	c6 cf       	rjmp	.-116    	; 0x254e <f_open+0x2d4>
    25c2:	f7 01       	movw	r30, r14
    25c4:	44 8b       	std	Z+20, r20	; 0x14
    25c6:	55 8b       	std	Z+21, r21	; 0x15
    25c8:	66 8b       	std	Z+22, r22	; 0x16
    25ca:	77 8b       	std	Z+23, r23	; 0x17
    25cc:	82 e0       	ldi	r24, 0x02	; 2
    25ce:	a8 cf       	rjmp	.-176    	; 0x2520 <f_open+0x2a6>
    25d0:	4f 3f       	cpi	r20, 0xFF	; 255
    25d2:	ff ef       	ldi	r31, 0xFF	; 255
    25d4:	5f 07       	cpc	r21, r31
    25d6:	6f 07       	cpc	r22, r31
    25d8:	7f 07       	cpc	r23, r31
    25da:	09 f4       	brne	.+2      	; 0x25de <f_open+0x364>
    25dc:	b8 cf       	rjmp	.-144    	; 0x254e <f_open+0x2d4>
    25de:	f1 cf       	rjmp	.-30     	; 0x25c2 <f_open+0x348>
    25e0:	87 e0       	ldi	r24, 0x07	; 7
    25e2:	9e cf       	rjmp	.-196    	; 0x2520 <f_open+0x2a6>
    25e4:	88 e0       	ldi	r24, 0x08	; 8
    25e6:	9c cf       	rjmp	.-200    	; 0x2520 <f_open+0x2a6>
    25e8:	87 e0       	ldi	r24, 0x07	; 7
    25ea:	9a cf       	rjmp	.-204    	; 0x2520 <f_open+0x2a6>
    25ec:	84 e0       	ldi	r24, 0x04	; 4
    25ee:	98 cf       	rjmp	.-208    	; 0x2520 <f_open+0x2a6>
    25f0:	ac 96       	adiw	r28, 0x2c	; 44
    25f2:	0f b6       	in	r0, 0x3f	; 63
    25f4:	f8 94       	cli
    25f6:	de bf       	out	0x3e, r29	; 62
    25f8:	0f be       	out	0x3f, r0	; 63
    25fa:	cd bf       	out	0x3d, r28	; 61
    25fc:	df 91       	pop	r29
    25fe:	cf 91       	pop	r28
    2600:	1f 91       	pop	r17
    2602:	0f 91       	pop	r16
    2604:	ff 90       	pop	r15
    2606:	ef 90       	pop	r14
    2608:	df 90       	pop	r13
    260a:	cf 90       	pop	r12
    260c:	bf 90       	pop	r11
    260e:	af 90       	pop	r10
    2610:	9f 90       	pop	r9
    2612:	8f 90       	pop	r8
    2614:	7f 90       	pop	r7
    2616:	6f 90       	pop	r6
    2618:	5f 90       	pop	r5
    261a:	4f 90       	pop	r4
    261c:	3f 90       	pop	r3
    261e:	2f 90       	pop	r2
    2620:	08 95       	ret

00002622 <f_write>:
	FIL* fp,			/* Pointer to the file object */
	const void* buff,	/* Pointer to the data to be written */
	UINT btw,			/* Number of bytes to write */
	UINT* bw			/* Pointer to number of bytes written */
)
{
    2622:	2f 92       	push	r2
    2624:	3f 92       	push	r3
    2626:	4f 92       	push	r4
    2628:	5f 92       	push	r5
    262a:	6f 92       	push	r6
    262c:	7f 92       	push	r7
    262e:	8f 92       	push	r8
    2630:	9f 92       	push	r9
    2632:	af 92       	push	r10
    2634:	bf 92       	push	r11
    2636:	cf 92       	push	r12
    2638:	df 92       	push	r13
    263a:	ef 92       	push	r14
    263c:	ff 92       	push	r15
    263e:	0f 93       	push	r16
    2640:	1f 93       	push	r17
    2642:	cf 93       	push	r28
    2644:	df 93       	push	r29
    2646:	cd b7       	in	r28, 0x3d	; 61
    2648:	de b7       	in	r29, 0x3e	; 62
    264a:	2a 97       	sbiw	r28, 0x0a	; 10
    264c:	0f b6       	in	r0, 0x3f	; 63
    264e:	f8 94       	cli
    2650:	de bf       	out	0x3e, r29	; 62
    2652:	0f be       	out	0x3f, r0	; 63
    2654:	cd bf       	out	0x3d, r28	; 61
    2656:	7c 01       	movw	r14, r24
    2658:	4b 01       	movw	r8, r22
    265a:	6a 01       	movw	r12, r20
    265c:	59 01       	movw	r10, r18
	LBA_t sect;
	UINT wcnt, cc, csect;
	const BYTE *wbuff = (const BYTE*)buff;


	*bw = 0;	/* Clear write byte counter */
    265e:	f9 01       	movw	r30, r18
    2660:	11 82       	std	Z+1, r1	; 0x01
    2662:	10 82       	st	Z, r1
	res = validate(&fp->obj, &fs);			/* Check validity of the file object */
    2664:	8f 83       	std	Y+7, r24	; 0x07
    2666:	f8 86       	std	Y+8, r15	; 0x08
    2668:	be 01       	movw	r22, r28
    266a:	6f 5f       	subi	r22, 0xFF	; 255
    266c:	7f 4f       	sbci	r23, 0xFF	; 255
    266e:	0e 94 a7 03 	call	0x74e	; 0x74e <validate>
	if (res != FR_OK || (res = (FRESULT)fp->err) != FR_OK) LEAVE_FF(fs, res);	/* Check validity */
    2672:	81 11       	cpse	r24, r1
    2674:	92 c1       	rjmp	.+804    	; 0x299a <f_write+0x378>
    2676:	f7 01       	movw	r30, r14
    2678:	87 85       	ldd	r24, Z+15	; 0x0f
    267a:	81 11       	cpse	r24, r1
    267c:	8e c1       	rjmp	.+796    	; 0x299a <f_write+0x378>
	if (!(fp->flag & FA_WRITE)) LEAVE_FF(fs, FR_DENIED);	/* Check access mode */
    267e:	86 85       	ldd	r24, Z+14	; 0x0e
    2680:	81 ff       	sbrs	r24, 1
    2682:	8a c1       	rjmp	.+788    	; 0x2998 <f_write+0x376>

	/* Check fptr wrap-around (file size cannot reach 4 GiB at FAT volume) */
	if ((!FF_FS_EXFAT || fs->fs_type != FS_EXFAT) && (DWORD)(fp->fptr + btw) < (DWORD)fp->fptr) {
    2684:	80 89       	ldd	r24, Z+16	; 0x10
    2686:	91 89       	ldd	r25, Z+17	; 0x11
    2688:	a2 89       	ldd	r26, Z+18	; 0x12
    268a:	b3 89       	ldd	r27, Z+19	; 0x13
    268c:	ac 01       	movw	r20, r24
    268e:	bd 01       	movw	r22, r26
    2690:	4c 0d       	add	r20, r12
    2692:	5d 1d       	adc	r21, r13
    2694:	61 1d       	adc	r22, r1
    2696:	71 1d       	adc	r23, r1
    2698:	48 17       	cp	r20, r24
    269a:	59 07       	cpc	r21, r25
    269c:	6a 07       	cpc	r22, r26
    269e:	7b 07       	cpc	r23, r27
    26a0:	18 f4       	brcc	.+6      	; 0x26a8 <f_write+0x86>
		btw = (UINT)(0xFFFFFFFF - (DWORD)fp->fptr);
    26a2:	6c 01       	movw	r12, r24
    26a4:	c0 94       	com	r12
    26a6:	d0 94       	com	r13
	}

	for ( ;  btw;							/* Repeat until all data written */
    26a8:	c1 14       	cp	r12, r1
    26aa:	d1 04       	cpc	r13, r1
    26ac:	09 f4       	brne	.+2      	; 0x26b0 <f_write+0x8e>
    26ae:	6e c1       	rjmp	.+732    	; 0x298c <f_write+0x36a>
				fs->winsect = sect;
			}
#else
			if (fp->sect != sect && 		/* Fill sector cache with file data */
				fp->fptr < fp->obj.objsize &&
				disk_read(fs->pdrv, fp->buf, sect, 1) != RES_OK) {
    26b0:	97 01       	movw	r18, r14
    26b2:	2e 5d       	subi	r18, 0xDE	; 222
    26b4:	3f 4f       	sbci	r19, 0xFF	; 255
    26b6:	3a 87       	std	Y+10, r19	; 0x0a
    26b8:	29 87       	std	Y+9, r18	; 0x09
		btw = (UINT)(0xFFFFFFFF - (DWORD)fp->fptr);
	}

	for ( ;  btw;							/* Repeat until all data written */
		btw -= wcnt, *bw += wcnt, wbuff += wcnt, fp->fptr += wcnt, fp->obj.objsize = (fp->fptr > fp->obj.objsize) ? fp->fptr : fp->obj.objsize) {
		if (fp->fptr % SS(fs) == 0) {		/* On the sector boundary? */
    26ba:	f7 01       	movw	r30, r14
    26bc:	80 89       	ldd	r24, Z+16	; 0x10
    26be:	91 89       	ldd	r25, Z+17	; 0x11
    26c0:	a2 89       	ldd	r26, Z+18	; 0x12
    26c2:	b3 89       	ldd	r27, Z+19	; 0x13
    26c4:	ac 01       	movw	r20, r24
    26c6:	bd 01       	movw	r22, r26
    26c8:	51 70       	andi	r21, 0x01	; 1
    26ca:	66 27       	eor	r22, r22
    26cc:	77 27       	eor	r23, r23
    26ce:	45 2b       	or	r20, r21
    26d0:	46 2b       	or	r20, r22
    26d2:	47 2b       	or	r20, r23
    26d4:	09 f0       	breq	.+2      	; 0x26d8 <f_write+0xb6>
    26d6:	15 c1       	rjmp	.+554    	; 0x2902 <f_write+0x2e0>
			csect = (UINT)(fp->fptr / SS(fs)) & (fs->csize - 1);	/* Sector offset in the cluster */
    26d8:	e9 81       	ldd	r30, Y+1	; 0x01
    26da:	fa 81       	ldd	r31, Y+2	; 0x02
    26dc:	61 84       	ldd	r6, Z+9	; 0x09
    26de:	72 84       	ldd	r7, Z+10	; 0x0a
    26e0:	f1 e0       	ldi	r31, 0x01	; 1
    26e2:	6f 1a       	sub	r6, r31
    26e4:	71 08       	sbc	r7, r1
    26e6:	ac 01       	movw	r20, r24
    26e8:	bd 01       	movw	r22, r26
    26ea:	03 2e       	mov	r0, r19
    26ec:	39 e0       	ldi	r19, 0x09	; 9
    26ee:	76 95       	lsr	r23
    26f0:	67 95       	ror	r22
    26f2:	57 95       	ror	r21
    26f4:	47 95       	ror	r20
    26f6:	3a 95       	dec	r19
    26f8:	d1 f7       	brne	.-12     	; 0x26ee <f_write+0xcc>
    26fa:	30 2d       	mov	r19, r0
    26fc:	64 22       	and	r6, r20
    26fe:	75 22       	and	r7, r21
			if (csect == 0) {				/* On the cluster boundary? */
    2700:	61 14       	cp	r6, r1
    2702:	71 04       	cpc	r7, r1
    2704:	09 f0       	breq	.+2      	; 0x2708 <f_write+0xe6>
    2706:	49 c0       	rjmp	.+146    	; 0x279a <f_write+0x178>
				if (fp->fptr == 0) {		/* On the top of the file? */
    2708:	89 2b       	or	r24, r25
    270a:	8a 2b       	or	r24, r26
    270c:	8b 2b       	or	r24, r27
    270e:	91 f4       	brne	.+36     	; 0x2734 <f_write+0x112>
					clst = fp->obj.sclust;	/* Follow from the origin */
    2710:	f7 01       	movw	r30, r14
    2712:	66 81       	ldd	r22, Z+6	; 0x06
    2714:	77 81       	ldd	r23, Z+7	; 0x07
    2716:	80 85       	ldd	r24, Z+8	; 0x08
    2718:	91 85       	ldd	r25, Z+9	; 0x09
					if (clst == 0) {		/* If no cluster is allocated, */
    271a:	61 15       	cp	r22, r1
    271c:	71 05       	cpc	r23, r1
    271e:	81 05       	cpc	r24, r1
    2720:	91 05       	cpc	r25, r1
    2722:	b9 f4       	brne	.+46     	; 0x2752 <f_write+0x130>
						clst = create_chain(&fp->obj, 0);	/* create a new cluster chain */
    2724:	40 e0       	ldi	r20, 0x00	; 0
    2726:	50 e0       	ldi	r21, 0x00	; 0
    2728:	ba 01       	movw	r22, r20
    272a:	8f 81       	ldd	r24, Y+7	; 0x07
    272c:	98 85       	ldd	r25, Y+8	; 0x08
    272e:	0e 94 21 08 	call	0x1042	; 0x1042 <create_chain>
    2732:	09 c0       	rjmp	.+18     	; 0x2746 <f_write+0x124>
					if (fp->cltbl) {
						clst = clmt_clust(fp, fp->fptr);	/* Get cluster# from the CLMT */
					} else
#endif
					{
						clst = create_chain(&fp->obj, fp->clust);	/* Follow or stretch cluster chain on the FAT */
    2734:	f7 01       	movw	r30, r14
    2736:	44 89       	ldd	r20, Z+20	; 0x14
    2738:	55 89       	ldd	r21, Z+21	; 0x15
    273a:	66 89       	ldd	r22, Z+22	; 0x16
    273c:	77 89       	ldd	r23, Z+23	; 0x17
    273e:	8f 81       	ldd	r24, Y+7	; 0x07
    2740:	98 85       	ldd	r25, Y+8	; 0x08
    2742:	0e 94 21 08 	call	0x1042	; 0x1042 <create_chain>
					}
				}
				if (clst == 0) break;		/* Could not allocate a new cluster (disk full) */
    2746:	61 15       	cp	r22, r1
    2748:	71 05       	cpc	r23, r1
    274a:	81 05       	cpc	r24, r1
    274c:	91 05       	cpc	r25, r1
    274e:	09 f4       	brne	.+2      	; 0x2752 <f_write+0x130>
    2750:	1d c1       	rjmp	.+570    	; 0x298c <f_write+0x36a>
				if (clst == 1) ABORT(fs, FR_INT_ERR);
    2752:	61 30       	cpi	r22, 0x01	; 1
    2754:	71 05       	cpc	r23, r1
    2756:	81 05       	cpc	r24, r1
    2758:	91 05       	cpc	r25, r1
    275a:	21 f4       	brne	.+8      	; 0x2764 <f_write+0x142>
    275c:	82 e0       	ldi	r24, 0x02	; 2
    275e:	f7 01       	movw	r30, r14
    2760:	87 87       	std	Z+15, r24	; 0x0f
    2762:	1b c1       	rjmp	.+566    	; 0x299a <f_write+0x378>
				if (clst == 0xFFFFFFFF) ABORT(fs, FR_DISK_ERR);
    2764:	6f 3f       	cpi	r22, 0xFF	; 255
    2766:	ff ef       	ldi	r31, 0xFF	; 255
    2768:	7f 07       	cpc	r23, r31
    276a:	8f 07       	cpc	r24, r31
    276c:	9f 07       	cpc	r25, r31
    276e:	21 f4       	brne	.+8      	; 0x2778 <f_write+0x156>
    2770:	81 e0       	ldi	r24, 0x01	; 1
    2772:	f7 01       	movw	r30, r14
    2774:	87 87       	std	Z+15, r24	; 0x0f
    2776:	11 c1       	rjmp	.+546    	; 0x299a <f_write+0x378>
				fp->clust = clst;			/* Update current cluster */
    2778:	f7 01       	movw	r30, r14
    277a:	64 8b       	std	Z+20, r22	; 0x14
    277c:	75 8b       	std	Z+21, r23	; 0x15
    277e:	86 8b       	std	Z+22, r24	; 0x16
    2780:	97 8b       	std	Z+23, r25	; 0x17
				if (fp->obj.sclust == 0) fp->obj.sclust = clst;	/* Set start cluster if the first write */
    2782:	06 81       	ldd	r16, Z+6	; 0x06
    2784:	17 81       	ldd	r17, Z+7	; 0x07
    2786:	20 85       	ldd	r18, Z+8	; 0x08
    2788:	31 85       	ldd	r19, Z+9	; 0x09
    278a:	01 2b       	or	r16, r17
    278c:	02 2b       	or	r16, r18
    278e:	03 2b       	or	r16, r19
    2790:	21 f4       	brne	.+8      	; 0x279a <f_write+0x178>
    2792:	66 83       	std	Z+6, r22	; 0x06
    2794:	77 83       	std	Z+7, r23	; 0x07
    2796:	80 87       	std	Z+8, r24	; 0x08
    2798:	91 87       	std	Z+9, r25	; 0x09
			}
#if FF_FS_TINY
			if (fs->winsect == fp->sect && sync_window(fs) != FR_OK) ABORT(fs, FR_DISK_ERR);	/* Write-back sector cache */
#else
			if (fp->flag & FA_DIRTY) {		/* Write-back sector cache */
    279a:	f7 01       	movw	r30, r14
    279c:	86 85       	ldd	r24, Z+14	; 0x0e
    279e:	88 23       	and	r24, r24
    27a0:	bc f4       	brge	.+46     	; 0x27d0 <f_write+0x1ae>
				if (disk_write(fs->pdrv, fp->buf, fp->sect, 1) != RES_OK) ABORT(fs, FR_DISK_ERR);
    27a2:	20 8d       	ldd	r18, Z+24	; 0x18
    27a4:	31 8d       	ldd	r19, Z+25	; 0x19
    27a6:	42 8d       	ldd	r20, Z+26	; 0x1a
    27a8:	53 8d       	ldd	r21, Z+27	; 0x1b
    27aa:	e9 81       	ldd	r30, Y+1	; 0x01
    27ac:	fa 81       	ldd	r31, Y+2	; 0x02
    27ae:	01 e0       	ldi	r16, 0x01	; 1
    27b0:	10 e0       	ldi	r17, 0x00	; 0
    27b2:	69 85       	ldd	r22, Y+9	; 0x09
    27b4:	7a 85       	ldd	r23, Y+10	; 0x0a
    27b6:	81 81       	ldd	r24, Z+1	; 0x01
    27b8:	0e 94 df 02 	call	0x5be	; 0x5be <disk_write>
    27bc:	88 23       	and	r24, r24
    27be:	21 f0       	breq	.+8      	; 0x27c8 <f_write+0x1a6>
    27c0:	81 e0       	ldi	r24, 0x01	; 1
    27c2:	f7 01       	movw	r30, r14
    27c4:	87 87       	std	Z+15, r24	; 0x0f
    27c6:	e9 c0       	rjmp	.+466    	; 0x299a <f_write+0x378>
				fp->flag &= (BYTE)~FA_DIRTY;
    27c8:	f7 01       	movw	r30, r14
    27ca:	86 85       	ldd	r24, Z+14	; 0x0e
    27cc:	8f 77       	andi	r24, 0x7F	; 127
    27ce:	86 87       	std	Z+14, r24	; 0x0e
			}
#endif
			sect = clst2sect(fs, fp->clust);	/* Get current sector */
    27d0:	29 81       	ldd	r18, Y+1	; 0x01
    27d2:	3a 81       	ldd	r19, Y+2	; 0x02
    27d4:	3e 83       	std	Y+6, r19	; 0x06
    27d6:	2d 83       	std	Y+5, r18	; 0x05
    27d8:	f7 01       	movw	r30, r14
    27da:	44 89       	ldd	r20, Z+20	; 0x14
    27dc:	55 89       	ldd	r21, Z+21	; 0x15
    27de:	66 89       	ldd	r22, Z+22	; 0x16
    27e0:	77 89       	ldd	r23, Z+23	; 0x17
    27e2:	c9 01       	movw	r24, r18
    27e4:	0e 94 49 03 	call	0x692	; 0x692 <clst2sect>
			if (sect == 0) ABORT(fs, FR_INT_ERR);
    27e8:	61 15       	cp	r22, r1
    27ea:	71 05       	cpc	r23, r1
    27ec:	81 05       	cpc	r24, r1
    27ee:	91 05       	cpc	r25, r1
    27f0:	21 f4       	brne	.+8      	; 0x27fa <f_write+0x1d8>
    27f2:	82 e0       	ldi	r24, 0x02	; 2
    27f4:	f7 01       	movw	r30, r14
    27f6:	87 87       	std	Z+15, r24	; 0x0f
    27f8:	d0 c0       	rjmp	.+416    	; 0x299a <f_write+0x378>
			sect += csect;
    27fa:	1b 01       	movw	r2, r22
    27fc:	2c 01       	movw	r4, r24
    27fe:	26 0c       	add	r2, r6
    2800:	37 1c       	adc	r3, r7
    2802:	41 1c       	adc	r4, r1
    2804:	51 1c       	adc	r5, r1
			cc = btw / SS(fs);				/* When remaining bytes >= sector size, */
    2806:	96 01       	movw	r18, r12
    2808:	23 2f       	mov	r18, r19
    280a:	33 27       	eor	r19, r19
    280c:	26 95       	lsr	r18
    280e:	3c 83       	std	Y+4, r19	; 0x04
    2810:	2b 83       	std	Y+3, r18	; 0x03
			if (cc > 0) {					/* Write maximum contiguous sectors directly */
    2812:	21 15       	cp	r18, r1
    2814:	31 05       	cpc	r19, r1
    2816:	09 f4       	brne	.+2      	; 0x281a <f_write+0x1f8>
    2818:	47 c0       	rjmp	.+142    	; 0x28a8 <f_write+0x286>
				if (csect + cc > fs->csize) {	/* Clip at cluster boundary */
    281a:	ed 81       	ldd	r30, Y+5	; 0x05
    281c:	fe 81       	ldd	r31, Y+6	; 0x06
    281e:	81 85       	ldd	r24, Z+9	; 0x09
    2820:	92 85       	ldd	r25, Z+10	; 0x0a
    2822:	26 0d       	add	r18, r6
    2824:	37 1d       	adc	r19, r7
    2826:	82 17       	cp	r24, r18
    2828:	93 07       	cpc	r25, r19
    282a:	28 f4       	brcc	.+10     	; 0x2836 <f_write+0x214>
					cc = fs->csize - csect;
    282c:	9c 01       	movw	r18, r24
    282e:	26 19       	sub	r18, r6
    2830:	37 09       	sbc	r19, r7
    2832:	3c 83       	std	Y+4, r19	; 0x04
    2834:	2b 83       	std	Y+3, r18	; 0x03
				}
				if (disk_write(fs->pdrv, wbuff, sect, cc) != RES_OK) ABORT(fs, FR_DISK_ERR);
    2836:	0b 81       	ldd	r16, Y+3	; 0x03
    2838:	1c 81       	ldd	r17, Y+4	; 0x04
    283a:	a2 01       	movw	r20, r4
    283c:	91 01       	movw	r18, r2
    283e:	b4 01       	movw	r22, r8
    2840:	ed 81       	ldd	r30, Y+5	; 0x05
    2842:	fe 81       	ldd	r31, Y+6	; 0x06
    2844:	81 81       	ldd	r24, Z+1	; 0x01
    2846:	0e 94 df 02 	call	0x5be	; 0x5be <disk_write>
    284a:	88 23       	and	r24, r24
    284c:	21 f0       	breq	.+8      	; 0x2856 <f_write+0x234>
    284e:	81 e0       	ldi	r24, 0x01	; 1
    2850:	f7 01       	movw	r30, r14
    2852:	87 87       	std	Z+15, r24	; 0x0f
    2854:	a2 c0       	rjmp	.+324    	; 0x299a <f_write+0x378>
				if (fs->winsect - sect < cc) {	/* Refill sector cache if it gets invalidated by the direct write */
					mem_cpy(fs->win, wbuff + ((fs->winsect - sect) * SS(fs)), SS(fs));
					fs->wflag = 0;
				}
#else
				if (fp->sect - sect < cc) { /* Refill sector cache if it gets invalidated by the direct write */
    2856:	f7 01       	movw	r30, r14
    2858:	80 8d       	ldd	r24, Z+24	; 0x18
    285a:	91 8d       	ldd	r25, Z+25	; 0x19
    285c:	a2 8d       	ldd	r26, Z+26	; 0x1a
    285e:	b3 8d       	ldd	r27, Z+27	; 0x1b
    2860:	82 19       	sub	r24, r2
    2862:	93 09       	sbc	r25, r3
    2864:	a4 09       	sbc	r26, r4
    2866:	b5 09       	sbc	r27, r5
    2868:	2b 81       	ldd	r18, Y+3	; 0x03
    286a:	3c 81       	ldd	r19, Y+4	; 0x04
    286c:	a9 01       	movw	r20, r18
    286e:	60 e0       	ldi	r22, 0x00	; 0
    2870:	70 e0       	ldi	r23, 0x00	; 0
    2872:	84 17       	cp	r24, r20
    2874:	95 07       	cpc	r25, r21
    2876:	a6 07       	cpc	r26, r22
    2878:	b7 07       	cpc	r27, r23
    287a:	80 f4       	brcc	.+32     	; 0x289c <f_write+0x27a>
					mem_cpy(fp->buf, wbuff + ((fp->sect - sect) * SS(fs)), SS(fs));
    287c:	98 2f       	mov	r25, r24
    287e:	88 27       	eor	r24, r24
    2880:	99 0f       	add	r25, r25
    2882:	b4 01       	movw	r22, r8
    2884:	68 0f       	add	r22, r24
    2886:	79 1f       	adc	r23, r25
    2888:	40 e0       	ldi	r20, 0x00	; 0
    288a:	52 e0       	ldi	r21, 0x02	; 2
    288c:	89 85       	ldd	r24, Y+9	; 0x09
    288e:	9a 85       	ldd	r25, Y+10	; 0x0a
    2890:	0e 94 3b 03 	call	0x676	; 0x676 <mem_cpy>
					fp->flag &= (BYTE)~FA_DIRTY;
    2894:	f7 01       	movw	r30, r14
    2896:	86 85       	ldd	r24, Z+14	; 0x0e
    2898:	8f 77       	andi	r24, 0x7F	; 127
    289a:	86 87       	std	Z+14, r24	; 0x0e
				}
#endif
#endif
				wcnt = SS(fs) * cc;		/* Number of bytes transferred */
    289c:	6b 80       	ldd	r6, Y+3	; 0x03
    289e:	7c 80       	ldd	r7, Y+4	; 0x04
    28a0:	76 2c       	mov	r7, r6
    28a2:	66 24       	eor	r6, r6
    28a4:	77 0c       	add	r7, r7
				continue;
    28a6:	46 c0       	rjmp	.+140    	; 0x2934 <f_write+0x312>
			if (fp->fptr >= fp->obj.objsize) {	/* Avoid silly cache filling on the growing edge */
				if (sync_window(fs) != FR_OK) ABORT(fs, FR_DISK_ERR);
				fs->winsect = sect;
			}
#else
			if (fp->sect != sect && 		/* Fill sector cache with file data */
    28a8:	f7 01       	movw	r30, r14
    28aa:	80 8d       	ldd	r24, Z+24	; 0x18
    28ac:	91 8d       	ldd	r25, Z+25	; 0x19
    28ae:	a2 8d       	ldd	r26, Z+26	; 0x1a
    28b0:	b3 8d       	ldd	r27, Z+27	; 0x1b
    28b2:	28 16       	cp	r2, r24
    28b4:	39 06       	cpc	r3, r25
    28b6:	4a 06       	cpc	r4, r26
    28b8:	5b 06       	cpc	r5, r27
    28ba:	f1 f0       	breq	.+60     	; 0x28f8 <f_write+0x2d6>
    28bc:	40 89       	ldd	r20, Z+16	; 0x10
    28be:	51 89       	ldd	r21, Z+17	; 0x11
    28c0:	62 89       	ldd	r22, Z+18	; 0x12
    28c2:	73 89       	ldd	r23, Z+19	; 0x13
    28c4:	82 85       	ldd	r24, Z+10	; 0x0a
    28c6:	93 85       	ldd	r25, Z+11	; 0x0b
    28c8:	a4 85       	ldd	r26, Z+12	; 0x0c
    28ca:	b5 85       	ldd	r27, Z+13	; 0x0d
    28cc:	48 17       	cp	r20, r24
    28ce:	59 07       	cpc	r21, r25
    28d0:	6a 07       	cpc	r22, r26
    28d2:	7b 07       	cpc	r23, r27
    28d4:	88 f4       	brcc	.+34     	; 0x28f8 <f_write+0x2d6>
				fp->fptr < fp->obj.objsize &&
				disk_read(fs->pdrv, fp->buf, sect, 1) != RES_OK) {
    28d6:	01 e0       	ldi	r16, 0x01	; 1
    28d8:	10 e0       	ldi	r17, 0x00	; 0
    28da:	a2 01       	movw	r20, r4
    28dc:	91 01       	movw	r18, r2
    28de:	69 85       	ldd	r22, Y+9	; 0x09
    28e0:	7a 85       	ldd	r23, Y+10	; 0x0a
    28e2:	ed 81       	ldd	r30, Y+5	; 0x05
    28e4:	fe 81       	ldd	r31, Y+6	; 0x06
    28e6:	81 81       	ldd	r24, Z+1	; 0x01
    28e8:	0e 94 a0 02 	call	0x540	; 0x540 <disk_read>
				if (sync_window(fs) != FR_OK) ABORT(fs, FR_DISK_ERR);
				fs->winsect = sect;
			}
#else
			if (fp->sect != sect && 		/* Fill sector cache with file data */
				fp->fptr < fp->obj.objsize &&
    28ec:	88 23       	and	r24, r24
    28ee:	21 f0       	breq	.+8      	; 0x28f8 <f_write+0x2d6>
				disk_read(fs->pdrv, fp->buf, sect, 1) != RES_OK) {
					ABORT(fs, FR_DISK_ERR);
    28f0:	81 e0       	ldi	r24, 0x01	; 1
    28f2:	f7 01       	movw	r30, r14
    28f4:	87 87       	std	Z+15, r24	; 0x0f
    28f6:	51 c0       	rjmp	.+162    	; 0x299a <f_write+0x378>
			}
#endif
			fp->sect = sect;
    28f8:	f7 01       	movw	r30, r14
    28fa:	20 8e       	std	Z+24, r2	; 0x18
    28fc:	31 8e       	std	Z+25, r3	; 0x19
    28fe:	42 8e       	std	Z+26, r4	; 0x1a
    2900:	53 8e       	std	Z+27, r5	; 0x1b
		}
		wcnt = SS(fs) - (UINT)fp->fptr % SS(fs);	/* Number of bytes remains in the sector */
    2902:	f7 01       	movw	r30, r14
    2904:	80 89       	ldd	r24, Z+16	; 0x10
    2906:	91 89       	ldd	r25, Z+17	; 0x11
    2908:	91 70       	andi	r25, 0x01	; 1
    290a:	20 e0       	ldi	r18, 0x00	; 0
    290c:	32 e0       	ldi	r19, 0x02	; 2
    290e:	39 01       	movw	r6, r18
    2910:	68 1a       	sub	r6, r24
    2912:	79 0a       	sbc	r7, r25
    2914:	c6 14       	cp	r12, r6
    2916:	d7 04       	cpc	r13, r7
    2918:	08 f4       	brcc	.+2      	; 0x291c <f_write+0x2fa>
    291a:	36 01       	movw	r6, r12
#if FF_FS_TINY
		if (move_window(fs, fp->sect) != FR_OK) ABORT(fs, FR_DISK_ERR);	/* Move sector window */
		mem_cpy(fs->win + fp->fptr % SS(fs), wbuff, wcnt);	/* Fit data to the sector */
		fs->wflag = 1;
#else
		mem_cpy(fp->buf + fp->fptr % SS(fs), wbuff, wcnt);	/* Fit data to the sector */
    291c:	a3 01       	movw	r20, r6
    291e:	b4 01       	movw	r22, r8
    2920:	29 85       	ldd	r18, Y+9	; 0x09
    2922:	3a 85       	ldd	r19, Y+10	; 0x0a
    2924:	82 0f       	add	r24, r18
    2926:	93 1f       	adc	r25, r19
    2928:	0e 94 3b 03 	call	0x676	; 0x676 <mem_cpy>
		fp->flag |= FA_DIRTY;
    292c:	f7 01       	movw	r30, r14
    292e:	86 85       	ldd	r24, Z+14	; 0x0e
    2930:	80 68       	ori	r24, 0x80	; 128
    2932:	86 87       	std	Z+14, r24	; 0x0e
	if ((!FF_FS_EXFAT || fs->fs_type != FS_EXFAT) && (DWORD)(fp->fptr + btw) < (DWORD)fp->fptr) {
		btw = (UINT)(0xFFFFFFFF - (DWORD)fp->fptr);
	}

	for ( ;  btw;							/* Repeat until all data written */
		btw -= wcnt, *bw += wcnt, wbuff += wcnt, fp->fptr += wcnt, fp->obj.objsize = (fp->fptr > fp->obj.objsize) ? fp->fptr : fp->obj.objsize) {
    2934:	c6 18       	sub	r12, r6
    2936:	d7 08       	sbc	r13, r7
    2938:	f5 01       	movw	r30, r10
    293a:	80 81       	ld	r24, Z
    293c:	91 81       	ldd	r25, Z+1	; 0x01
    293e:	86 0d       	add	r24, r6
    2940:	97 1d       	adc	r25, r7
    2942:	91 83       	std	Z+1, r25	; 0x01
    2944:	80 83       	st	Z, r24
    2946:	86 0c       	add	r8, r6
    2948:	97 1c       	adc	r9, r7
    294a:	f7 01       	movw	r30, r14
    294c:	80 89       	ldd	r24, Z+16	; 0x10
    294e:	91 89       	ldd	r25, Z+17	; 0x11
    2950:	a2 89       	ldd	r26, Z+18	; 0x12
    2952:	b3 89       	ldd	r27, Z+19	; 0x13
    2954:	86 0d       	add	r24, r6
    2956:	97 1d       	adc	r25, r7
    2958:	a1 1d       	adc	r26, r1
    295a:	b1 1d       	adc	r27, r1
    295c:	80 8b       	std	Z+16, r24	; 0x10
    295e:	91 8b       	std	Z+17, r25	; 0x11
    2960:	a2 8b       	std	Z+18, r26	; 0x12
    2962:	b3 8b       	std	Z+19, r27	; 0x13
    2964:	42 85       	ldd	r20, Z+10	; 0x0a
    2966:	53 85       	ldd	r21, Z+11	; 0x0b
    2968:	64 85       	ldd	r22, Z+12	; 0x0c
    296a:	75 85       	ldd	r23, Z+13	; 0x0d
    296c:	48 17       	cp	r20, r24
    296e:	59 07       	cpc	r21, r25
    2970:	6a 07       	cpc	r22, r26
    2972:	7b 07       	cpc	r23, r27
    2974:	10 f4       	brcc	.+4      	; 0x297a <f_write+0x358>
    2976:	ac 01       	movw	r20, r24
    2978:	bd 01       	movw	r22, r26
    297a:	f7 01       	movw	r30, r14
    297c:	42 87       	std	Z+10, r20	; 0x0a
    297e:	53 87       	std	Z+11, r21	; 0x0b
    2980:	64 87       	std	Z+12, r22	; 0x0c
    2982:	75 87       	std	Z+13, r23	; 0x0d
	/* Check fptr wrap-around (file size cannot reach 4 GiB at FAT volume) */
	if ((!FF_FS_EXFAT || fs->fs_type != FS_EXFAT) && (DWORD)(fp->fptr + btw) < (DWORD)fp->fptr) {
		btw = (UINT)(0xFFFFFFFF - (DWORD)fp->fptr);
	}

	for ( ;  btw;							/* Repeat until all data written */
    2984:	c1 14       	cp	r12, r1
    2986:	d1 04       	cpc	r13, r1
    2988:	09 f0       	breq	.+2      	; 0x298c <f_write+0x36a>
    298a:	97 ce       	rjmp	.-722    	; 0x26ba <f_write+0x98>
		mem_cpy(fp->buf + fp->fptr % SS(fs), wbuff, wcnt);	/* Fit data to the sector */
		fp->flag |= FA_DIRTY;
#endif
	}

	fp->flag |= FA_MODIFIED;				/* Set file change flag */
    298c:	f7 01       	movw	r30, r14
    298e:	86 85       	ldd	r24, Z+14	; 0x0e
    2990:	80 64       	ori	r24, 0x40	; 64
    2992:	86 87       	std	Z+14, r24	; 0x0e

	LEAVE_FF(fs, FR_OK);
    2994:	80 e0       	ldi	r24, 0x00	; 0
    2996:	01 c0       	rjmp	.+2      	; 0x299a <f_write+0x378>


	*bw = 0;	/* Clear write byte counter */
	res = validate(&fp->obj, &fs);			/* Check validity of the file object */
	if (res != FR_OK || (res = (FRESULT)fp->err) != FR_OK) LEAVE_FF(fs, res);	/* Check validity */
	if (!(fp->flag & FA_WRITE)) LEAVE_FF(fs, FR_DENIED);	/* Check access mode */
    2998:	87 e0       	ldi	r24, 0x07	; 7
	}

	fp->flag |= FA_MODIFIED;				/* Set file change flag */

	LEAVE_FF(fs, FR_OK);
}
    299a:	2a 96       	adiw	r28, 0x0a	; 10
    299c:	0f b6       	in	r0, 0x3f	; 63
    299e:	f8 94       	cli
    29a0:	de bf       	out	0x3e, r29	; 62
    29a2:	0f be       	out	0x3f, r0	; 63
    29a4:	cd bf       	out	0x3d, r28	; 61
    29a6:	df 91       	pop	r29
    29a8:	cf 91       	pop	r28
    29aa:	1f 91       	pop	r17
    29ac:	0f 91       	pop	r16
    29ae:	ff 90       	pop	r15
    29b0:	ef 90       	pop	r14
    29b2:	df 90       	pop	r13
    29b4:	cf 90       	pop	r12
    29b6:	bf 90       	pop	r11
    29b8:	af 90       	pop	r10
    29ba:	9f 90       	pop	r9
    29bc:	8f 90       	pop	r8
    29be:	7f 90       	pop	r7
    29c0:	6f 90       	pop	r6
    29c2:	5f 90       	pop	r5
    29c4:	4f 90       	pop	r4
    29c6:	3f 90       	pop	r3
    29c8:	2f 90       	pop	r2
    29ca:	08 95       	ret

000029cc <f_sync>:
/*-----------------------------------------------------------------------*/

FRESULT f_sync (
	FIL* fp		/* Pointer to the file object */
)
{
    29cc:	ef 92       	push	r14
    29ce:	ff 92       	push	r15
    29d0:	0f 93       	push	r16
    29d2:	1f 93       	push	r17
    29d4:	cf 93       	push	r28
    29d6:	df 93       	push	r29
    29d8:	1f 92       	push	r1
    29da:	1f 92       	push	r1
    29dc:	cd b7       	in	r28, 0x3d	; 61
    29de:	de b7       	in	r29, 0x3e	; 62
    29e0:	7c 01       	movw	r14, r24
	FATFS *fs;
	DWORD tm;
	BYTE *dir;


	res = validate(&fp->obj, &fs);	/* Check validity of the file object */
    29e2:	be 01       	movw	r22, r28
    29e4:	6f 5f       	subi	r22, 0xFF	; 255
    29e6:	7f 4f       	sbci	r23, 0xFF	; 255
    29e8:	0e 94 a7 03 	call	0x74e	; 0x74e <validate>
	if (res == FR_OK) {
    29ec:	81 11       	cpse	r24, r1
    29ee:	57 c0       	rjmp	.+174    	; 0x2a9e <f_sync+0xd2>
		if (fp->flag & FA_MODIFIED) {	/* Is there any change to the file? */
    29f0:	f7 01       	movw	r30, r14
    29f2:	86 85       	ldd	r24, Z+14	; 0x0e
    29f4:	86 ff       	sbrs	r24, 6
    29f6:	50 c0       	rjmp	.+160    	; 0x2a98 <f_sync+0xcc>
#if !FF_FS_TINY
			if (fp->flag & FA_DIRTY) {	/* Write-back cached data if needed */
    29f8:	88 23       	and	r24, r24
    29fa:	a4 f4       	brge	.+40     	; 0x2a24 <f_sync+0x58>
				if (disk_write(fs->pdrv, fp->buf, fp->sect, 1) != RES_OK) LEAVE_FF(fs, FR_DISK_ERR);
    29fc:	20 8d       	ldd	r18, Z+24	; 0x18
    29fe:	31 8d       	ldd	r19, Z+25	; 0x19
    2a00:	42 8d       	ldd	r20, Z+26	; 0x1a
    2a02:	53 8d       	ldd	r21, Z+27	; 0x1b
    2a04:	e9 81       	ldd	r30, Y+1	; 0x01
    2a06:	fa 81       	ldd	r31, Y+2	; 0x02
    2a08:	01 e0       	ldi	r16, 0x01	; 1
    2a0a:	10 e0       	ldi	r17, 0x00	; 0
    2a0c:	b7 01       	movw	r22, r14
    2a0e:	6e 5d       	subi	r22, 0xDE	; 222
    2a10:	7f 4f       	sbci	r23, 0xFF	; 255
    2a12:	81 81       	ldd	r24, Z+1	; 0x01
    2a14:	0e 94 df 02 	call	0x5be	; 0x5be <disk_write>
    2a18:	81 11       	cpse	r24, r1
    2a1a:	40 c0       	rjmp	.+128    	; 0x2a9c <f_sync+0xd0>
				fp->flag &= (BYTE)~FA_DIRTY;
    2a1c:	f7 01       	movw	r30, r14
    2a1e:	86 85       	ldd	r24, Z+14	; 0x0e
    2a20:	8f 77       	andi	r24, 0x7F	; 127
    2a22:	86 87       	std	Z+14, r24	; 0x0e
					FREE_NAMBUF();
				}
			} else
#endif
			{
				res = move_window(fs, fp->dir_sect);
    2a24:	f7 01       	movw	r30, r14
    2a26:	44 8d       	ldd	r20, Z+28	; 0x1c
    2a28:	55 8d       	ldd	r21, Z+29	; 0x1d
    2a2a:	66 8d       	ldd	r22, Z+30	; 0x1e
    2a2c:	77 8d       	ldd	r23, Z+31	; 0x1f
    2a2e:	89 81       	ldd	r24, Y+1	; 0x01
    2a30:	9a 81       	ldd	r25, Y+2	; 0x02
    2a32:	0e 94 2b 04 	call	0x856	; 0x856 <move_window>
				if (res == FR_OK) {
    2a36:	81 11       	cpse	r24, r1
    2a38:	32 c0       	rjmp	.+100    	; 0x2a9e <f_sync+0xd2>
					dir = fp->dir_ptr;
    2a3a:	f7 01       	movw	r30, r14
    2a3c:	00 a1       	ldd	r16, Z+32	; 0x20
    2a3e:	11 a1       	ldd	r17, Z+33	; 0x21
					dir[DIR_Attr] |= AM_ARC;						/* Set archive attribute to indicate that the file has been changed */
    2a40:	f8 01       	movw	r30, r16
    2a42:	83 85       	ldd	r24, Z+11	; 0x0b
    2a44:	80 62       	ori	r24, 0x20	; 32
    2a46:	83 87       	std	Z+11, r24	; 0x0b
					st_clust(fp->obj.fs, dir, fp->obj.sclust);		/* Update file allocation information  */
    2a48:	f7 01       	movw	r30, r14
    2a4a:	26 81       	ldd	r18, Z+6	; 0x06
    2a4c:	37 81       	ldd	r19, Z+7	; 0x07
    2a4e:	40 85       	ldd	r20, Z+8	; 0x08
    2a50:	51 85       	ldd	r21, Z+9	; 0x09
    2a52:	b8 01       	movw	r22, r16
    2a54:	80 81       	ld	r24, Z
    2a56:	91 81       	ldd	r25, Z+1	; 0x01
    2a58:	0e 94 51 06 	call	0xca2	; 0xca2 <st_clust>
					st_dword(dir + DIR_FileSize, (DWORD)fp->obj.objsize);	/* Update file size */
    2a5c:	f7 01       	movw	r30, r14
    2a5e:	32 85       	ldd	r19, Z+10	; 0x0a
    2a60:	23 85       	ldd	r18, Z+11	; 0x0b
    2a62:	94 85       	ldd	r25, Z+12	; 0x0c
    2a64:	85 85       	ldd	r24, Z+13	; 0x0d
	*ptr++ = (BYTE)val;
}

static void st_dword (BYTE* ptr, DWORD val)	/* Store a 4-byte word in little-endian */
{
	*ptr++ = (BYTE)val; val >>= 8;
    2a66:	f8 01       	movw	r30, r16
    2a68:	34 8f       	std	Z+28, r19	; 0x1c
	*ptr++ = (BYTE)val; val >>= 8;
    2a6a:	25 8f       	std	Z+29, r18	; 0x1d
	*ptr++ = (BYTE)val; val >>= 8;
    2a6c:	96 8f       	std	Z+30, r25	; 0x1e
	*ptr++ = (BYTE)val;
    2a6e:	87 8f       	std	Z+31, r24	; 0x1f
	*ptr++ = (BYTE)val;
}

static void st_dword (BYTE* ptr, DWORD val)	/* Store a 4-byte word in little-endian */
{
	*ptr++ = (BYTE)val; val >>= 8;
    2a70:	16 8a       	std	Z+22, r1	; 0x16
	*ptr++ = (BYTE)val; val >>= 8;
    2a72:	17 8a       	std	Z+23, r1	; 0x17
	*ptr++ = (BYTE)val; val >>= 8;
    2a74:	8d eb       	ldi	r24, 0xBD	; 189
    2a76:	80 8f       	std	Z+24, r24	; 0x18
	*ptr++ = (BYTE)val;
    2a78:	84 e5       	ldi	r24, 0x54	; 84
    2a7a:	81 8f       	std	Z+25, r24	; 0x19
#endif

#if !FF_FS_READONLY
static void st_word (BYTE* ptr, WORD val)	/* Store a 2-byte word in little-endian */
{
	*ptr++ = (BYTE)val; val >>= 8;
    2a7c:	12 8a       	std	Z+18, r1	; 0x12
	*ptr++ = (BYTE)val;
    2a7e:	13 8a       	std	Z+19, r1	; 0x13
					dir[DIR_Attr] |= AM_ARC;						/* Set archive attribute to indicate that the file has been changed */
					st_clust(fp->obj.fs, dir, fp->obj.sclust);		/* Update file allocation information  */
					st_dword(dir + DIR_FileSize, (DWORD)fp->obj.objsize);	/* Update file size */
					st_dword(dir + DIR_ModTime, tm);				/* Update modified time */
					st_word(dir + DIR_LstAccDate, 0);
					fs->wflag = 1;
    2a80:	89 81       	ldd	r24, Y+1	; 0x01
    2a82:	9a 81       	ldd	r25, Y+2	; 0x02
    2a84:	21 e0       	ldi	r18, 0x01	; 1
    2a86:	fc 01       	movw	r30, r24
    2a88:	23 83       	std	Z+3, r18	; 0x03
					res = sync_fs(fs);					/* Restore it to the directory */
    2a8a:	0e 94 c7 04 	call	0x98e	; 0x98e <sync_fs>
					fp->flag &= (BYTE)~FA_MODIFIED;
    2a8e:	f7 01       	movw	r30, r14
    2a90:	96 85       	ldd	r25, Z+14	; 0x0e
    2a92:	9f 7b       	andi	r25, 0xBF	; 191
    2a94:	96 87       	std	Z+14, r25	; 0x0e
    2a96:	03 c0       	rjmp	.+6      	; 0x2a9e <f_sync+0xd2>
	FATFS *fs;
	DWORD tm;
	BYTE *dir;


	res = validate(&fp->obj, &fs);	/* Check validity of the file object */
    2a98:	80 e0       	ldi	r24, 0x00	; 0
    2a9a:	01 c0       	rjmp	.+2      	; 0x2a9e <f_sync+0xd2>
	if (res == FR_OK) {
		if (fp->flag & FA_MODIFIED) {	/* Is there any change to the file? */
#if !FF_FS_TINY
			if (fp->flag & FA_DIRTY) {	/* Write-back cached data if needed */
				if (disk_write(fs->pdrv, fp->buf, fp->sect, 1) != RES_OK) LEAVE_FF(fs, FR_DISK_ERR);
    2a9c:	81 e0       	ldi	r24, 0x01	; 1
			}
		}
	}

	LEAVE_FF(fs, res);
}
    2a9e:	0f 90       	pop	r0
    2aa0:	0f 90       	pop	r0
    2aa2:	df 91       	pop	r29
    2aa4:	cf 91       	pop	r28
    2aa6:	1f 91       	pop	r17
    2aa8:	0f 91       	pop	r16
    2aaa:	ff 90       	pop	r15
    2aac:	ef 90       	pop	r14
    2aae:	08 95       	ret

00002ab0 <f_close>:
/*-----------------------------------------------------------------------*/

FRESULT f_close (
	FIL* fp		/* Pointer to the file object to be closed */
)
{
    2ab0:	0f 93       	push	r16
    2ab2:	1f 93       	push	r17
    2ab4:	cf 93       	push	r28
    2ab6:	df 93       	push	r29
    2ab8:	1f 92       	push	r1
    2aba:	1f 92       	push	r1
    2abc:	cd b7       	in	r28, 0x3d	; 61
    2abe:	de b7       	in	r29, 0x3e	; 62
    2ac0:	8c 01       	movw	r16, r24
	FRESULT res;
	FATFS *fs;

#if !FF_FS_READONLY
	res = f_sync(fp);					/* Flush cached data */
    2ac2:	84 df       	rcall	.-248    	; 0x29cc <f_sync>
	if (res == FR_OK)
    2ac4:	81 11       	cpse	r24, r1
    2ac6:	0b c0       	rjmp	.+22     	; 0x2ade <f_close+0x2e>
#endif
	{
		res = validate(&fp->obj, &fs);	/* Lock volume */
    2ac8:	be 01       	movw	r22, r28
    2aca:	6f 5f       	subi	r22, 0xFF	; 255
    2acc:	7f 4f       	sbci	r23, 0xFF	; 255
    2ace:	c8 01       	movw	r24, r16
    2ad0:	0e 94 a7 03 	call	0x74e	; 0x74e <validate>
		if (res == FR_OK) {
    2ad4:	81 11       	cpse	r24, r1
    2ad6:	03 c0       	rjmp	.+6      	; 0x2ade <f_close+0x2e>
#if FF_FS_LOCK != 0
			res = dec_lock(fp->obj.lockid);		/* Decrement file open counter */
			if (res == FR_OK) fp->obj.fs = 0;	/* Invalidate file object */
#else
			fp->obj.fs = 0;	/* Invalidate file object */
    2ad8:	f8 01       	movw	r30, r16
    2ada:	11 82       	std	Z+1, r1	; 0x01
    2adc:	10 82       	st	Z, r1
			unlock_fs(fs, FR_OK);		/* Unlock volume */
#endif
		}
	}
	return res;
}
    2ade:	0f 90       	pop	r0
    2ae0:	0f 90       	pop	r0
    2ae2:	df 91       	pop	r29
    2ae4:	cf 91       	pop	r28
    2ae6:	1f 91       	pop	r17
    2ae8:	0f 91       	pop	r16
    2aea:	08 95       	ret

00002aec <SD_sendCommand>:
	response = SD_sendCommand(ERASE_SELECTED_BLOCKS, 0); //erase all selected blocks
	if(response != 0x00) //check for SD status: 0x00 - OK (No flags set)
		return response;

	return 0; //normal return
}
    2aec:	cf 92       	push	r12
    2aee:	df 92       	push	r13
    2af0:	ef 92       	push	r14
    2af2:	ff 92       	push	r15
    2af4:	1f 93       	push	r17
    2af6:	cf 93       	push	r28
    2af8:	df 93       	push	r29
    2afa:	18 2f       	mov	r17, r24
    2afc:	6a 01       	movw	r12, r20
    2afe:	7b 01       	movw	r14, r22
    2b00:	80 91 69 11 	lds	r24, 0x1169	; 0x801169 <SDHC_flag>
    2b04:	81 11       	cpse	r24, r1
    2b06:	15 c0       	rjmp	.+42     	; 0x2b32 <SD_sendCommand+0x46>
    2b08:	8f ee       	ldi	r24, 0xEF	; 239
    2b0a:	81 0f       	add	r24, r17
    2b0c:	82 30       	cpi	r24, 0x02	; 2
    2b0e:	40 f0       	brcs	.+16     	; 0x2b20 <SD_sendCommand+0x34>
    2b10:	88 ee       	ldi	r24, 0xE8	; 232
    2b12:	81 0f       	add	r24, r17
    2b14:	82 30       	cpi	r24, 0x02	; 2
    2b16:	20 f0       	brcs	.+8      	; 0x2b20 <SD_sendCommand+0x34>
    2b18:	80 ee       	ldi	r24, 0xE0	; 224
    2b1a:	81 0f       	add	r24, r17
    2b1c:	82 30       	cpi	r24, 0x02	; 2
    2b1e:	48 f4       	brcc	.+18     	; 0x2b32 <SD_sendCommand+0x46>
    2b20:	0b 2e       	mov	r0, r27
    2b22:	b9 e0       	ldi	r27, 0x09	; 9
    2b24:	cc 0c       	add	r12, r12
    2b26:	dd 1c       	adc	r13, r13
    2b28:	ee 1c       	adc	r14, r14
    2b2a:	ff 1c       	adc	r15, r15
    2b2c:	ba 95       	dec	r27
    2b2e:	d1 f7       	brne	.-12     	; 0x2b24 <SD_sendCommand+0x38>
    2b30:	b0 2d       	mov	r27, r0
    2b32:	52 d1       	rcall	.+676    	; 0x2dd8 <SPI_Chip_Select>
    2b34:	81 2f       	mov	r24, r17
    2b36:	80 64       	ori	r24, 0x40	; 64
    2b38:	42 d1       	rcall	.+644    	; 0x2dbe <SPI_transmit>
    2b3a:	8f 2d       	mov	r24, r15
    2b3c:	40 d1       	rcall	.+640    	; 0x2dbe <SPI_transmit>
    2b3e:	8e 2d       	mov	r24, r14
    2b40:	3e d1       	rcall	.+636    	; 0x2dbe <SPI_transmit>
    2b42:	8d 2d       	mov	r24, r13
    2b44:	3c d1       	rcall	.+632    	; 0x2dbe <SPI_transmit>
    2b46:	8c 2d       	mov	r24, r12
    2b48:	3a d1       	rcall	.+628    	; 0x2dbe <SPI_transmit>
    2b4a:	18 30       	cpi	r17, 0x08	; 8
    2b4c:	19 f4       	brne	.+6      	; 0x2b54 <SD_sendCommand+0x68>
    2b4e:	87 e8       	ldi	r24, 0x87	; 135
    2b50:	36 d1       	rcall	.+620    	; 0x2dbe <SPI_transmit>
    2b52:	06 c0       	rjmp	.+12     	; 0x2b60 <SD_sendCommand+0x74>
    2b54:	85 e9       	ldi	r24, 0x95	; 149
    2b56:	33 d1       	rcall	.+614    	; 0x2dbe <SPI_transmit>
    2b58:	03 c0       	rjmp	.+6      	; 0x2b60 <SD_sendCommand+0x74>
    2b5a:	c1 50       	subi	r28, 0x01	; 1
    2b5c:	11 f4       	brne	.+4      	; 0x2b62 <SD_sendCommand+0x76>
    2b5e:	16 c0       	rjmp	.+44     	; 0x2b8c <SD_sendCommand+0xa0>
    2b60:	c0 e0       	ldi	r28, 0x00	; 0
    2b62:	33 d1       	rcall	.+614    	; 0x2dca <SPI_receive>
    2b64:	d8 2f       	mov	r29, r24
    2b66:	8f 3f       	cpi	r24, 0xFF	; 255
    2b68:	c1 f3       	breq	.-16     	; 0x2b5a <SD_sendCommand+0x6e>
    2b6a:	81 11       	cpse	r24, r1
    2b6c:	0f c0       	rjmp	.+30     	; 0x2b8c <SD_sendCommand+0xa0>
    2b6e:	1a 33       	cpi	r17, 0x3A	; 58
    2b70:	69 f4       	brne	.+26     	; 0x2b8c <SD_sendCommand+0xa0>
    2b72:	2b d1       	rcall	.+598    	; 0x2dca <SPI_receive>
    2b74:	86 ff       	sbrs	r24, 6
    2b76:	04 c0       	rjmp	.+8      	; 0x2b80 <SD_sendCommand+0x94>
    2b78:	81 e0       	ldi	r24, 0x01	; 1
    2b7a:	80 93 69 11 	sts	0x1169, r24	; 0x801169 <SDHC_flag>
    2b7e:	02 c0       	rjmp	.+4      	; 0x2b84 <SD_sendCommand+0x98>
    2b80:	10 92 69 11 	sts	0x1169, r1	; 0x801169 <SDHC_flag>
    2b84:	22 d1       	rcall	.+580    	; 0x2dca <SPI_receive>
    2b86:	21 d1       	rcall	.+578    	; 0x2dca <SPI_receive>
    2b88:	20 d1       	rcall	.+576    	; 0x2dca <SPI_receive>
    2b8a:	05 c0       	rjmp	.+10     	; 0x2b96 <SD_sendCommand+0xaa>
    2b8c:	16 32       	cpi	r17, 0x26	; 38
    2b8e:	19 f4       	brne	.+6      	; 0x2b96 <SD_sendCommand+0xaa>
    2b90:	1c d1       	rcall	.+568    	; 0x2dca <SPI_receive>
    2b92:	88 23       	and	r24, r24
    2b94:	e9 f3       	breq	.-6      	; 0x2b90 <SD_sendCommand+0xa4>
    2b96:	19 d1       	rcall	.+562    	; 0x2dca <SPI_receive>
    2b98:	21 d1       	rcall	.+578    	; 0x2ddc <SPI_Chip_Deselect>
    2b9a:	8d 2f       	mov	r24, r29
    2b9c:	df 91       	pop	r29
    2b9e:	cf 91       	pop	r28
    2ba0:	1f 91       	pop	r17
    2ba2:	ff 90       	pop	r15
    2ba4:	ef 90       	pop	r14
    2ba6:	df 90       	pop	r13
    2ba8:	cf 90       	pop	r12
    2baa:	08 95       	ret

00002bac <SD_init>:
    2bac:	0f 93       	push	r16
    2bae:	1f 93       	push	r17
    2bb0:	cf 93       	push	r28
    2bb2:	df 93       	push	r29
    2bb4:	fc d0       	rcall	.+504    	; 0x2dae <SPI_init>
    2bb6:	1a e0       	ldi	r17, 0x0A	; 10
    2bb8:	8f ef       	ldi	r24, 0xFF	; 255
    2bba:	01 d1       	rcall	.+514    	; 0x2dbe <SPI_transmit>
    2bbc:	11 50       	subi	r17, 0x01	; 1
    2bbe:	e1 f7       	brne	.-8      	; 0x2bb8 <SD_init+0xc>
    2bc0:	0b d1       	rcall	.+534    	; 0x2dd8 <SPI_Chip_Select>
    2bc2:	40 e0       	ldi	r20, 0x00	; 0
    2bc4:	50 e0       	ldi	r21, 0x00	; 0
    2bc6:	ba 01       	movw	r22, r20
    2bc8:	80 e0       	ldi	r24, 0x00	; 0
    2bca:	90 df       	rcall	.-224    	; 0x2aec <SD_sendCommand>
    2bcc:	c0 e2       	ldi	r28, 0x20	; 32
    2bce:	d0 e0       	ldi	r29, 0x00	; 0
    2bd0:	08 c0       	rjmp	.+16     	; 0x2be2 <SD_init+0x36>
    2bd2:	40 e0       	ldi	r20, 0x00	; 0
    2bd4:	50 e0       	ldi	r21, 0x00	; 0
    2bd6:	ba 01       	movw	r22, r20
    2bd8:	80 e0       	ldi	r24, 0x00	; 0
    2bda:	88 df       	rcall	.-240    	; 0x2aec <SD_sendCommand>
    2bdc:	21 97       	sbiw	r28, 0x01	; 1
    2bde:	09 f4       	brne	.+2      	; 0x2be2 <SD_init+0x36>
    2be0:	65 c0       	rjmp	.+202    	; 0x2cac <SD_init+0x100>
    2be2:	81 30       	cpi	r24, 0x01	; 1
    2be4:	b1 f7       	brne	.-20     	; 0x2bd2 <SD_init+0x26>
    2be6:	fa d0       	rcall	.+500    	; 0x2ddc <SPI_Chip_Deselect>
    2be8:	8f ef       	ldi	r24, 0xFF	; 255
    2bea:	e9 d0       	rcall	.+466    	; 0x2dbe <SPI_transmit>
    2bec:	8f ef       	ldi	r24, 0xFF	; 255
    2bee:	e7 d0       	rcall	.+462    	; 0x2dbe <SPI_transmit>
    2bf0:	4a ea       	ldi	r20, 0xAA	; 170
    2bf2:	51 e0       	ldi	r21, 0x01	; 1
    2bf4:	60 e0       	ldi	r22, 0x00	; 0
    2bf6:	70 e0       	ldi	r23, 0x00	; 0
    2bf8:	88 e0       	ldi	r24, 0x08	; 8
    2bfa:	78 df       	rcall	.-272    	; 0x2aec <SD_sendCommand>
    2bfc:	ce ef       	ldi	r28, 0xFE	; 254
    2bfe:	d0 e0       	ldi	r29, 0x00	; 0
    2c00:	0d c0       	rjmp	.+26     	; 0x2c1c <SD_init+0x70>
    2c02:	4a ea       	ldi	r20, 0xAA	; 170
    2c04:	51 e0       	ldi	r21, 0x01	; 1
    2c06:	60 e0       	ldi	r22, 0x00	; 0
    2c08:	70 e0       	ldi	r23, 0x00	; 0
    2c0a:	88 e0       	ldi	r24, 0x08	; 8
    2c0c:	6f df       	rcall	.-290    	; 0x2aec <SD_sendCommand>
    2c0e:	21 97       	sbiw	r28, 0x01	; 1
    2c10:	29 f4       	brne	.+10     	; 0x2c1c <SD_init+0x70>
    2c12:	81 e0       	ldi	r24, 0x01	; 1
    2c14:	80 93 6e 11 	sts	0x116E, r24	; 0x80116e <cardType>
    2c18:	01 e0       	ldi	r16, 0x01	; 1
    2c1a:	03 c0       	rjmp	.+6      	; 0x2c22 <SD_init+0x76>
    2c1c:	81 30       	cpi	r24, 0x01	; 1
    2c1e:	89 f7       	brne	.-30     	; 0x2c02 <SD_init+0x56>
    2c20:	02 e0       	ldi	r16, 0x02	; 2
    2c22:	40 e0       	ldi	r20, 0x00	; 0
    2c24:	50 e0       	ldi	r21, 0x00	; 0
    2c26:	ba 01       	movw	r22, r20
    2c28:	87 e3       	ldi	r24, 0x37	; 55
    2c2a:	60 df       	rcall	.-320    	; 0x2aec <SD_sendCommand>
    2c2c:	40 e0       	ldi	r20, 0x00	; 0
    2c2e:	50 e0       	ldi	r21, 0x00	; 0
    2c30:	60 e0       	ldi	r22, 0x00	; 0
    2c32:	70 e4       	ldi	r23, 0x40	; 64
    2c34:	89 e2       	ldi	r24, 0x29	; 41
    2c36:	5a df       	rcall	.-332    	; 0x2aec <SD_sendCommand>
    2c38:	ce ef       	ldi	r28, 0xFE	; 254
    2c3a:	d0 e0       	ldi	r29, 0x00	; 0
    2c3c:	0d c0       	rjmp	.+26     	; 0x2c58 <SD_init+0xac>
    2c3e:	40 e0       	ldi	r20, 0x00	; 0
    2c40:	50 e0       	ldi	r21, 0x00	; 0
    2c42:	ba 01       	movw	r22, r20
    2c44:	87 e3       	ldi	r24, 0x37	; 55
    2c46:	52 df       	rcall	.-348    	; 0x2aec <SD_sendCommand>
    2c48:	40 e0       	ldi	r20, 0x00	; 0
    2c4a:	50 e0       	ldi	r21, 0x00	; 0
    2c4c:	60 e0       	ldi	r22, 0x00	; 0
    2c4e:	70 e4       	ldi	r23, 0x40	; 64
    2c50:	89 e2       	ldi	r24, 0x29	; 41
    2c52:	4c df       	rcall	.-360    	; 0x2aec <SD_sendCommand>
    2c54:	21 97       	sbiw	r28, 0x01	; 1
    2c56:	61 f1       	breq	.+88     	; 0x2cb0 <SD_init+0x104>
    2c58:	81 11       	cpse	r24, r1
    2c5a:	f1 cf       	rjmp	.-30     	; 0x2c3e <SD_init+0x92>
    2c5c:	10 92 69 11 	sts	0x1169, r1	; 0x801169 <SDHC_flag>
    2c60:	02 30       	cpi	r16, 0x02	; 2
    2c62:	c1 f4       	brne	.+48     	; 0x2c94 <SD_init+0xe8>
    2c64:	27 c0       	rjmp	.+78     	; 0x2cb4 <SD_init+0x108>
    2c66:	40 e0       	ldi	r20, 0x00	; 0
    2c68:	50 e0       	ldi	r21, 0x00	; 0
    2c6a:	ba 01       	movw	r22, r20
    2c6c:	8a e3       	ldi	r24, 0x3A	; 58
    2c6e:	3e df       	rcall	.-388    	; 0x2aec <SD_sendCommand>
    2c70:	21 97       	sbiw	r28, 0x01	; 1
    2c72:	19 f4       	brne	.+6      	; 0x2c7a <SD_init+0xce>
    2c74:	10 92 6e 11 	sts	0x116E, r1	; 0x80116e <cardType>
    2c78:	02 c0       	rjmp	.+4      	; 0x2c7e <SD_init+0xd2>
    2c7a:	81 11       	cpse	r24, r1
    2c7c:	f4 cf       	rjmp	.-24     	; 0x2c66 <SD_init+0xba>
    2c7e:	80 91 69 11 	lds	r24, 0x1169	; 0x801169 <SDHC_flag>
    2c82:	81 30       	cpi	r24, 0x01	; 1
    2c84:	21 f4       	brne	.+8      	; 0x2c8e <SD_init+0xe2>
    2c86:	82 e0       	ldi	r24, 0x02	; 2
    2c88:	80 93 6e 11 	sts	0x116E, r24	; 0x80116e <cardType>
    2c8c:	03 c0       	rjmp	.+6      	; 0x2c94 <SD_init+0xe8>
    2c8e:	83 e0       	ldi	r24, 0x03	; 3
    2c90:	80 93 6e 11 	sts	0x116E, r24	; 0x80116e <cardType>
    2c94:	40 e0       	ldi	r20, 0x00	; 0
    2c96:	50 e0       	ldi	r21, 0x00	; 0
    2c98:	ba 01       	movw	r22, r20
    2c9a:	8b e3       	ldi	r24, 0x3B	; 59
    2c9c:	27 df       	rcall	.-434    	; 0x2aec <SD_sendCommand>
    2c9e:	40 e0       	ldi	r20, 0x00	; 0
    2ca0:	52 e0       	ldi	r21, 0x02	; 2
    2ca2:	60 e0       	ldi	r22, 0x00	; 0
    2ca4:	70 e0       	ldi	r23, 0x00	; 0
    2ca6:	80 e1       	ldi	r24, 0x10	; 16
    2ca8:	21 df       	rcall	.-446    	; 0x2aec <SD_sendCommand>
    2caa:	0c c0       	rjmp	.+24     	; 0x2cc4 <SD_init+0x118>
    2cac:	11 e0       	ldi	r17, 0x01	; 1
    2cae:	0a c0       	rjmp	.+20     	; 0x2cc4 <SD_init+0x118>
    2cb0:	12 e0       	ldi	r17, 0x02	; 2
    2cb2:	08 c0       	rjmp	.+16     	; 0x2cc4 <SD_init+0x118>
    2cb4:	40 e0       	ldi	r20, 0x00	; 0
    2cb6:	50 e0       	ldi	r21, 0x00	; 0
    2cb8:	ba 01       	movw	r22, r20
    2cba:	8a e3       	ldi	r24, 0x3A	; 58
    2cbc:	17 df       	rcall	.-466    	; 0x2aec <SD_sendCommand>
    2cbe:	ce ef       	ldi	r28, 0xFE	; 254
    2cc0:	d0 e0       	ldi	r29, 0x00	; 0
    2cc2:	db cf       	rjmp	.-74     	; 0x2c7a <SD_init+0xce>
    2cc4:	81 2f       	mov	r24, r17
    2cc6:	df 91       	pop	r29
    2cc8:	cf 91       	pop	r28
    2cca:	1f 91       	pop	r17
    2ccc:	0f 91       	pop	r16
    2cce:	08 95       	ret

00002cd0 <SD_readSingleBlock>:
//return	: unsigned char; will be 0 if no error,
// 			  otherwise the response byte will be sent
//******************************************************************
///-SD_readSingleBlock_start
unsigned char SD_readSingleBlock(unsigned long startBlock, unsigned char* ptr)
{
    2cd0:	0f 93       	push	r16
    2cd2:	1f 93       	push	r17
    2cd4:	cf 93       	push	r28
    2cd6:	df 93       	push	r29
    2cd8:	ea 01       	movw	r28, r20
	unsigned char response;
	unsigned int i, retry = 0;

	response = SD_sendCommand(READ_SINGLE_BLOCK, startBlock); //CMD17 = read a Block command
    2cda:	ab 01       	movw	r20, r22
    2cdc:	bc 01       	movw	r22, r24
    2cde:	81 e1       	ldi	r24, 0x11	; 17
    2ce0:	05 df       	rcall	.-502    	; 0x2aec <SD_sendCommand>
 
	if(response != 0x00)
    2ce2:	81 11       	cpse	r24, r1
		return response; //check for SD status: 0x00 - OK (No flags set)

	SPI_Chip_Select();
    2ce4:	19 c0       	rjmp	.+50     	; 0x2d18 <SD_readSingleBlock+0x48>
    2ce6:	78 d0       	rcall	.+240    	; 0x2dd8 <SPI_Chip_Select>

	retry = 0;
	while(SPI_receive() != 0b11111110) //wait for start single block token (0b11111110)
    2ce8:	0a ee       	ldi	r16, 0xEA	; 234
    2cea:	1d ef       	ldi	r17, 0xFD	; 253
    2cec:	06 c0       	rjmp	.+12     	; 0x2cfa <SD_readSingleBlock+0x2a>
    2cee:	01 50       	subi	r16, 0x01	; 1
	{
		if(retry++ > 65000)
    2cf0:	11 09       	sbc	r17, r1
		{
			SPI_Chip_Deselect();
    2cf2:	19 f4       	brne	.+6      	; 0x2cfa <SD_readSingleBlock+0x2a>
			return 1;
    2cf4:	73 d0       	rcall	.+230    	; 0x2ddc <SPI_Chip_Deselect>
    2cf6:	81 e0       	ldi	r24, 0x01	; 1
		return response; //check for SD status: 0x00 - OK (No flags set)

	SPI_Chip_Select();

	retry = 0;
	while(SPI_receive() != 0b11111110) //wait for start single block token (0b11111110)
    2cf8:	0f c0       	rjmp	.+30     	; 0x2d18 <SD_readSingleBlock+0x48>
    2cfa:	67 d0       	rcall	.+206    	; 0x2dca <SPI_receive>
    2cfc:	8e 3f       	cpi	r24, 0xFE	; 254
    2cfe:	b9 f7       	brne	.-18     	; 0x2cee <SD_readSingleBlock+0x1e>
    2d00:	8e 01       	movw	r16, r28
		} //return if time-out
	}
			
	for(i = 0; i < 512; i++) //read 512 bytes
	{
		*ptr = SPI_receive();
    2d02:	1e 5f       	subi	r17, 0xFE	; 254
    2d04:	62 d0       	rcall	.+196    	; 0x2dca <SPI_receive>
			SPI_Chip_Deselect();
			return 1;
		} //return if time-out
	}
			
	for(i = 0; i < 512; i++) //read 512 bytes
    2d06:	89 93       	st	Y+, r24
	{
		*ptr = SPI_receive();
		ptr++;
	}		

	SPI_receive(); //receive incoming CRC (16-bit), CRC is ignored here
    2d08:	c0 17       	cp	r28, r16
    2d0a:	d1 07       	cpc	r29, r17
	SPI_receive();
    2d0c:	d9 f7       	brne	.-10     	; 0x2d04 <SD_readSingleBlock+0x34>
    2d0e:	5d d0       	rcall	.+186    	; 0x2dca <SPI_receive>

	SPI_receive(); //extra 8 clock pulses
    2d10:	5c d0       	rcall	.+184    	; 0x2dca <SPI_receive>
    2d12:	5b d0       	rcall	.+182    	; 0x2dca <SPI_receive>
	SPI_Chip_Deselect();
    2d14:	63 d0       	rcall	.+198    	; 0x2ddc <SPI_Chip_Deselect>
    2d16:	80 e0       	ldi	r24, 0x00	; 0

	return 0;
    2d18:	df 91       	pop	r29
}
    2d1a:	cf 91       	pop	r28
    2d1c:	1f 91       	pop	r17
    2d1e:	0f 91       	pop	r16
    2d20:	08 95       	ret

00002d22 <SD_writeSingleBlock>:
    2d22:	0f 93       	push	r16
//return	: unsigned char; will be 0 if no error,
// 			  otherwise the response byte will be sent
//******************************************************************
///-SD_writeSingleBlock_start
unsigned char SD_writeSingleBlock(unsigned long startBlock, unsigned char* ptr)
{
    2d24:	1f 93       	push	r17
    2d26:	cf 93       	push	r28
    2d28:	df 93       	push	r29
    2d2a:	ea 01       	movw	r28, r20
	unsigned char response;
	unsigned int i, retry = 0;

	response = SD_sendCommand(WRITE_SINGLE_BLOCK, startBlock); //write a Block command
    2d2c:	ab 01       	movw	r20, r22
    2d2e:	bc 01       	movw	r22, r24
    2d30:	88 e1       	ldi	r24, 0x18	; 24
    2d32:	dc de       	rcall	.-584    	; 0x2aec <SD_sendCommand>
  
	if(response != 0x00)
    2d34:	81 11       	cpse	r24, r1
		return response; //check for SD status: 0x00 - OK (No flags set)

	SPI_Chip_Select();
    2d36:	36 c0       	rjmp	.+108    	; 0x2da4 <SD_writeSingleBlock+0x82>

	SPI_transmit(0b11111110); //Send start single block token (0b11111110)
    2d38:	4f d0       	rcall	.+158    	; 0x2dd8 <SPI_Chip_Select>
    2d3a:	8e ef       	ldi	r24, 0xFE	; 254
    2d3c:	40 d0       	rcall	.+128    	; 0x2dbe <SPI_transmit>
    2d3e:	8e 01       	movw	r16, r28
	for(i = 0; i < 512; i++) //send 512 bytes data
	{
		SPI_transmit(*ptr);
    2d40:	1e 5f       	subi	r17, 0xFE	; 254
    2d42:	89 91       	ld	r24, Y+
    2d44:	3c d0       	rcall	.+120    	; 0x2dbe <SPI_transmit>
		return response; //check for SD status: 0x00 - OK (No flags set)

	SPI_Chip_Select();

	SPI_transmit(0b11111110); //Send start single block token (0b11111110)
	for(i = 0; i < 512; i++) //send 512 bytes data
    2d46:	0c 17       	cp	r16, r28
    2d48:	1d 07       	cpc	r17, r29
	{
		SPI_transmit(*ptr);
		ptr++;
	}
	SPI_transmit(0xff); //transmit dummy CRC (16-bit), CRC is ignored here
    2d4a:	d9 f7       	brne	.-10     	; 0x2d42 <SD_writeSingleBlock+0x20>
    2d4c:	8f ef       	ldi	r24, 0xFF	; 255
	SPI_transmit(0xff);
    2d4e:	37 d0       	rcall	.+110    	; 0x2dbe <SPI_transmit>
    2d50:	8f ef       	ldi	r24, 0xFF	; 255

	response = SPI_receive();
    2d52:	35 d0       	rcall	.+106    	; 0x2dbe <SPI_transmit>
    2d54:	3a d0       	rcall	.+116    	; 0x2dca <SPI_receive>
    2d56:	c8 2f       	mov	r28, r24

	if( (response & 0b00011111) != 0b00000101) //response= 0bXXX0AAA1 ; AAA='010' - data accepted
    2d58:	8f 71       	andi	r24, 0x1F	; 31
    2d5a:	85 30       	cpi	r24, 0x05	; 5
    2d5c:	59 f0       	breq	.+22     	; 0x2d74 <SD_writeSingleBlock+0x52>
	{                              //AAA='101'-data rejected due to CRC error
		SPI_Chip_Deselect();       //AAA='110'-data rejected due to write error
    2d5e:	3e d0       	rcall	.+124    	; 0x2ddc <SPI_Chip_Deselect>
		return response;
    2d60:	8c 2f       	mov	r24, r28
    2d62:	20 c0       	rjmp	.+64     	; 0x2da4 <SD_writeSingleBlock+0x82>
	}

	while(SPI_receive() == 0) //wait for SD card to complete writing and get idle
	{
		if(retry++ > 65000)
    2d64:	21 96       	adiw	r28, 0x01	; 1
    2d66:	ca 3e       	cpi	r28, 0xEA	; 234
    2d68:	2d ef       	ldi	r18, 0xFD	; 253
    2d6a:	d2 07       	cpc	r29, r18
		{
			SPI_Chip_Deselect();
    2d6c:	29 f4       	brne	.+10     	; 0x2d78 <SD_writeSingleBlock+0x56>
			return 1;
    2d6e:	36 d0       	rcall	.+108    	; 0x2ddc <SPI_Chip_Deselect>
    2d70:	81 e0       	ldi	r24, 0x01	; 1
	{                              //AAA='101'-data rejected due to CRC error
		SPI_Chip_Deselect();       //AAA='110'-data rejected due to write error
		return response;
	}

	while(SPI_receive() == 0) //wait for SD card to complete writing and get idle
    2d72:	18 c0       	rjmp	.+48     	; 0x2da4 <SD_writeSingleBlock+0x82>
    2d74:	c0 e0       	ldi	r28, 0x00	; 0
    2d76:	d0 e0       	ldi	r29, 0x00	; 0
    2d78:	28 d0       	rcall	.+80     	; 0x2dca <SPI_receive>
			SPI_Chip_Deselect();
			return 1;
		}
	}

	SPI_Chip_Deselect();
    2d7a:	88 23       	and	r24, r24
	SPI_transmit(0xff);   //just spend 8 clock cycle delay before reasserting the CS line
    2d7c:	99 f3       	breq	.-26     	; 0x2d64 <SD_writeSingleBlock+0x42>
    2d7e:	2e d0       	rcall	.+92     	; 0x2ddc <SPI_Chip_Deselect>
	SPI_Chip_Select();    //re-asserting the CS line to verify if card is still busy
    2d80:	8f ef       	ldi	r24, 0xFF	; 255
    2d82:	1d d0       	rcall	.+58     	; 0x2dbe <SPI_transmit>

	while(SPI_receive() == 0) //wait for SD card to complete writing and get idle
	{
		if(retry++ > 65000)
    2d84:	29 d0       	rcall	.+82     	; 0x2dd8 <SPI_Chip_Select>
    2d86:	09 c0       	rjmp	.+18     	; 0x2d9a <SD_writeSingleBlock+0x78>
    2d88:	ce 01       	movw	r24, r28
    2d8a:	01 96       	adiw	r24, 0x01	; 1
    2d8c:	c9 3e       	cpi	r28, 0xE9	; 233
		{
			SPI_Chip_Deselect();
    2d8e:	dd 4f       	sbci	r29, 0xFD	; 253
    2d90:	18 f0       	brcs	.+6      	; 0x2d98 <SD_writeSingleBlock+0x76>
			return 1;
    2d92:	24 d0       	rcall	.+72     	; 0x2ddc <SPI_Chip_Deselect>
    2d94:	81 e0       	ldi	r24, 0x01	; 1
	SPI_transmit(0xff);   //just spend 8 clock cycle delay before reasserting the CS line
	SPI_Chip_Select();    //re-asserting the CS line to verify if card is still busy

	while(SPI_receive() == 0) //wait for SD card to complete writing and get idle
	{
		if(retry++ > 65000)
    2d96:	06 c0       	rjmp	.+12     	; 0x2da4 <SD_writeSingleBlock+0x82>

	SPI_Chip_Deselect();
	SPI_transmit(0xff);   //just spend 8 clock cycle delay before reasserting the CS line
	SPI_Chip_Select();    //re-asserting the CS line to verify if card is still busy

	while(SPI_receive() == 0) //wait for SD card to complete writing and get idle
    2d98:	ec 01       	movw	r28, r24
    2d9a:	17 d0       	rcall	.+46     	; 0x2dca <SPI_receive>
    2d9c:	88 23       	and	r24, r24
    2d9e:	a1 f3       	breq	.-24     	; 0x2d88 <SD_writeSingleBlock+0x66>
			SPI_Chip_Deselect();
			return 1;
		}
	}			
	   
	SPI_Chip_Deselect();
    2da0:	1d d0       	rcall	.+58     	; 0x2ddc <SPI_Chip_Deselect>
    2da2:	80 e0       	ldi	r24, 0x00	; 0
	return 0;
    2da4:	df 91       	pop	r29
}
    2da6:	cf 91       	pop	r28
    2da8:	1f 91       	pop	r17
    2daa:	0f 91       	pop	r16
    2dac:	08 95       	ret

00002dae <SPI_init>:
#include "SPIdriver.h"

//SPI initialize for SD card
void SPI_init(void)
{
	SPI_DDR |= 1 << SS_BIT;
    2dae:	20 9a       	sbi	0x04, 0	; 4
	SPI_DDR |= 1 << MOSI_BIT;
    2db0:	22 9a       	sbi	0x04, 2	; 4
	SPI_DDR &= ~(1 << MISO_BIT);
    2db2:	23 98       	cbi	0x04, 3	; 4
	SPI_DDR |= 1 << SCK_BIT;
    2db4:	21 9a       	sbi	0x04, 1	; 4
	
	//Setup SPI: Enable, Master mode, MSB first, SCK phase low, SCK idle low, f = fosc/64 = 16 MHz/64 = 250 kHz
	SPCR = 0b01010010;
    2db6:	82 e5       	ldi	r24, 0x52	; 82
    2db8:	8c bd       	out	0x2c, r24	; 44
	SPSR = 0;
    2dba:	1d bc       	out	0x2d, r1	; 45
    2dbc:	08 95       	ret

00002dbe <SPI_transmit>:
void SPI_transmit(unsigned char data)
{
	unsigned char dummy;
	
	// Start transmission
	SPDR = data;
    2dbe:	8e bd       	out	0x2e, r24	; 46
	
	// Wait for transmission complete
	while(!(SPSR & (1<<SPIF))){}
    2dc0:	0d b4       	in	r0, 0x2d	; 45
    2dc2:	07 fe       	sbrs	r0, 7
    2dc4:	fd cf       	rjmp	.-6      	; 0x2dc0 <SPI_transmit+0x2>
		
    // Clear flag 		
	dummy = SPDR;
    2dc6:	8e b5       	in	r24, 0x2e	; 46
    2dc8:	08 95       	ret

00002dca <SPI_receive>:
unsigned char SPI_receive()
{
	unsigned char data;
	// Wait for reception complete

	SPDR = 0xff;
    2dca:	8f ef       	ldi	r24, 0xFF	; 255
    2dcc:	8e bd       	out	0x2e, r24	; 46
	while(!(SPSR & (1<<SPIF)));
    2dce:	0d b4       	in	r0, 0x2d	; 45
    2dd0:	07 fe       	sbrs	r0, 7
    2dd2:	fd cf       	rjmp	.-6      	; 0x2dce <SPI_receive+0x4>
	data = SPDR;
    2dd4:	8e b5       	in	r24, 0x2e	; 46

	// Return data register
	return data;
}
    2dd6:	08 95       	ret

00002dd8 <SPI_Chip_Select>:

// CS active (=low)
void SPI_Chip_Select()
{
	SPI_PORT &= ~(1 << SS_BIT);
    2dd8:	28 98       	cbi	0x05, 0	; 5
    2dda:	08 95       	ret

00002ddc <SPI_Chip_Deselect>:
}

// CS inactive (=high)
void SPI_Chip_Deselect()
{
	SPI_PORT |= (1 << SS_BIT);
    2ddc:	28 9a       	sbi	0x05, 0	; 5
    2dde:	08 95       	ret

00002de0 <InitUART>:
  // Wait for new character received
  while ( (UCSRnA & (1<<7)) == 0 )
  {}                        
  // Then return it
  return UDRn;
}
    2de0:	0f 93       	push	r16
    2de2:	cf 93       	push	r28
    2de4:	df 93       	push	r29
    2de6:	ec 01       	movw	r28, r24
    2de8:	db 01       	movw	r26, r22
    2dea:	ca 01       	movw	r24, r20
    2dec:	8c 52       	subi	r24, 0x2C	; 44
    2dee:	91 40       	sbci	r25, 0x01	; 1
    2df0:	a1 09       	sbc	r26, r1
    2df2:	b1 09       	sbc	r27, r1
    2df4:	85 3d       	cpi	r24, 0xD5	; 213
    2df6:	90 4c       	sbci	r25, 0xC0	; 192
    2df8:	a1 40       	sbci	r26, 0x01	; 1
    2dfa:	b1 05       	cpc	r27, r1
    2dfc:	08 f0       	brcs	.+2      	; 0x2e00 <InitUART+0x20>
    2dfe:	40 c0       	rjmp	.+128    	; 0x2e80 <InitUART+0xa0>
    2e00:	25 50       	subi	r18, 0x05	; 5
    2e02:	24 30       	cpi	r18, 0x04	; 4
    2e04:	e8 f5       	brcc	.+122    	; 0x2e80 <InitUART+0xa0>
    2e06:	80 e2       	ldi	r24, 0x20	; 32
    2e08:	88 83       	st	Y, r24
    2e0a:	88 e1       	ldi	r24, 0x18	; 24
    2e0c:	89 83       	std	Y+1, r24	; 0x01
    2e0e:	22 0f       	add	r18, r18
    2e10:	2a 83       	std	Y+2, r18	; 0x02
    2e12:	05 34       	cpi	r16, 0x45	; 69
    2e14:	21 f4       	brne	.+8      	; 0x2e1e <InitUART+0x3e>
    2e16:	8a 81       	ldd	r24, Y+2	; 0x02
    2e18:	80 62       	ori	r24, 0x20	; 32
    2e1a:	8a 83       	std	Y+2, r24	; 0x02
    2e1c:	05 c0       	rjmp	.+10     	; 0x2e28 <InitUART+0x48>
    2e1e:	0f 34       	cpi	r16, 0x4F	; 79
    2e20:	19 f4       	brne	.+6      	; 0x2e28 <InitUART+0x48>
    2e22:	8a 81       	ldd	r24, Y+2	; 0x02
    2e24:	80 63       	ori	r24, 0x30	; 48
    2e26:	8a 83       	std	Y+2, r24	; 0x02
    2e28:	db 01       	movw	r26, r22
    2e2a:	ca 01       	movw	r24, r20
    2e2c:	80 58       	subi	r24, 0x80	; 128
    2e2e:	9b 47       	sbci	r25, 0x7B	; 123
    2e30:	a1 4e       	sbci	r26, 0xE1	; 225
    2e32:	bf 4f       	sbci	r27, 0xFF	; 255
    2e34:	88 0f       	add	r24, r24
    2e36:	99 1f       	adc	r25, r25
    2e38:	aa 1f       	adc	r26, r26
    2e3a:	bb 1f       	adc	r27, r27
    2e3c:	88 0f       	add	r24, r24
    2e3e:	99 1f       	adc	r25, r25
    2e40:	aa 1f       	adc	r26, r26
    2e42:	bb 1f       	adc	r27, r27
    2e44:	88 0f       	add	r24, r24
    2e46:	99 1f       	adc	r25, r25
    2e48:	aa 1f       	adc	r26, r26
    2e4a:	bb 1f       	adc	r27, r27
    2e4c:	44 0f       	add	r20, r20
    2e4e:	55 1f       	adc	r21, r21
    2e50:	66 1f       	adc	r22, r22
    2e52:	77 1f       	adc	r23, r23
    2e54:	44 0f       	add	r20, r20
    2e56:	55 1f       	adc	r21, r21
    2e58:	66 1f       	adc	r22, r22
    2e5a:	77 1f       	adc	r23, r23
    2e5c:	9a 01       	movw	r18, r20
    2e5e:	ab 01       	movw	r20, r22
    2e60:	22 0f       	add	r18, r18
    2e62:	33 1f       	adc	r19, r19
    2e64:	44 1f       	adc	r20, r20
    2e66:	55 1f       	adc	r21, r21
    2e68:	22 0f       	add	r18, r18
    2e6a:	33 1f       	adc	r19, r19
    2e6c:	44 1f       	adc	r20, r20
    2e6e:	55 1f       	adc	r21, r21
    2e70:	bc 01       	movw	r22, r24
    2e72:	cd 01       	movw	r24, r26
    2e74:	0e 94 97 26 	call	0x4d2e	; 0x4d2e <__udivmodsi4>
    2e78:	21 50       	subi	r18, 0x01	; 1
    2e7a:	31 09       	sbc	r19, r1
    2e7c:	3d 83       	std	Y+5, r19	; 0x05
    2e7e:	2c 83       	std	Y+4, r18	; 0x04
    2e80:	df 91       	pop	r29
    2e82:	cf 91       	pop	r28
    2e84:	0f 91       	pop	r16
    2e86:	08 95       	ret

00002e88 <SendChar>:
Then send the character.
Parameter :
	Tegn : Character for sending. 
*************************************************************************/
void SendChar(unsigned int UART_adr, char Tegn)
{
    2e88:	fc 01       	movw	r30, r24
  // Wait for transmitter register empty (ready for new character)
  while ( (UCSRnA & (1<<5)) == 0 )
    2e8a:	90 81       	ld	r25, Z
    2e8c:	95 ff       	sbrs	r25, 5
    2e8e:	fd cf       	rjmp	.-6      	; 0x2e8a <SendChar+0x2>
  {}
  // Then send the character
  UDRn = Tegn;
    2e90:	66 83       	std	Z+6, r22	; 0x06
    2e92:	08 95       	ret

00002e94 <SendString>:
Sends 0 terminated string.
Parameter:
   Streng: Pointer to the string. 
*************************************************************************/
void SendString(unsigned int UART_adr, char* Streng)
{
    2e94:	0f 93       	push	r16
    2e96:	1f 93       	push	r17
    2e98:	cf 93       	push	r28
    2e9a:	df 93       	push	r29
    2e9c:	eb 01       	movw	r28, r22
  // Repeat until zero-termination
  while (*Streng != 0)
    2e9e:	68 81       	ld	r22, Y
    2ea0:	66 23       	and	r22, r22
    2ea2:	39 f0       	breq	.+14     	; 0x2eb2 <SendString+0x1e>
    2ea4:	8c 01       	movw	r16, r24
    2ea6:	21 96       	adiw	r28, 0x01	; 1
  {
    // Send the character pointed to by "Streng"
    SendChar(UART_adr, *Streng);
    2ea8:	c8 01       	movw	r24, r16
    2eaa:	ee df       	rcall	.-36     	; 0x2e88 <SendChar>
   Streng: Pointer to the string. 
*************************************************************************/
void SendString(unsigned int UART_adr, char* Streng)
{
  // Repeat until zero-termination
  while (*Streng != 0)
    2eac:	69 91       	ld	r22, Y+
    2eae:	61 11       	cpse	r22, r1
    2eb0:	fb cf       	rjmp	.-10     	; 0x2ea8 <SendString+0x14>
    // Send the character pointed to by "Streng"
    SendChar(UART_adr, *Streng);
    // Advance the pointer one step
    Streng++;
  }
}
    2eb2:	df 91       	pop	r29
    2eb4:	cf 91       	pop	r28
    2eb6:	1f 91       	pop	r17
    2eb8:	0f 91       	pop	r16
    2eba:	08 95       	ret

00002ebc <WriteCommand>:
	unsigned int data = 0;
	data |= Red << 11;
	data |= Green << 5;
	data |= Blue;
	
	WriteData(data);
    2ebc:	88 b9       	out	0x08, r24	; 8
    2ebe:	5f 98       	cbi	0x0b, 7	; 11
    2ec0:	a1 98       	cbi	0x14, 1	; 20
    2ec2:	a2 98       	cbi	0x14, 2	; 20
    2ec4:	00 00       	nop
    2ec6:	a2 9a       	sbi	0x14, 2	; 20
    2ec8:	00 00       	nop
    2eca:	08 95       	ret

00002ecc <WriteData>:
    2ecc:	92 b9       	out	0x02, r25	; 2
    2ece:	88 b9       	out	0x08, r24	; 8
    2ed0:	5f 9a       	sbi	0x0b, 7	; 11
    2ed2:	a1 98       	cbi	0x14, 1	; 20
    2ed4:	a2 98       	cbi	0x14, 2	; 20
    2ed6:	00 00       	nop
    2ed8:	a2 9a       	sbi	0x14, 2	; 20
    2eda:	00 00       	nop
    2edc:	08 95       	ret

00002ede <DisplayOn>:
    2ede:	89 e2       	ldi	r24, 0x29	; 41
    2ee0:	ed cf       	rjmp	.-38     	; 0x2ebc <WriteCommand>
    2ee2:	08 95       	ret

00002ee4 <SleepOut>:
    2ee4:	81 e1       	ldi	r24, 0x11	; 17
    2ee6:	ea cf       	rjmp	.-44     	; 0x2ebc <WriteCommand>
    2ee8:	08 95       	ret

00002eea <MemoryAccessControl>:
    2eea:	cf 93       	push	r28
    2eec:	c8 2f       	mov	r28, r24
    2eee:	86 e3       	ldi	r24, 0x36	; 54
    2ef0:	e5 df       	rcall	.-54     	; 0x2ebc <WriteCommand>
    2ef2:	8c 2f       	mov	r24, r28
    2ef4:	90 e0       	ldi	r25, 0x00	; 0
    2ef6:	ea df       	rcall	.-44     	; 0x2ecc <WriteData>
    2ef8:	cf 91       	pop	r28
    2efa:	08 95       	ret

00002efc <InterfacePixelFormat>:
    2efc:	cf 93       	push	r28
    2efe:	c8 2f       	mov	r28, r24
    2f00:	8a e3       	ldi	r24, 0x3A	; 58
    2f02:	dc df       	rcall	.-72     	; 0x2ebc <WriteCommand>
    2f04:	8c 2f       	mov	r24, r28
    2f06:	90 e0       	ldi	r25, 0x00	; 0
    2f08:	e1 df       	rcall	.-62     	; 0x2ecc <WriteData>
    2f0a:	cf 91       	pop	r28
    2f0c:	08 95       	ret

00002f0e <MemoryWrite>:
    2f0e:	8c e2       	ldi	r24, 0x2C	; 44
    2f10:	d5 cf       	rjmp	.-86     	; 0x2ebc <WriteCommand>
    2f12:	08 95       	ret

00002f14 <SetColumnAddress>:
	
}

// Set Column Address (0-239), Start > End
void SetColumnAddress(unsigned int Start, unsigned int End)
{
    2f14:	0f 93       	push	r16
    2f16:	1f 93       	push	r17
    2f18:	cf 93       	push	r28
    2f1a:	df 93       	push	r29
    2f1c:	08 2f       	mov	r16, r24
    2f1e:	d9 2f       	mov	r29, r25
    2f20:	16 2f       	mov	r17, r22
    2f22:	c7 2f       	mov	r28, r23
	WriteCommand(0x2A);
    2f24:	8a e2       	ldi	r24, 0x2A	; 42
    2f26:	ca df       	rcall	.-108    	; 0x2ebc <WriteCommand>
	WriteData(Start >> 8);
    2f28:	8d 2f       	mov	r24, r29
    2f2a:	90 e0       	ldi	r25, 0x00	; 0
    2f2c:	cf df       	rcall	.-98     	; 0x2ecc <WriteData>
	WriteData(Start);
    2f2e:	80 2f       	mov	r24, r16
    2f30:	9d 2f       	mov	r25, r29
    2f32:	cc df       	rcall	.-104    	; 0x2ecc <WriteData>
	WriteData(End >> 8);
    2f34:	8c 2f       	mov	r24, r28
    2f36:	90 e0       	ldi	r25, 0x00	; 0
    2f38:	c9 df       	rcall	.-110    	; 0x2ecc <WriteData>
	WriteData(End);
    2f3a:	81 2f       	mov	r24, r17
    2f3c:	9c 2f       	mov	r25, r28
    2f3e:	c6 df       	rcall	.-116    	; 0x2ecc <WriteData>
    2f40:	df 91       	pop	r29
}
    2f42:	cf 91       	pop	r28
    2f44:	1f 91       	pop	r17
    2f46:	0f 91       	pop	r16
    2f48:	08 95       	ret

00002f4a <SetPageAddress>:
    2f4a:	0f 93       	push	r16

// Set Page Address (0-319), Start > End
void SetPageAddress(unsigned int Start, unsigned int End)
{
    2f4c:	1f 93       	push	r17
    2f4e:	cf 93       	push	r28
    2f50:	df 93       	push	r29
    2f52:	08 2f       	mov	r16, r24
    2f54:	d9 2f       	mov	r29, r25
    2f56:	16 2f       	mov	r17, r22
    2f58:	c7 2f       	mov	r28, r23
	WriteCommand(0x2B);
    2f5a:	8b e2       	ldi	r24, 0x2B	; 43
    2f5c:	af df       	rcall	.-162    	; 0x2ebc <WriteCommand>
	WriteData(Start >> 8);
    2f5e:	8d 2f       	mov	r24, r29
    2f60:	90 e0       	ldi	r25, 0x00	; 0
    2f62:	b4 df       	rcall	.-152    	; 0x2ecc <WriteData>
	WriteData(Start);
    2f64:	80 2f       	mov	r24, r16
    2f66:	9d 2f       	mov	r25, r29
    2f68:	b1 df       	rcall	.-158    	; 0x2ecc <WriteData>
	WriteData(End >> 8);
    2f6a:	8c 2f       	mov	r24, r28
    2f6c:	90 e0       	ldi	r25, 0x00	; 0
    2f6e:	ae df       	rcall	.-164    	; 0x2ecc <WriteData>
	WriteData(End);
    2f70:	81 2f       	mov	r24, r17
    2f72:	9c 2f       	mov	r25, r28
    2f74:	ab df       	rcall	.-170    	; 0x2ecc <WriteData>
    2f76:	df 91       	pop	r29
	
}
    2f78:	cf 91       	pop	r28
    2f7a:	1f 91       	pop	r17
    2f7c:	0f 91       	pop	r16
    2f7e:	08 95       	ret

00002f80 <setDisplayNumberFont>:
    2f80:	cf 93       	push	r28

void setDisplayNumberFont(unsigned int X_Position, unsigned int Y_Position) //S?tter page og column address s?ledes at det passer med font widt + font height. Der er lavet en funktion for hver font der bliver anvendt
{
    2f82:	df 93       	push	r29
    2f84:	eb 01       	movw	r28, r22
	unsigned int Set_start_row = 0x00 | Y_Position;

	unsigned int Set_end_column = Set_start_column + Number_Font_Width-1; //(bytes -1 bit) 8 pixels = 1 byte, 16 pixels = 2 bytes
	unsigned int Set_end_row = Set_start_row + Number_Font_Height;
	
	SetColumnAddress(Set_start_column, Set_end_column);
    2f86:	bc 01       	movw	r22, r24
    2f88:	69 5e       	subi	r22, 0xE9	; 233
    2f8a:	7f 4f       	sbci	r23, 0xFF	; 255
    2f8c:	c3 df       	rcall	.-122    	; 0x2f14 <SetColumnAddress>
	
	SetPageAddress(Set_start_row, Set_end_row);
    2f8e:	be 01       	movw	r22, r28
    2f90:	6b 5d       	subi	r22, 0xDB	; 219
    2f92:	7f 4f       	sbci	r23, 0xFF	; 255
    2f94:	ce 01       	movw	r24, r28

	MemoryWrite();
    2f96:	d9 df       	rcall	.-78     	; 0x2f4a <SetPageAddress>
    2f98:	ba df       	rcall	.-140    	; 0x2f0e <MemoryWrite>
	
}
    2f9a:	df 91       	pop	r29
    2f9c:	cf 91       	pop	r28
    2f9e:	08 95       	ret

00002fa0 <setDisplayLetterFont>:

void setDisplayLetterFont(unsigned int X_Position, unsigned int Y_Position)
{
    2fa0:	cf 93       	push	r28
    2fa2:	df 93       	push	r29
    2fa4:	eb 01       	movw	r28, r22
	unsigned int Set_start_row = 0x00 | Y_Position;

	unsigned int Set_end_column = Set_start_column + Letter_Font_Width-1; //(bytes -1 bit) 8 pixels = 1 byte, 16 pixels = 2 bytes
	unsigned int Set_end_row = Set_start_row + Letter_Font_Height;
	
	SetColumnAddress(Set_start_column, Set_end_column);
    2fa6:	bc 01       	movw	r22, r24
    2fa8:	61 5f       	subi	r22, 0xF1	; 241
    2faa:	7f 4f       	sbci	r23, 0xFF	; 255
    2fac:	b3 df       	rcall	.-154    	; 0x2f14 <SetColumnAddress>
	
	SetPageAddress(Set_start_row, Set_end_row);
    2fae:	be 01       	movw	r22, r28
    2fb0:	6b 5e       	subi	r22, 0xEB	; 235
    2fb2:	7f 4f       	sbci	r23, 0xFF	; 255
    2fb4:	ce 01       	movw	r24, r28

	MemoryWrite();
    2fb6:	c9 df       	rcall	.-110    	; 0x2f4a <SetPageAddress>
    2fb8:	aa df       	rcall	.-172    	; 0x2f0e <MemoryWrite>
	
}
    2fba:	df 91       	pop	r29
    2fbc:	cf 91       	pop	r28
    2fbe:	08 95       	ret

00002fc0 <setDisplayDotFont>:

void setDisplayDotFont(unsigned int X_Position, unsigned int Y_Position)
{
    2fc0:	cf 93       	push	r28
    2fc2:	df 93       	push	r29
    2fc4:	eb 01       	movw	r28, r22
	unsigned int Set_start_row = 0x00 | Y_Position;

	unsigned int Set_end_column = Set_start_column + Dot_Font_Width-1; //(bytes -1 bit) 8 pixels = 1 byte, 16 pixels = 2 bytes
	unsigned int Set_end_row = Set_start_row + Dot_Font_Height;
	
	SetColumnAddress(Set_start_column, Set_end_column);
    2fc6:	bc 01       	movw	r22, r24
    2fc8:	69 5f       	subi	r22, 0xF9	; 249
    2fca:	7f 4f       	sbci	r23, 0xFF	; 255
    2fcc:	a3 df       	rcall	.-186    	; 0x2f14 <SetColumnAddress>
	
	SetPageAddress(Set_start_row, Set_end_row);
    2fce:	be 01       	movw	r22, r28
    2fd0:	68 5f       	subi	r22, 0xF8	; 248
    2fd2:	7f 4f       	sbci	r23, 0xFF	; 255
    2fd4:	ce 01       	movw	r24, r28

	MemoryWrite();
    2fd6:	b9 df       	rcall	.-142    	; 0x2f4a <SetPageAddress>
    2fd8:	9a df       	rcall	.-204    	; 0x2f0e <MemoryWrite>
	
}
    2fda:	df 91       	pop	r29
    2fdc:	cf 91       	pop	r28
    2fde:	08 95       	ret

00002fe0 <setDisplayPromilleFont>:

void setDisplayPromilleFont(unsigned X_Position, unsigned int Y_Position, unsigned int ciphers)
{
    2fe0:	cf 93       	push	r28
    2fe2:	df 93       	push	r29
    2fe4:	eb 01       	movw	r28, r22
	unsigned int Set_start_row = 0x00 | Y_Position;

	unsigned int Set_end_column = Set_start_column + (Number_Font_Width-1)*(ciphers+1); //(bytes -1 bit) 8 pixels = 1 byte, 16 pixels = 2 bytes
	unsigned int Set_end_row = Set_start_row + Number_Font_Height;
	
	SetColumnAddress(Set_start_column, Set_end_column);
    2fe6:	4f 5f       	subi	r20, 0xFF	; 255
    2fe8:	5f 4f       	sbci	r21, 0xFF	; 255
    2fea:	27 e1       	ldi	r18, 0x17	; 23
    2fec:	24 9f       	mul	r18, r20
    2fee:	b0 01       	movw	r22, r0
    2ff0:	25 9f       	mul	r18, r21
    2ff2:	70 0d       	add	r23, r0
    2ff4:	11 24       	eor	r1, r1
    2ff6:	68 0f       	add	r22, r24
    2ff8:	79 1f       	adc	r23, r25
    2ffa:	8c df       	rcall	.-232    	; 0x2f14 <SetColumnAddress>
	
	SetPageAddress(Set_start_row, Set_end_row);
    2ffc:	be 01       	movw	r22, r28
    2ffe:	6b 5d       	subi	r22, 0xDB	; 219
    3000:	7f 4f       	sbci	r23, 0xFF	; 255
    3002:	ce 01       	movw	r24, r28

	MemoryWrite();
    3004:	a2 df       	rcall	.-188    	; 0x2f4a <SetPageAddress>
    3006:	83 df       	rcall	.-250    	; 0x2f0e <MemoryWrite>

}
    3008:	df 91       	pop	r29
    300a:	cf 91       	pop	r28
    300c:	08 95       	ret

0000300e <clearPromille>:

unsigned int clearPromille(unsigned int X_Position, unsigned int Y_Position, unsigned char colour, unsigned int ciphers)
{
    300e:	cf 92       	push	r12
    3010:	df 92       	push	r13
    3012:	ef 92       	push	r14
    3014:	ff 92       	push	r15
    3016:	cf 93       	push	r28
    3018:	c4 2f       	mov	r28, r20
	static long int i;
	Background_Colour = 0x00 | colour;
    301a:	50 e0       	ldi	r21, 0x00	; 0
    301c:	50 93 75 11 	sts	0x1175, r21	; 0x801175 <Background_Colour+0x1>
    3020:	40 93 74 11 	sts	0x1174, r20	; 0x801174 <Background_Colour>
	
	setDisplayPromilleFont(X_Position, Y_Position, ciphers);
    3024:	a9 01       	movw	r20, r18
    3026:	dc df       	rcall	.-72     	; 0x2fe0 <setDisplayPromilleFont>

	WriteCommand(0x2C); //Write Memory Start
    3028:	8c e2       	ldi	r24, 0x2C	; 44
    302a:	48 df       	rcall	.-368    	; 0x2ebc <WriteCommand>

	switch (colour)  {
    302c:	4c 2f       	mov	r20, r28
    302e:	50 e0       	ldi	r21, 0x00	; 0
    3030:	40 31       	cpi	r20, 0x10	; 16
    3032:	51 05       	cpc	r21, r1
    3034:	08 f0       	brcs	.+2      	; 0x3038 <clearPromille+0x2a>
    3036:	b6 c1       	rjmp	.+876    	; 0x33a4 <clearPromille+0x396>
    3038:	fa 01       	movw	r30, r20
    303a:	88 27       	eor	r24, r24
    303c:	ee 58       	subi	r30, 0x8E	; 142
    303e:	ff 4f       	sbci	r31, 0xFF	; 255
    3040:	8f 4f       	sbci	r24, 0xFF	; 255
    3042:	0c 94 b9 26 	jmp	0x4d72	; 0x4d72 <__tablejump2__>
    3046:	c1 2c       	mov	r12, r1
    3048:	d1 2c       	mov	r13, r1
    304a:	76 01       	movw	r14, r12
    304c:	c3 94       	inc	r12
	unsigned int data = 0;
	data |= Red << 11;
	data |= Green << 5;
	data |= Blue;
	
	WriteData(data);
    304e:	80 e0       	ldi	r24, 0x00	; 0
    3050:	90 e0       	ldi	r25, 0x00	; 0
    3052:	3c df       	rcall	.-392    	; 0x2ecc <WriteData>

	WriteCommand(0x2C); //Write Memory Start

	switch (colour)  {

		case 0:     for(i=0;i<76800;i++){
    3054:	c0 92 4d 11 	sts	0x114D, r12	; 0x80114d <i.2425>
    3058:	d0 92 4e 11 	sts	0x114E, r13	; 0x80114e <i.2425+0x1>
    305c:	e0 92 4f 11 	sts	0x114F, r14	; 0x80114f <i.2425+0x2>
    3060:	f0 92 50 11 	sts	0x1150, r15	; 0x801150 <i.2425+0x3>
    3064:	8f ef       	ldi	r24, 0xFF	; 255
    3066:	c8 1a       	sub	r12, r24
    3068:	d8 0a       	sbc	r13, r24
    306a:	e8 0a       	sbc	r14, r24
    306c:	f8 0a       	sbc	r15, r24
    306e:	81 e0       	ldi	r24, 0x01	; 1
    3070:	c8 16       	cp	r12, r24
    3072:	8c e2       	ldi	r24, 0x2C	; 44
    3074:	d8 06       	cpc	r13, r24
    3076:	81 e0       	ldi	r24, 0x01	; 1
    3078:	e8 06       	cpc	r14, r24
    307a:	f1 04       	cpc	r15, r1
    307c:	41 f7       	brne	.-48     	; 0x304e <clearPromille+0x40>
    307e:	ae c1       	rjmp	.+860    	; 0x33dc <clearPromille+0x3ce>
	
	setDisplayPromilleFont(X_Position, Y_Position, ciphers);

	WriteCommand(0x2C); //Write Memory Start

	switch (colour)  {
    3080:	c1 2c       	mov	r12, r1
    3082:	d1 2c       	mov	r13, r1
    3084:	76 01       	movw	r14, r12
	unsigned int data = 0;
	data |= Red << 11;
	data |= Green << 5;
	data |= Blue;
	
	WriteData(data);
    3086:	c3 94       	inc	r12
    3088:	80 e0       	ldi	r24, 0x00	; 0
    308a:	98 ef       	ldi	r25, 0xF8	; 248
    308c:	1f df       	rcall	.-450    	; 0x2ecc <WriteData>
	switch (colour)  {

		case 0:     for(i=0;i<76800;i++){
			Black_Out;
		} break;
		case 2:     for(i=0;i<76800;i++){
    308e:	c0 92 4d 11 	sts	0x114D, r12	; 0x80114d <i.2425>
    3092:	d0 92 4e 11 	sts	0x114E, r13	; 0x80114e <i.2425+0x1>
    3096:	e0 92 4f 11 	sts	0x114F, r14	; 0x80114f <i.2425+0x2>
    309a:	f0 92 50 11 	sts	0x1150, r15	; 0x801150 <i.2425+0x3>
    309e:	8f ef       	ldi	r24, 0xFF	; 255
    30a0:	c8 1a       	sub	r12, r24
    30a2:	d8 0a       	sbc	r13, r24
    30a4:	e8 0a       	sbc	r14, r24
    30a6:	f8 0a       	sbc	r15, r24
    30a8:	81 e0       	ldi	r24, 0x01	; 1
    30aa:	c8 16       	cp	r12, r24
    30ac:	8c e2       	ldi	r24, 0x2C	; 44
    30ae:	d8 06       	cpc	r13, r24
    30b0:	81 e0       	ldi	r24, 0x01	; 1
    30b2:	e8 06       	cpc	r14, r24
    30b4:	f1 04       	cpc	r15, r1
    30b6:	41 f7       	brne	.-48     	; 0x3088 <clearPromille+0x7a>
    30b8:	91 c1       	rjmp	.+802    	; 0x33dc <clearPromille+0x3ce>
	
	setDisplayPromilleFont(X_Position, Y_Position, ciphers);

	WriteCommand(0x2C); //Write Memory Start

	switch (colour)  {
    30ba:	c1 2c       	mov	r12, r1
    30bc:	d1 2c       	mov	r13, r1
    30be:	76 01       	movw	r14, r12
	unsigned int data = 0;
	data |= Red << 11;
	data |= Green << 5;
	data |= Blue;
	
	WriteData(data);
    30c0:	c3 94       	inc	r12
    30c2:	80 e6       	ldi	r24, 0x60	; 96
    30c4:	9b ef       	ldi	r25, 0xFB	; 251
    30c6:	02 df       	rcall	.-508    	; 0x2ecc <WriteData>
			Black_Out;
		} break;
		case 2:     for(i=0;i<76800;i++){
			Red_Out;
		} break;
		case 3:     for(i=0;i<76800;i++){
    30c8:	c0 92 4d 11 	sts	0x114D, r12	; 0x80114d <i.2425>
    30cc:	d0 92 4e 11 	sts	0x114E, r13	; 0x80114e <i.2425+0x1>
    30d0:	e0 92 4f 11 	sts	0x114F, r14	; 0x80114f <i.2425+0x2>
    30d4:	f0 92 50 11 	sts	0x1150, r15	; 0x801150 <i.2425+0x3>
    30d8:	8f ef       	ldi	r24, 0xFF	; 255
    30da:	c8 1a       	sub	r12, r24
    30dc:	d8 0a       	sbc	r13, r24
    30de:	e8 0a       	sbc	r14, r24
    30e0:	f8 0a       	sbc	r15, r24
    30e2:	81 e0       	ldi	r24, 0x01	; 1
    30e4:	c8 16       	cp	r12, r24
    30e6:	8c e2       	ldi	r24, 0x2C	; 44
    30e8:	d8 06       	cpc	r13, r24
    30ea:	81 e0       	ldi	r24, 0x01	; 1
    30ec:	e8 06       	cpc	r14, r24
    30ee:	f1 04       	cpc	r15, r1
    30f0:	41 f7       	brne	.-48     	; 0x30c2 <clearPromille+0xb4>
    30f2:	74 c1       	rjmp	.+744    	; 0x33dc <clearPromille+0x3ce>
	
	setDisplayPromilleFont(X_Position, Y_Position, ciphers);

	WriteCommand(0x2C); //Write Memory Start

	switch (colour)  {
    30f4:	c1 2c       	mov	r12, r1
    30f6:	d1 2c       	mov	r13, r1
    30f8:	76 01       	movw	r14, r12
	unsigned int data = 0;
	data |= Red << 11;
	data |= Green << 5;
	data |= Blue;
	
	WriteData(data);
    30fa:	c3 94       	inc	r12
    30fc:	80 ee       	ldi	r24, 0xE0	; 224
    30fe:	9f ef       	ldi	r25, 0xFF	; 255
    3100:	e5 de       	rcall	.-566    	; 0x2ecc <WriteData>
			Red_Out;
		} break;
		case 3:     for(i=0;i<76800;i++){
			Orange_Out;
		} break;
		case 4:     for(i=0;i<76800;i++){
    3102:	c0 92 4d 11 	sts	0x114D, r12	; 0x80114d <i.2425>
    3106:	d0 92 4e 11 	sts	0x114E, r13	; 0x80114e <i.2425+0x1>
    310a:	e0 92 4f 11 	sts	0x114F, r14	; 0x80114f <i.2425+0x2>
    310e:	f0 92 50 11 	sts	0x1150, r15	; 0x801150 <i.2425+0x3>
    3112:	8f ef       	ldi	r24, 0xFF	; 255
    3114:	c8 1a       	sub	r12, r24
    3116:	d8 0a       	sbc	r13, r24
    3118:	e8 0a       	sbc	r14, r24
    311a:	f8 0a       	sbc	r15, r24
    311c:	81 e0       	ldi	r24, 0x01	; 1
    311e:	c8 16       	cp	r12, r24
    3120:	8c e2       	ldi	r24, 0x2C	; 44
    3122:	d8 06       	cpc	r13, r24
    3124:	81 e0       	ldi	r24, 0x01	; 1
    3126:	e8 06       	cpc	r14, r24
    3128:	f1 04       	cpc	r15, r1
    312a:	41 f7       	brne	.-48     	; 0x30fc <clearPromille+0xee>
	
	setDisplayPromilleFont(X_Position, Y_Position, ciphers);

	WriteCommand(0x2C); //Write Memory Start

	switch (colour)  {
    312c:	57 c1       	rjmp	.+686    	; 0x33dc <clearPromille+0x3ce>
    312e:	c1 2c       	mov	r12, r1
    3130:	d1 2c       	mov	r13, r1
	unsigned int data = 0;
	data |= Red << 11;
	data |= Green << 5;
	data |= Blue;
	
	WriteData(data);
    3132:	76 01       	movw	r14, r12
    3134:	80 ee       	ldi	r24, 0xE0	; 224
    3136:	9f e1       	ldi	r25, 0x1F	; 31
    3138:	c9 de       	rcall	.-622    	; 0x2ecc <WriteData>
			Orange_Out;
		} break;
		case 4:     for(i=0;i<76800;i++){
			Yellow_Out;
		} break;
		case 5:     for(i=0;i<76800;i++){
    313a:	8f ef       	ldi	r24, 0xFF	; 255
    313c:	c8 1a       	sub	r12, r24
    313e:	d8 0a       	sbc	r13, r24
    3140:	e8 0a       	sbc	r14, r24
    3142:	f8 0a       	sbc	r15, r24
    3144:	c0 92 4d 11 	sts	0x114D, r12	; 0x80114d <i.2425>
    3148:	d0 92 4e 11 	sts	0x114E, r13	; 0x80114e <i.2425+0x1>
    314c:	e0 92 4f 11 	sts	0x114F, r14	; 0x80114f <i.2425+0x2>
    3150:	f0 92 50 11 	sts	0x1150, r15	; 0x801150 <i.2425+0x3>
    3154:	c1 14       	cp	r12, r1
    3156:	8c e2       	ldi	r24, 0x2C	; 44
    3158:	d8 06       	cpc	r13, r24
    315a:	81 e0       	ldi	r24, 0x01	; 1
    315c:	e8 06       	cpc	r14, r24
    315e:	f1 04       	cpc	r15, r1
    3160:	49 f7       	brne	.-46     	; 0x3134 <clearPromille+0x126>
	
	setDisplayPromilleFont(X_Position, Y_Position, ciphers);

	WriteCommand(0x2C); //Write Memory Start

	switch (colour)  {
    3162:	3c c1       	rjmp	.+632    	; 0x33dc <clearPromille+0x3ce>
    3164:	c1 2c       	mov	r12, r1
    3166:	d1 2c       	mov	r13, r1
    3168:	76 01       	movw	r14, r12
	unsigned int data = 0;
	data |= Red << 11;
	data |= Green << 5;
	data |= Blue;
	
	WriteData(data);
    316a:	c3 94       	inc	r12
    316c:	8f ef       	ldi	r24, 0xFF	; 255
    316e:	90 e0       	ldi	r25, 0x00	; 0
    3170:	ad de       	rcall	.-678    	; 0x2ecc <WriteData>
			Yellow_Out;
		} break;
		case 5:     for(i=0;i<76800;i++){
			Green_Out;
		} break;
		case 6:     for(i=0;i<76800;i++){
    3172:	c0 92 4d 11 	sts	0x114D, r12	; 0x80114d <i.2425>
    3176:	d0 92 4e 11 	sts	0x114E, r13	; 0x80114e <i.2425+0x1>
    317a:	e0 92 4f 11 	sts	0x114F, r14	; 0x80114f <i.2425+0x2>
    317e:	f0 92 50 11 	sts	0x1150, r15	; 0x801150 <i.2425+0x3>
    3182:	8f ef       	ldi	r24, 0xFF	; 255
    3184:	c8 1a       	sub	r12, r24
    3186:	d8 0a       	sbc	r13, r24
    3188:	e8 0a       	sbc	r14, r24
    318a:	f8 0a       	sbc	r15, r24
    318c:	81 e0       	ldi	r24, 0x01	; 1
    318e:	c8 16       	cp	r12, r24
    3190:	8c e2       	ldi	r24, 0x2C	; 44
    3192:	d8 06       	cpc	r13, r24
    3194:	81 e0       	ldi	r24, 0x01	; 1
    3196:	e8 06       	cpc	r14, r24
    3198:	f1 04       	cpc	r15, r1
    319a:	41 f7       	brne	.-48     	; 0x316c <clearPromille+0x15e>
	
	setDisplayPromilleFont(X_Position, Y_Position, ciphers);

	WriteCommand(0x2C); //Write Memory Start

	switch (colour)  {
    319c:	1f c1       	rjmp	.+574    	; 0x33dc <clearPromille+0x3ce>
    319e:	c1 2c       	mov	r12, r1
    31a0:	d1 2c       	mov	r13, r1
    31a2:	76 01       	movw	r14, r12
	unsigned int data = 0;
	data |= Red << 11;
	data |= Green << 5;
	data |= Blue;
	
	WriteData(data);
    31a4:	c3 94       	inc	r12
    31a6:	8f ef       	ldi	r24, 0xFF	; 255
    31a8:	90 e2       	ldi	r25, 0x20	; 32
    31aa:	90 de       	rcall	.-736    	; 0x2ecc <WriteData>
			Green_Out;
		} break;
		case 6:     for(i=0;i<76800;i++){
			Blue_Out;
		} break;
		case 7:     for(i=0;i<76800;i++){
    31ac:	c0 92 4d 11 	sts	0x114D, r12	; 0x80114d <i.2425>
    31b0:	d0 92 4e 11 	sts	0x114E, r13	; 0x80114e <i.2425+0x1>
    31b4:	e0 92 4f 11 	sts	0x114F, r14	; 0x80114f <i.2425+0x2>
    31b8:	f0 92 50 11 	sts	0x1150, r15	; 0x801150 <i.2425+0x3>
    31bc:	8f ef       	ldi	r24, 0xFF	; 255
    31be:	c8 1a       	sub	r12, r24
    31c0:	d8 0a       	sbc	r13, r24
    31c2:	e8 0a       	sbc	r14, r24
    31c4:	f8 0a       	sbc	r15, r24
    31c6:	81 e0       	ldi	r24, 0x01	; 1
    31c8:	c8 16       	cp	r12, r24
    31ca:	8c e2       	ldi	r24, 0x2C	; 44
    31cc:	d8 06       	cpc	r13, r24
    31ce:	81 e0       	ldi	r24, 0x01	; 1
    31d0:	e8 06       	cpc	r14, r24
    31d2:	f1 04       	cpc	r15, r1
    31d4:	41 f7       	brne	.-48     	; 0x31a6 <clearPromille+0x198>
	
	setDisplayPromilleFont(X_Position, Y_Position, ciphers);

	WriteCommand(0x2C); //Write Memory Start

	switch (colour)  {
    31d6:	02 c1       	rjmp	.+516    	; 0x33dc <clearPromille+0x3ce>
    31d8:	c1 2c       	mov	r12, r1
    31da:	d1 2c       	mov	r13, r1
    31dc:	76 01       	movw	r14, r12
	unsigned int data = 0;
	data |= Red << 11;
	data |= Green << 5;
	data |= Blue;
	
	WriteData(data);
    31de:	c3 94       	inc	r12
    31e0:	80 e8       	ldi	r24, 0x80	; 128
    31e2:	90 e1       	ldi	r25, 0x10	; 16
    31e4:	73 de       	rcall	.-794    	; 0x2ecc <WriteData>
			Blue_Out;
		} break;
		case 7:     for(i=0;i<76800;i++){
			Violet_Out;
		} break;
		case 8:     for(i=0;i<76800;i++){
    31e6:	c0 92 4d 11 	sts	0x114D, r12	; 0x80114d <i.2425>
    31ea:	d0 92 4e 11 	sts	0x114E, r13	; 0x80114e <i.2425+0x1>
    31ee:	e0 92 4f 11 	sts	0x114F, r14	; 0x80114f <i.2425+0x2>
    31f2:	f0 92 50 11 	sts	0x1150, r15	; 0x801150 <i.2425+0x3>
    31f6:	8f ef       	ldi	r24, 0xFF	; 255
    31f8:	c8 1a       	sub	r12, r24
    31fa:	d8 0a       	sbc	r13, r24
    31fc:	e8 0a       	sbc	r14, r24
    31fe:	f8 0a       	sbc	r15, r24
    3200:	81 e0       	ldi	r24, 0x01	; 1
    3202:	c8 16       	cp	r12, r24
    3204:	8c e2       	ldi	r24, 0x2C	; 44
    3206:	d8 06       	cpc	r13, r24
    3208:	81 e0       	ldi	r24, 0x01	; 1
    320a:	e8 06       	cpc	r14, r24
    320c:	f1 04       	cpc	r15, r1
    320e:	41 f7       	brne	.-48     	; 0x31e0 <clearPromille+0x1d2>
	
	setDisplayPromilleFont(X_Position, Y_Position, ciphers);

	WriteCommand(0x2C); //Write Memory Start

	switch (colour)  {
    3210:	e5 c0       	rjmp	.+458    	; 0x33dc <clearPromille+0x3ce>
    3212:	c1 2c       	mov	r12, r1
    3214:	d1 2c       	mov	r13, r1
    3216:	76 01       	movw	r14, r12
	unsigned int data = 0;
	data |= Red << 11;
	data |= Green << 5;
	data |= Blue;
	
	WriteData(data);
    3218:	c3 94       	inc	r12
    321a:	8f ef       	ldi	r24, 0xFF	; 255
    321c:	9f ef       	ldi	r25, 0xFF	; 255
    321e:	56 de       	rcall	.-852    	; 0x2ecc <WriteData>
			Violet_Out;
		} break;
		case 8:     for(i=0;i<76800;i++){
			Gray_Out;
		} break;
		case 9:     for(i=0;i<76800;i++){
    3220:	c0 92 4d 11 	sts	0x114D, r12	; 0x80114d <i.2425>
    3224:	d0 92 4e 11 	sts	0x114E, r13	; 0x80114e <i.2425+0x1>
    3228:	e0 92 4f 11 	sts	0x114F, r14	; 0x80114f <i.2425+0x2>
    322c:	f0 92 50 11 	sts	0x1150, r15	; 0x801150 <i.2425+0x3>
    3230:	8f ef       	ldi	r24, 0xFF	; 255
    3232:	c8 1a       	sub	r12, r24
    3234:	d8 0a       	sbc	r13, r24
    3236:	e8 0a       	sbc	r14, r24
    3238:	f8 0a       	sbc	r15, r24
    323a:	81 e0       	ldi	r24, 0x01	; 1
    323c:	c8 16       	cp	r12, r24
    323e:	8c e2       	ldi	r24, 0x2C	; 44
    3240:	d8 06       	cpc	r13, r24
    3242:	81 e0       	ldi	r24, 0x01	; 1
    3244:	e8 06       	cpc	r14, r24
    3246:	f1 04       	cpc	r15, r1
    3248:	41 f7       	brne	.-48     	; 0x321a <clearPromille+0x20c>
	
	setDisplayPromilleFont(X_Position, Y_Position, ciphers);

	WriteCommand(0x2C); //Write Memory Start

	switch (colour)  {
    324a:	c8 c0       	rjmp	.+400    	; 0x33dc <clearPromille+0x3ce>
    324c:	c1 2c       	mov	r12, r1
    324e:	d1 2c       	mov	r13, r1
    3250:	76 01       	movw	r14, r12
	unsigned int data = 0;
	data |= Red << 11;
	data |= Green << 5;
	data |= Blue;
	
	WriteData(data);
    3252:	c3 94       	inc	r12
    3254:	8f ef       	ldi	r24, 0xFF	; 255
    3256:	98 ef       	ldi	r25, 0xF8	; 248
    3258:	39 de       	rcall	.-910    	; 0x2ecc <WriteData>
			Gray_Out;
		} break;
		case 9:     for(i=0;i<76800;i++){
			White_Out;
		} break;
		case 10:    for(i=0;i<76800;i++){
    325a:	c0 92 4d 11 	sts	0x114D, r12	; 0x80114d <i.2425>
    325e:	d0 92 4e 11 	sts	0x114E, r13	; 0x80114e <i.2425+0x1>
    3262:	e0 92 4f 11 	sts	0x114F, r14	; 0x80114f <i.2425+0x2>
    3266:	f0 92 50 11 	sts	0x1150, r15	; 0x801150 <i.2425+0x3>
    326a:	8f ef       	ldi	r24, 0xFF	; 255
    326c:	c8 1a       	sub	r12, r24
    326e:	d8 0a       	sbc	r13, r24
    3270:	e8 0a       	sbc	r14, r24
    3272:	f8 0a       	sbc	r15, r24
    3274:	81 e0       	ldi	r24, 0x01	; 1
    3276:	c8 16       	cp	r12, r24
    3278:	8c e2       	ldi	r24, 0x2C	; 44
    327a:	d8 06       	cpc	r13, r24
    327c:	81 e0       	ldi	r24, 0x01	; 1
    327e:	e8 06       	cpc	r14, r24
    3280:	f1 04       	cpc	r15, r1
    3282:	41 f7       	brne	.-48     	; 0x3254 <clearPromille+0x246>
	
	setDisplayPromilleFont(X_Position, Y_Position, ciphers);

	WriteCommand(0x2C); //Write Memory Start

	switch (colour)  {
    3284:	ab c0       	rjmp	.+342    	; 0x33dc <clearPromille+0x3ce>
    3286:	c1 2c       	mov	r12, r1
    3288:	d1 2c       	mov	r13, r1
    328a:	76 01       	movw	r14, r12
	unsigned int data = 0;
	data |= Red << 11;
	data |= Green << 5;
	data |= Blue;
	
	WriteData(data);
    328c:	c3 94       	inc	r12
    328e:	80 ee       	ldi	r24, 0xE0	; 224
    3290:	9f e7       	ldi	r25, 0x7F	; 127
    3292:	1c de       	rcall	.-968    	; 0x2ecc <WriteData>
			White_Out;
		} break;
		case 10:    for(i=0;i<76800;i++){
			Magenta_Out;
		} break;
		case 11:    for(i=0;i<76800;i++){
    3294:	c0 92 4d 11 	sts	0x114D, r12	; 0x80114d <i.2425>
    3298:	d0 92 4e 11 	sts	0x114E, r13	; 0x80114e <i.2425+0x1>
    329c:	e0 92 4f 11 	sts	0x114F, r14	; 0x80114f <i.2425+0x2>
    32a0:	f0 92 50 11 	sts	0x1150, r15	; 0x801150 <i.2425+0x3>
    32a4:	8f ef       	ldi	r24, 0xFF	; 255
    32a6:	c8 1a       	sub	r12, r24
    32a8:	d8 0a       	sbc	r13, r24
    32aa:	e8 0a       	sbc	r14, r24
    32ac:	f8 0a       	sbc	r15, r24
    32ae:	81 e0       	ldi	r24, 0x01	; 1
    32b0:	c8 16       	cp	r12, r24
    32b2:	8c e2       	ldi	r24, 0x2C	; 44
    32b4:	d8 06       	cpc	r13, r24
    32b6:	81 e0       	ldi	r24, 0x01	; 1
    32b8:	e8 06       	cpc	r14, r24
    32ba:	f1 04       	cpc	r15, r1
    32bc:	41 f7       	brne	.-48     	; 0x328e <clearPromille+0x280>
	
	setDisplayPromilleFont(X_Position, Y_Position, ciphers);

	WriteCommand(0x2C); //Write Memory Start

	switch (colour)  {
    32be:	8e c0       	rjmp	.+284    	; 0x33dc <clearPromille+0x3ce>
    32c0:	c1 2c       	mov	r12, r1
    32c2:	d1 2c       	mov	r13, r1
    32c4:	76 01       	movw	r14, r12
	unsigned int data = 0;
	data |= Red << 11;
	data |= Green << 5;
	data |= Blue;
	
	WriteData(data);
    32c6:	c3 94       	inc	r12
    32c8:	8e ec       	ldi	r24, 0xCE	; 206
    32ca:	9f e7       	ldi	r25, 0x7F	; 127
    32cc:	ff dd       	rcall	.-1026   	; 0x2ecc <WriteData>
			Magenta_Out;
		} break;
		case 11:    for(i=0;i<76800;i++){
			Lime_Out;
		} break;
		case 12:    for(i=0;i<76800;i++){
    32ce:	c0 92 4d 11 	sts	0x114D, r12	; 0x80114d <i.2425>
    32d2:	d0 92 4e 11 	sts	0x114E, r13	; 0x80114e <i.2425+0x1>
    32d6:	e0 92 4f 11 	sts	0x114F, r14	; 0x80114f <i.2425+0x2>
    32da:	f0 92 50 11 	sts	0x1150, r15	; 0x801150 <i.2425+0x3>
    32de:	8f ef       	ldi	r24, 0xFF	; 255
    32e0:	c8 1a       	sub	r12, r24
    32e2:	d8 0a       	sbc	r13, r24
    32e4:	e8 0a       	sbc	r14, r24
    32e6:	f8 0a       	sbc	r15, r24
    32e8:	81 e0       	ldi	r24, 0x01	; 1
    32ea:	c8 16       	cp	r12, r24
    32ec:	8c e2       	ldi	r24, 0x2C	; 44
    32ee:	d8 06       	cpc	r13, r24
    32f0:	81 e0       	ldi	r24, 0x01	; 1
    32f2:	e8 06       	cpc	r14, r24
    32f4:	f1 04       	cpc	r15, r1
    32f6:	41 f7       	brne	.-48     	; 0x32c8 <clearPromille+0x2ba>
	
	setDisplayPromilleFont(X_Position, Y_Position, ciphers);

	WriteCommand(0x2C); //Write Memory Start

	switch (colour)  {
    32f8:	71 c0       	rjmp	.+226    	; 0x33dc <clearPromille+0x3ce>
    32fa:	c1 2c       	mov	r12, r1
    32fc:	d1 2c       	mov	r13, r1
    32fe:	76 01       	movw	r14, r12
	unsigned int data = 0;
	data |= Red << 11;
	data |= Green << 5;
	data |= Blue;
	
	WriteData(data);
    3300:	c3 94       	inc	r12
    3302:	8f ef       	ldi	r24, 0xFF	; 255
    3304:	9f e1       	ldi	r25, 0x1F	; 31
    3306:	e2 dd       	rcall	.-1084   	; 0x2ecc <WriteData>
			Lime_Out;
		} break;
		case 12:    for(i=0;i<76800;i++){
			Baby_Powder_Out;
		} break;
		case 13:    for(i=0;i<76800;i++){
    3308:	c0 92 4d 11 	sts	0x114D, r12	; 0x80114d <i.2425>
    330c:	d0 92 4e 11 	sts	0x114E, r13	; 0x80114e <i.2425+0x1>
    3310:	e0 92 4f 11 	sts	0x114F, r14	; 0x80114f <i.2425+0x2>
    3314:	f0 92 50 11 	sts	0x1150, r15	; 0x801150 <i.2425+0x3>
    3318:	8f ef       	ldi	r24, 0xFF	; 255
    331a:	c8 1a       	sub	r12, r24
    331c:	d8 0a       	sbc	r13, r24
    331e:	e8 0a       	sbc	r14, r24
    3320:	f8 0a       	sbc	r15, r24
    3322:	81 e0       	ldi	r24, 0x01	; 1
    3324:	c8 16       	cp	r12, r24
    3326:	8c e2       	ldi	r24, 0x2C	; 44
    3328:	d8 06       	cpc	r13, r24
    332a:	81 e0       	ldi	r24, 0x01	; 1
    332c:	e8 06       	cpc	r14, r24
    332e:	f1 04       	cpc	r15, r1
    3330:	41 f7       	brne	.-48     	; 0x3302 <clearPromille+0x2f4>
	
	setDisplayPromilleFont(X_Position, Y_Position, ciphers);

	WriteCommand(0x2C); //Write Memory Start

	switch (colour)  {
    3332:	54 c0       	rjmp	.+168    	; 0x33dc <clearPromille+0x3ce>
    3334:	c1 2c       	mov	r12, r1
    3336:	d1 2c       	mov	r13, r1
	unsigned int data = 0;
	data |= Red << 11;
	data |= Green << 5;
	data |= Blue;
	
	WriteData(data);
    3338:	76 01       	movw	r14, r12
    333a:	85 ef       	ldi	r24, 0xF5	; 245
    333c:	9e ef       	ldi	r25, 0xFE	; 254
    333e:	c6 dd       	rcall	.-1140   	; 0x2ecc <WriteData>
			Baby_Powder_Out;
		} break;
		case 13:    for(i=0;i<76800;i++){
			Cyan_Out;
		} break;
		case 14:    for(i=0;i<76800;i++){
    3340:	8f ef       	ldi	r24, 0xFF	; 255
    3342:	c8 1a       	sub	r12, r24
    3344:	d8 0a       	sbc	r13, r24
    3346:	e8 0a       	sbc	r14, r24
    3348:	f8 0a       	sbc	r15, r24
    334a:	c0 92 4d 11 	sts	0x114D, r12	; 0x80114d <i.2425>
    334e:	d0 92 4e 11 	sts	0x114E, r13	; 0x80114e <i.2425+0x1>
    3352:	e0 92 4f 11 	sts	0x114F, r14	; 0x80114f <i.2425+0x2>
    3356:	f0 92 50 11 	sts	0x1150, r15	; 0x801150 <i.2425+0x3>
    335a:	c1 14       	cp	r12, r1
    335c:	8c e2       	ldi	r24, 0x2C	; 44
    335e:	d8 06       	cpc	r13, r24
    3360:	81 e0       	ldi	r24, 0x01	; 1
    3362:	e8 06       	cpc	r14, r24
    3364:	f1 04       	cpc	r15, r1
    3366:	49 f7       	brne	.-46     	; 0x333a <clearPromille+0x32c>
	
	setDisplayPromilleFont(X_Position, Y_Position, ciphers);

	WriteCommand(0x2C); //Write Memory Start

	switch (colour)  {
    3368:	39 c0       	rjmp	.+114    	; 0x33dc <clearPromille+0x3ce>
    336a:	c1 2c       	mov	r12, r1
    336c:	d1 2c       	mov	r13, r1
    336e:	76 01       	movw	r14, r12
	unsigned int data = 0;
	data |= Red << 11;
	data |= Green << 5;
	data |= Blue;
	
	WriteData(data);
    3370:	c3 94       	inc	r12
    3372:	87 eb       	ldi	r24, 0xB7	; 183
    3374:	9f e7       	ldi	r25, 0x7F	; 127
    3376:	aa dd       	rcall	.-1196   	; 0x2ecc <WriteData>
			Cyan_Out;
		} break;
		case 14:    for(i=0;i<76800;i++){
			Lavenderblush_Out;
		} break;
		case 15:    for(i=0;i<76800;i++){
    3378:	c0 92 4d 11 	sts	0x114D, r12	; 0x80114d <i.2425>
    337c:	d0 92 4e 11 	sts	0x114E, r13	; 0x80114e <i.2425+0x1>
    3380:	e0 92 4f 11 	sts	0x114F, r14	; 0x80114f <i.2425+0x2>
    3384:	f0 92 50 11 	sts	0x1150, r15	; 0x801150 <i.2425+0x3>
    3388:	8f ef       	ldi	r24, 0xFF	; 255
    338a:	c8 1a       	sub	r12, r24
    338c:	d8 0a       	sbc	r13, r24
    338e:	e8 0a       	sbc	r14, r24
    3390:	f8 0a       	sbc	r15, r24
    3392:	81 e0       	ldi	r24, 0x01	; 1
    3394:	c8 16       	cp	r12, r24
    3396:	8c e2       	ldi	r24, 0x2C	; 44
    3398:	d8 06       	cpc	r13, r24
    339a:	81 e0       	ldi	r24, 0x01	; 1
    339c:	e8 06       	cpc	r14, r24
    339e:	f1 04       	cpc	r15, r1
    33a0:	41 f7       	brne	.-48     	; 0x3372 <clearPromille+0x364>
	
	setDisplayPromilleFont(X_Position, Y_Position, ciphers);

	WriteCommand(0x2C); //Write Memory Start

	switch (colour)  {
    33a2:	1c c0       	rjmp	.+56     	; 0x33dc <clearPromille+0x3ce>
    33a4:	c1 2c       	mov	r12, r1
    33a6:	d1 2c       	mov	r13, r1
    33a8:	76 01       	movw	r14, r12
	unsigned int data = 0;
	data |= Red << 11;
	data |= Green << 5;
	data |= Blue;
	
	WriteData(data);
    33aa:	c3 94       	inc	r12
    33ac:	8e ec       	ldi	r24, 0xCE	; 206
    33ae:	9f e7       	ldi	r25, 0x7F	; 127
    33b0:	8d dd       	rcall	.-1254   	; 0x2ecc <WriteData>
			Lavenderblush_Out;
		} break;
		case 15:    for(i=0;i<76800;i++){
			Beige_Out;
		} break;
		default:    for(i=0;i<76800;i++){
    33b2:	c0 92 4d 11 	sts	0x114D, r12	; 0x80114d <i.2425>
    33b6:	d0 92 4e 11 	sts	0x114E, r13	; 0x80114e <i.2425+0x1>
    33ba:	e0 92 4f 11 	sts	0x114F, r14	; 0x80114f <i.2425+0x2>
    33be:	f0 92 50 11 	sts	0x1150, r15	; 0x801150 <i.2425+0x3>
    33c2:	8f ef       	ldi	r24, 0xFF	; 255
    33c4:	c8 1a       	sub	r12, r24
    33c6:	d8 0a       	sbc	r13, r24
    33c8:	e8 0a       	sbc	r14, r24
    33ca:	f8 0a       	sbc	r15, r24
    33cc:	81 e0       	ldi	r24, 0x01	; 1
    33ce:	c8 16       	cp	r12, r24
    33d0:	8c e2       	ldi	r24, 0x2C	; 44
    33d2:	d8 06       	cpc	r13, r24
    33d4:	81 e0       	ldi	r24, 0x01	; 1
    33d6:	e8 06       	cpc	r14, r24
    33d8:	f1 04       	cpc	r15, r1
    33da:	41 f7       	brne	.-48     	; 0x33ac <clearPromille+0x39e>
			Baby_Powder_Out;
		} break;
	}
	return Background_Colour;
}
    33dc:	80 91 74 11 	lds	r24, 0x1174	; 0x801174 <Background_Colour>
    33e0:	90 91 75 11 	lds	r25, 0x1175	; 0x801175 <Background_Colour+0x1>
    33e4:	cf 91       	pop	r28
    33e6:	ff 90       	pop	r15
    33e8:	ef 90       	pop	r14
    33ea:	df 90       	pop	r13
    33ec:	cf 90       	pop	r12
    33ee:	08 95       	ret

000033f0 <ClearScreen>:

unsigned int ClearScreen(unsigned char colour)
{
    33f0:	cf 92       	push	r12
    33f2:	df 92       	push	r13
    33f4:	ef 92       	push	r14
    33f6:	ff 92       	push	r15
    33f8:	cf 93       	push	r28
    33fa:	c8 2f       	mov	r28, r24
	static long int i;
	Background_Colour = 0x00 | colour;
    33fc:	90 e0       	ldi	r25, 0x00	; 0
    33fe:	90 93 75 11 	sts	0x1175, r25	; 0x801175 <Background_Colour+0x1>
    3402:	80 93 74 11 	sts	0x1174, r24	; 0x801174 <Background_Colour>
	
	SetColumnAddress(0, 239);
    3406:	6f ee       	ldi	r22, 0xEF	; 239
    3408:	70 e0       	ldi	r23, 0x00	; 0
    340a:	80 e0       	ldi	r24, 0x00	; 0
    340c:	90 e0       	ldi	r25, 0x00	; 0
    340e:	82 dd       	rcall	.-1276   	; 0x2f14 <SetColumnAddress>
	SetPageAddress(0, 319);
    3410:	6f e3       	ldi	r22, 0x3F	; 63
    3412:	71 e0       	ldi	r23, 0x01	; 1
    3414:	80 e0       	ldi	r24, 0x00	; 0
    3416:	90 e0       	ldi	r25, 0x00	; 0
    3418:	98 dd       	rcall	.-1232   	; 0x2f4a <SetPageAddress>

	WriteCommand(0x2C); //Write Memory Start
    341a:	8c e2       	ldi	r24, 0x2C	; 44
    341c:	4f dd       	rcall	.-1378   	; 0x2ebc <WriteCommand>
    341e:	8c 2f       	mov	r24, r28

	switch (colour)  {
    3420:	90 e0       	ldi	r25, 0x00	; 0
    3422:	80 31       	cpi	r24, 0x10	; 16
    3424:	91 05       	cpc	r25, r1
    3426:	08 f0       	brcs	.+2      	; 0x342a <ClearScreen+0x3a>
    3428:	b6 c1       	rjmp	.+876    	; 0x3796 <ClearScreen+0x3a6>
    342a:	fc 01       	movw	r30, r24
    342c:	88 27       	eor	r24, r24
    342e:	ee 57       	subi	r30, 0x7E	; 126
    3430:	ff 4f       	sbci	r31, 0xFF	; 255
    3432:	8f 4f       	sbci	r24, 0xFF	; 255
    3434:	0c 94 b9 26 	jmp	0x4d72	; 0x4d72 <__tablejump2__>
    3438:	c1 2c       	mov	r12, r1
    343a:	d1 2c       	mov	r13, r1
    343c:	76 01       	movw	r14, r12
    343e:	c3 94       	inc	r12
	unsigned int data = 0;
	data |= Red << 11;
	data |= Green << 5;
	data |= Blue;
	
	WriteData(data);
    3440:	80 e0       	ldi	r24, 0x00	; 0
    3442:	90 e0       	ldi	r25, 0x00	; 0
    3444:	43 dd       	rcall	.-1402   	; 0x2ecc <WriteData>
    3446:	c0 92 49 11 	sts	0x1149, r12	; 0x801149 <i.2494>

	WriteCommand(0x2C); //Write Memory Start

	switch (colour)  {

		case 0:     for(i=0;i<76800;i++){
    344a:	d0 92 4a 11 	sts	0x114A, r13	; 0x80114a <i.2494+0x1>
    344e:	e0 92 4b 11 	sts	0x114B, r14	; 0x80114b <i.2494+0x2>
    3452:	f0 92 4c 11 	sts	0x114C, r15	; 0x80114c <i.2494+0x3>
    3456:	8f ef       	ldi	r24, 0xFF	; 255
    3458:	c8 1a       	sub	r12, r24
    345a:	d8 0a       	sbc	r13, r24
    345c:	e8 0a       	sbc	r14, r24
    345e:	f8 0a       	sbc	r15, r24
    3460:	81 e0       	ldi	r24, 0x01	; 1
    3462:	c8 16       	cp	r12, r24
    3464:	8c e2       	ldi	r24, 0x2C	; 44
    3466:	d8 06       	cpc	r13, r24
    3468:	81 e0       	ldi	r24, 0x01	; 1
    346a:	e8 06       	cpc	r14, r24
    346c:	f1 04       	cpc	r15, r1
    346e:	41 f7       	brne	.-48     	; 0x3440 <ClearScreen+0x50>
    3470:	ae c1       	rjmp	.+860    	; 0x37ce <ClearScreen+0x3de>
    3472:	c1 2c       	mov	r12, r1
	SetColumnAddress(0, 239);
	SetPageAddress(0, 319);

	WriteCommand(0x2C); //Write Memory Start

	switch (colour)  {
    3474:	d1 2c       	mov	r13, r1
    3476:	76 01       	movw	r14, r12
    3478:	c3 94       	inc	r12
	unsigned int data = 0;
	data |= Red << 11;
	data |= Green << 5;
	data |= Blue;
	
	WriteData(data);
    347a:	80 e0       	ldi	r24, 0x00	; 0
    347c:	98 ef       	ldi	r25, 0xF8	; 248
    347e:	26 dd       	rcall	.-1460   	; 0x2ecc <WriteData>
    3480:	c0 92 49 11 	sts	0x1149, r12	; 0x801149 <i.2494>
	switch (colour)  {

		case 0:     for(i=0;i<76800;i++){
			Black_Out;
		} break;
		case 2:     for(i=0;i<76800;i++){
    3484:	d0 92 4a 11 	sts	0x114A, r13	; 0x80114a <i.2494+0x1>
    3488:	e0 92 4b 11 	sts	0x114B, r14	; 0x80114b <i.2494+0x2>
    348c:	f0 92 4c 11 	sts	0x114C, r15	; 0x80114c <i.2494+0x3>
    3490:	8f ef       	ldi	r24, 0xFF	; 255
    3492:	c8 1a       	sub	r12, r24
    3494:	d8 0a       	sbc	r13, r24
    3496:	e8 0a       	sbc	r14, r24
    3498:	f8 0a       	sbc	r15, r24
    349a:	81 e0       	ldi	r24, 0x01	; 1
    349c:	c8 16       	cp	r12, r24
    349e:	8c e2       	ldi	r24, 0x2C	; 44
    34a0:	d8 06       	cpc	r13, r24
    34a2:	81 e0       	ldi	r24, 0x01	; 1
    34a4:	e8 06       	cpc	r14, r24
    34a6:	f1 04       	cpc	r15, r1
    34a8:	41 f7       	brne	.-48     	; 0x347a <ClearScreen+0x8a>
    34aa:	91 c1       	rjmp	.+802    	; 0x37ce <ClearScreen+0x3de>
    34ac:	c1 2c       	mov	r12, r1
	SetColumnAddress(0, 239);
	SetPageAddress(0, 319);

	WriteCommand(0x2C); //Write Memory Start

	switch (colour)  {
    34ae:	d1 2c       	mov	r13, r1
    34b0:	76 01       	movw	r14, r12
    34b2:	c3 94       	inc	r12
	unsigned int data = 0;
	data |= Red << 11;
	data |= Green << 5;
	data |= Blue;
	
	WriteData(data);
    34b4:	80 e6       	ldi	r24, 0x60	; 96
    34b6:	9b ef       	ldi	r25, 0xFB	; 251
    34b8:	09 dd       	rcall	.-1518   	; 0x2ecc <WriteData>
    34ba:	c0 92 49 11 	sts	0x1149, r12	; 0x801149 <i.2494>
			Black_Out;
		} break;
		case 2:     for(i=0;i<76800;i++){
			Red_Out;
		} break;
		case 3:     for(i=0;i<76800;i++){
    34be:	d0 92 4a 11 	sts	0x114A, r13	; 0x80114a <i.2494+0x1>
    34c2:	e0 92 4b 11 	sts	0x114B, r14	; 0x80114b <i.2494+0x2>
    34c6:	f0 92 4c 11 	sts	0x114C, r15	; 0x80114c <i.2494+0x3>
    34ca:	8f ef       	ldi	r24, 0xFF	; 255
    34cc:	c8 1a       	sub	r12, r24
    34ce:	d8 0a       	sbc	r13, r24
    34d0:	e8 0a       	sbc	r14, r24
    34d2:	f8 0a       	sbc	r15, r24
    34d4:	81 e0       	ldi	r24, 0x01	; 1
    34d6:	c8 16       	cp	r12, r24
    34d8:	8c e2       	ldi	r24, 0x2C	; 44
    34da:	d8 06       	cpc	r13, r24
    34dc:	81 e0       	ldi	r24, 0x01	; 1
    34de:	e8 06       	cpc	r14, r24
    34e0:	f1 04       	cpc	r15, r1
    34e2:	41 f7       	brne	.-48     	; 0x34b4 <ClearScreen+0xc4>
    34e4:	74 c1       	rjmp	.+744    	; 0x37ce <ClearScreen+0x3de>
    34e6:	c1 2c       	mov	r12, r1
	SetColumnAddress(0, 239);
	SetPageAddress(0, 319);

	WriteCommand(0x2C); //Write Memory Start

	switch (colour)  {
    34e8:	d1 2c       	mov	r13, r1
    34ea:	76 01       	movw	r14, r12
    34ec:	c3 94       	inc	r12
	unsigned int data = 0;
	data |= Red << 11;
	data |= Green << 5;
	data |= Blue;
	
	WriteData(data);
    34ee:	80 ee       	ldi	r24, 0xE0	; 224
    34f0:	9f ef       	ldi	r25, 0xFF	; 255
    34f2:	ec dc       	rcall	.-1576   	; 0x2ecc <WriteData>
    34f4:	c0 92 49 11 	sts	0x1149, r12	; 0x801149 <i.2494>
			Red_Out;
		} break;
		case 3:     for(i=0;i<76800;i++){
			Orange_Out;
		} break;
		case 4:     for(i=0;i<76800;i++){
    34f8:	d0 92 4a 11 	sts	0x114A, r13	; 0x80114a <i.2494+0x1>
    34fc:	e0 92 4b 11 	sts	0x114B, r14	; 0x80114b <i.2494+0x2>
    3500:	f0 92 4c 11 	sts	0x114C, r15	; 0x80114c <i.2494+0x3>
    3504:	8f ef       	ldi	r24, 0xFF	; 255
    3506:	c8 1a       	sub	r12, r24
    3508:	d8 0a       	sbc	r13, r24
    350a:	e8 0a       	sbc	r14, r24
    350c:	f8 0a       	sbc	r15, r24
    350e:	81 e0       	ldi	r24, 0x01	; 1
    3510:	c8 16       	cp	r12, r24
    3512:	8c e2       	ldi	r24, 0x2C	; 44
    3514:	d8 06       	cpc	r13, r24
    3516:	81 e0       	ldi	r24, 0x01	; 1
    3518:	e8 06       	cpc	r14, r24
    351a:	f1 04       	cpc	r15, r1
    351c:	41 f7       	brne	.-48     	; 0x34ee <ClearScreen+0xfe>
    351e:	57 c1       	rjmp	.+686    	; 0x37ce <ClearScreen+0x3de>
	SetColumnAddress(0, 239);
	SetPageAddress(0, 319);

	WriteCommand(0x2C); //Write Memory Start

	switch (colour)  {
    3520:	c1 2c       	mov	r12, r1
    3522:	d1 2c       	mov	r13, r1
    3524:	76 01       	movw	r14, r12
	unsigned int data = 0;
	data |= Red << 11;
	data |= Green << 5;
	data |= Blue;
	
	WriteData(data);
    3526:	80 ee       	ldi	r24, 0xE0	; 224
    3528:	9f e1       	ldi	r25, 0x1F	; 31
    352a:	d0 dc       	rcall	.-1632   	; 0x2ecc <WriteData>
    352c:	8f ef       	ldi	r24, 0xFF	; 255
			Orange_Out;
		} break;
		case 4:     for(i=0;i<76800;i++){
			Yellow_Out;
		} break;
		case 5:     for(i=0;i<76800;i++){
    352e:	c8 1a       	sub	r12, r24
    3530:	d8 0a       	sbc	r13, r24
    3532:	e8 0a       	sbc	r14, r24
    3534:	f8 0a       	sbc	r15, r24
    3536:	c0 92 49 11 	sts	0x1149, r12	; 0x801149 <i.2494>
    353a:	d0 92 4a 11 	sts	0x114A, r13	; 0x80114a <i.2494+0x1>
    353e:	e0 92 4b 11 	sts	0x114B, r14	; 0x80114b <i.2494+0x2>
    3542:	f0 92 4c 11 	sts	0x114C, r15	; 0x80114c <i.2494+0x3>
    3546:	c1 14       	cp	r12, r1
    3548:	8c e2       	ldi	r24, 0x2C	; 44
    354a:	d8 06       	cpc	r13, r24
    354c:	81 e0       	ldi	r24, 0x01	; 1
    354e:	e8 06       	cpc	r14, r24
    3550:	f1 04       	cpc	r15, r1
    3552:	49 f7       	brne	.-46     	; 0x3526 <ClearScreen+0x136>
    3554:	3c c1       	rjmp	.+632    	; 0x37ce <ClearScreen+0x3de>
	SetColumnAddress(0, 239);
	SetPageAddress(0, 319);

	WriteCommand(0x2C); //Write Memory Start

	switch (colour)  {
    3556:	c1 2c       	mov	r12, r1
    3558:	d1 2c       	mov	r13, r1
    355a:	76 01       	movw	r14, r12
    355c:	c3 94       	inc	r12
	unsigned int data = 0;
	data |= Red << 11;
	data |= Green << 5;
	data |= Blue;
	
	WriteData(data);
    355e:	8f ef       	ldi	r24, 0xFF	; 255
    3560:	90 e0       	ldi	r25, 0x00	; 0
    3562:	b4 dc       	rcall	.-1688   	; 0x2ecc <WriteData>
    3564:	c0 92 49 11 	sts	0x1149, r12	; 0x801149 <i.2494>
			Yellow_Out;
		} break;
		case 5:     for(i=0;i<76800;i++){
			Green_Out;
		} break;
		case 6:     for(i=0;i<76800;i++){
    3568:	d0 92 4a 11 	sts	0x114A, r13	; 0x80114a <i.2494+0x1>
    356c:	e0 92 4b 11 	sts	0x114B, r14	; 0x80114b <i.2494+0x2>
    3570:	f0 92 4c 11 	sts	0x114C, r15	; 0x80114c <i.2494+0x3>
    3574:	8f ef       	ldi	r24, 0xFF	; 255
    3576:	c8 1a       	sub	r12, r24
    3578:	d8 0a       	sbc	r13, r24
    357a:	e8 0a       	sbc	r14, r24
    357c:	f8 0a       	sbc	r15, r24
    357e:	81 e0       	ldi	r24, 0x01	; 1
    3580:	c8 16       	cp	r12, r24
    3582:	8c e2       	ldi	r24, 0x2C	; 44
    3584:	d8 06       	cpc	r13, r24
    3586:	81 e0       	ldi	r24, 0x01	; 1
    3588:	e8 06       	cpc	r14, r24
    358a:	f1 04       	cpc	r15, r1
    358c:	41 f7       	brne	.-48     	; 0x355e <ClearScreen+0x16e>
    358e:	1f c1       	rjmp	.+574    	; 0x37ce <ClearScreen+0x3de>
	SetColumnAddress(0, 239);
	SetPageAddress(0, 319);

	WriteCommand(0x2C); //Write Memory Start

	switch (colour)  {
    3590:	c1 2c       	mov	r12, r1
    3592:	d1 2c       	mov	r13, r1
    3594:	76 01       	movw	r14, r12
    3596:	c3 94       	inc	r12
	unsigned int data = 0;
	data |= Red << 11;
	data |= Green << 5;
	data |= Blue;
	
	WriteData(data);
    3598:	8f ef       	ldi	r24, 0xFF	; 255
    359a:	90 e2       	ldi	r25, 0x20	; 32
    359c:	97 dc       	rcall	.-1746   	; 0x2ecc <WriteData>
    359e:	c0 92 49 11 	sts	0x1149, r12	; 0x801149 <i.2494>
			Green_Out;
		} break;
		case 6:     for(i=0;i<76800;i++){
			Blue_Out;
		} break;
		case 7:     for(i=0;i<76800;i++){
    35a2:	d0 92 4a 11 	sts	0x114A, r13	; 0x80114a <i.2494+0x1>
    35a6:	e0 92 4b 11 	sts	0x114B, r14	; 0x80114b <i.2494+0x2>
    35aa:	f0 92 4c 11 	sts	0x114C, r15	; 0x80114c <i.2494+0x3>
    35ae:	8f ef       	ldi	r24, 0xFF	; 255
    35b0:	c8 1a       	sub	r12, r24
    35b2:	d8 0a       	sbc	r13, r24
    35b4:	e8 0a       	sbc	r14, r24
    35b6:	f8 0a       	sbc	r15, r24
    35b8:	81 e0       	ldi	r24, 0x01	; 1
    35ba:	c8 16       	cp	r12, r24
    35bc:	8c e2       	ldi	r24, 0x2C	; 44
    35be:	d8 06       	cpc	r13, r24
    35c0:	81 e0       	ldi	r24, 0x01	; 1
    35c2:	e8 06       	cpc	r14, r24
    35c4:	f1 04       	cpc	r15, r1
    35c6:	41 f7       	brne	.-48     	; 0x3598 <ClearScreen+0x1a8>
    35c8:	02 c1       	rjmp	.+516    	; 0x37ce <ClearScreen+0x3de>
	SetColumnAddress(0, 239);
	SetPageAddress(0, 319);

	WriteCommand(0x2C); //Write Memory Start

	switch (colour)  {
    35ca:	c1 2c       	mov	r12, r1
    35cc:	d1 2c       	mov	r13, r1
    35ce:	76 01       	movw	r14, r12
    35d0:	c3 94       	inc	r12
	unsigned int data = 0;
	data |= Red << 11;
	data |= Green << 5;
	data |= Blue;
	
	WriteData(data);
    35d2:	80 e8       	ldi	r24, 0x80	; 128
    35d4:	90 e1       	ldi	r25, 0x10	; 16
    35d6:	7a dc       	rcall	.-1804   	; 0x2ecc <WriteData>
    35d8:	c0 92 49 11 	sts	0x1149, r12	; 0x801149 <i.2494>
			Blue_Out;
		} break;
		case 7:     for(i=0;i<76800;i++){
			Violet_Out;
		} break;
		case 8:     for(i=0;i<76800;i++){
    35dc:	d0 92 4a 11 	sts	0x114A, r13	; 0x80114a <i.2494+0x1>
    35e0:	e0 92 4b 11 	sts	0x114B, r14	; 0x80114b <i.2494+0x2>
    35e4:	f0 92 4c 11 	sts	0x114C, r15	; 0x80114c <i.2494+0x3>
    35e8:	8f ef       	ldi	r24, 0xFF	; 255
    35ea:	c8 1a       	sub	r12, r24
    35ec:	d8 0a       	sbc	r13, r24
    35ee:	e8 0a       	sbc	r14, r24
    35f0:	f8 0a       	sbc	r15, r24
    35f2:	81 e0       	ldi	r24, 0x01	; 1
    35f4:	c8 16       	cp	r12, r24
    35f6:	8c e2       	ldi	r24, 0x2C	; 44
    35f8:	d8 06       	cpc	r13, r24
    35fa:	81 e0       	ldi	r24, 0x01	; 1
    35fc:	e8 06       	cpc	r14, r24
    35fe:	f1 04       	cpc	r15, r1
    3600:	41 f7       	brne	.-48     	; 0x35d2 <ClearScreen+0x1e2>
    3602:	e5 c0       	rjmp	.+458    	; 0x37ce <ClearScreen+0x3de>
	SetColumnAddress(0, 239);
	SetPageAddress(0, 319);

	WriteCommand(0x2C); //Write Memory Start

	switch (colour)  {
    3604:	c1 2c       	mov	r12, r1
    3606:	d1 2c       	mov	r13, r1
    3608:	76 01       	movw	r14, r12
    360a:	c3 94       	inc	r12
	unsigned int data = 0;
	data |= Red << 11;
	data |= Green << 5;
	data |= Blue;
	
	WriteData(data);
    360c:	8f ef       	ldi	r24, 0xFF	; 255
    360e:	9f ef       	ldi	r25, 0xFF	; 255
    3610:	5d dc       	rcall	.-1862   	; 0x2ecc <WriteData>
    3612:	c0 92 49 11 	sts	0x1149, r12	; 0x801149 <i.2494>
			Violet_Out;
		} break;
		case 8:     for(i=0;i<76800;i++){
			Gray_Out;
		} break;
		case 9:     for(i=0;i<76800;i++){
    3616:	d0 92 4a 11 	sts	0x114A, r13	; 0x80114a <i.2494+0x1>
    361a:	e0 92 4b 11 	sts	0x114B, r14	; 0x80114b <i.2494+0x2>
    361e:	f0 92 4c 11 	sts	0x114C, r15	; 0x80114c <i.2494+0x3>
    3622:	8f ef       	ldi	r24, 0xFF	; 255
    3624:	c8 1a       	sub	r12, r24
    3626:	d8 0a       	sbc	r13, r24
    3628:	e8 0a       	sbc	r14, r24
    362a:	f8 0a       	sbc	r15, r24
    362c:	81 e0       	ldi	r24, 0x01	; 1
    362e:	c8 16       	cp	r12, r24
    3630:	8c e2       	ldi	r24, 0x2C	; 44
    3632:	d8 06       	cpc	r13, r24
    3634:	81 e0       	ldi	r24, 0x01	; 1
    3636:	e8 06       	cpc	r14, r24
    3638:	f1 04       	cpc	r15, r1
    363a:	41 f7       	brne	.-48     	; 0x360c <ClearScreen+0x21c>
    363c:	c8 c0       	rjmp	.+400    	; 0x37ce <ClearScreen+0x3de>
	SetColumnAddress(0, 239);
	SetPageAddress(0, 319);

	WriteCommand(0x2C); //Write Memory Start

	switch (colour)  {
    363e:	c1 2c       	mov	r12, r1
    3640:	d1 2c       	mov	r13, r1
    3642:	76 01       	movw	r14, r12
    3644:	c3 94       	inc	r12
	unsigned int data = 0;
	data |= Red << 11;
	data |= Green << 5;
	data |= Blue;
	
	WriteData(data);
    3646:	8f ef       	ldi	r24, 0xFF	; 255
    3648:	98 ef       	ldi	r25, 0xF8	; 248
    364a:	40 dc       	rcall	.-1920   	; 0x2ecc <WriteData>
    364c:	c0 92 49 11 	sts	0x1149, r12	; 0x801149 <i.2494>
			Gray_Out;
		} break;
		case 9:     for(i=0;i<76800;i++){
			White_Out;
		} break;
		case 10:    for(i=0;i<76800;i++){
    3650:	d0 92 4a 11 	sts	0x114A, r13	; 0x80114a <i.2494+0x1>
    3654:	e0 92 4b 11 	sts	0x114B, r14	; 0x80114b <i.2494+0x2>
    3658:	f0 92 4c 11 	sts	0x114C, r15	; 0x80114c <i.2494+0x3>
    365c:	8f ef       	ldi	r24, 0xFF	; 255
    365e:	c8 1a       	sub	r12, r24
    3660:	d8 0a       	sbc	r13, r24
    3662:	e8 0a       	sbc	r14, r24
    3664:	f8 0a       	sbc	r15, r24
    3666:	81 e0       	ldi	r24, 0x01	; 1
    3668:	c8 16       	cp	r12, r24
    366a:	8c e2       	ldi	r24, 0x2C	; 44
    366c:	d8 06       	cpc	r13, r24
    366e:	81 e0       	ldi	r24, 0x01	; 1
    3670:	e8 06       	cpc	r14, r24
    3672:	f1 04       	cpc	r15, r1
    3674:	41 f7       	brne	.-48     	; 0x3646 <ClearScreen+0x256>
    3676:	ab c0       	rjmp	.+342    	; 0x37ce <ClearScreen+0x3de>
	SetColumnAddress(0, 239);
	SetPageAddress(0, 319);

	WriteCommand(0x2C); //Write Memory Start

	switch (colour)  {
    3678:	c1 2c       	mov	r12, r1
    367a:	d1 2c       	mov	r13, r1
    367c:	76 01       	movw	r14, r12
    367e:	c3 94       	inc	r12
	unsigned int data = 0;
	data |= Red << 11;
	data |= Green << 5;
	data |= Blue;
	
	WriteData(data);
    3680:	80 ee       	ldi	r24, 0xE0	; 224
    3682:	9f e7       	ldi	r25, 0x7F	; 127
    3684:	23 dc       	rcall	.-1978   	; 0x2ecc <WriteData>
    3686:	c0 92 49 11 	sts	0x1149, r12	; 0x801149 <i.2494>
			White_Out;
		} break;
		case 10:    for(i=0;i<76800;i++){
			Magenta_Out;
		} break;
		case 11:    for(i=0;i<76800;i++){
    368a:	d0 92 4a 11 	sts	0x114A, r13	; 0x80114a <i.2494+0x1>
    368e:	e0 92 4b 11 	sts	0x114B, r14	; 0x80114b <i.2494+0x2>
    3692:	f0 92 4c 11 	sts	0x114C, r15	; 0x80114c <i.2494+0x3>
    3696:	8f ef       	ldi	r24, 0xFF	; 255
    3698:	c8 1a       	sub	r12, r24
    369a:	d8 0a       	sbc	r13, r24
    369c:	e8 0a       	sbc	r14, r24
    369e:	f8 0a       	sbc	r15, r24
    36a0:	81 e0       	ldi	r24, 0x01	; 1
    36a2:	c8 16       	cp	r12, r24
    36a4:	8c e2       	ldi	r24, 0x2C	; 44
    36a6:	d8 06       	cpc	r13, r24
    36a8:	81 e0       	ldi	r24, 0x01	; 1
    36aa:	e8 06       	cpc	r14, r24
    36ac:	f1 04       	cpc	r15, r1
    36ae:	41 f7       	brne	.-48     	; 0x3680 <ClearScreen+0x290>
    36b0:	8e c0       	rjmp	.+284    	; 0x37ce <ClearScreen+0x3de>
	SetColumnAddress(0, 239);
	SetPageAddress(0, 319);

	WriteCommand(0x2C); //Write Memory Start

	switch (colour)  {
    36b2:	c1 2c       	mov	r12, r1
    36b4:	d1 2c       	mov	r13, r1
    36b6:	76 01       	movw	r14, r12
    36b8:	c3 94       	inc	r12
	unsigned int data = 0;
	data |= Red << 11;
	data |= Green << 5;
	data |= Blue;
	
	WriteData(data);
    36ba:	8e ec       	ldi	r24, 0xCE	; 206
    36bc:	9f e7       	ldi	r25, 0x7F	; 127
    36be:	06 dc       	rcall	.-2036   	; 0x2ecc <WriteData>
    36c0:	c0 92 49 11 	sts	0x1149, r12	; 0x801149 <i.2494>
			Magenta_Out;
		} break;
		case 11:    for(i=0;i<76800;i++){
			Lime_Out;
		} break;
		case 12:    for(i=0;i<76800;i++){
    36c4:	d0 92 4a 11 	sts	0x114A, r13	; 0x80114a <i.2494+0x1>
    36c8:	e0 92 4b 11 	sts	0x114B, r14	; 0x80114b <i.2494+0x2>
    36cc:	f0 92 4c 11 	sts	0x114C, r15	; 0x80114c <i.2494+0x3>
    36d0:	8f ef       	ldi	r24, 0xFF	; 255
    36d2:	c8 1a       	sub	r12, r24
    36d4:	d8 0a       	sbc	r13, r24
    36d6:	e8 0a       	sbc	r14, r24
    36d8:	f8 0a       	sbc	r15, r24
    36da:	81 e0       	ldi	r24, 0x01	; 1
    36dc:	c8 16       	cp	r12, r24
    36de:	8c e2       	ldi	r24, 0x2C	; 44
    36e0:	d8 06       	cpc	r13, r24
    36e2:	81 e0       	ldi	r24, 0x01	; 1
    36e4:	e8 06       	cpc	r14, r24
    36e6:	f1 04       	cpc	r15, r1
    36e8:	41 f7       	brne	.-48     	; 0x36ba <ClearScreen+0x2ca>
    36ea:	71 c0       	rjmp	.+226    	; 0x37ce <ClearScreen+0x3de>
	SetColumnAddress(0, 239);
	SetPageAddress(0, 319);

	WriteCommand(0x2C); //Write Memory Start

	switch (colour)  {
    36ec:	c1 2c       	mov	r12, r1
    36ee:	d1 2c       	mov	r13, r1
    36f0:	76 01       	movw	r14, r12
    36f2:	c3 94       	inc	r12
	unsigned int data = 0;
	data |= Red << 11;
	data |= Green << 5;
	data |= Blue;
	
	WriteData(data);
    36f4:	8f ef       	ldi	r24, 0xFF	; 255
    36f6:	9f e1       	ldi	r25, 0x1F	; 31
    36f8:	e9 db       	rcall	.-2094   	; 0x2ecc <WriteData>
    36fa:	c0 92 49 11 	sts	0x1149, r12	; 0x801149 <i.2494>
			Lime_Out;
		} break;
		case 12:    for(i=0;i<76800;i++){
			Baby_Powder_Out;
		} break;
		case 13:    for(i=0;i<76800;i++){
    36fe:	d0 92 4a 11 	sts	0x114A, r13	; 0x80114a <i.2494+0x1>
    3702:	e0 92 4b 11 	sts	0x114B, r14	; 0x80114b <i.2494+0x2>
    3706:	f0 92 4c 11 	sts	0x114C, r15	; 0x80114c <i.2494+0x3>
    370a:	8f ef       	ldi	r24, 0xFF	; 255
    370c:	c8 1a       	sub	r12, r24
    370e:	d8 0a       	sbc	r13, r24
    3710:	e8 0a       	sbc	r14, r24
    3712:	f8 0a       	sbc	r15, r24
    3714:	81 e0       	ldi	r24, 0x01	; 1
    3716:	c8 16       	cp	r12, r24
    3718:	8c e2       	ldi	r24, 0x2C	; 44
    371a:	d8 06       	cpc	r13, r24
    371c:	81 e0       	ldi	r24, 0x01	; 1
    371e:	e8 06       	cpc	r14, r24
    3720:	f1 04       	cpc	r15, r1
    3722:	41 f7       	brne	.-48     	; 0x36f4 <ClearScreen+0x304>
    3724:	54 c0       	rjmp	.+168    	; 0x37ce <ClearScreen+0x3de>
	SetColumnAddress(0, 239);
	SetPageAddress(0, 319);

	WriteCommand(0x2C); //Write Memory Start

	switch (colour)  {
    3726:	c1 2c       	mov	r12, r1
    3728:	d1 2c       	mov	r13, r1
    372a:	76 01       	movw	r14, r12
	unsigned int data = 0;
	data |= Red << 11;
	data |= Green << 5;
	data |= Blue;
	
	WriteData(data);
    372c:	85 ef       	ldi	r24, 0xF5	; 245
    372e:	9e ef       	ldi	r25, 0xFE	; 254
    3730:	cd db       	rcall	.-2150   	; 0x2ecc <WriteData>
    3732:	8f ef       	ldi	r24, 0xFF	; 255
			Baby_Powder_Out;
		} break;
		case 13:    for(i=0;i<76800;i++){
			Cyan_Out;
		} break;
		case 14:    for(i=0;i<76800;i++){
    3734:	c8 1a       	sub	r12, r24
    3736:	d8 0a       	sbc	r13, r24
    3738:	e8 0a       	sbc	r14, r24
    373a:	f8 0a       	sbc	r15, r24
    373c:	c0 92 49 11 	sts	0x1149, r12	; 0x801149 <i.2494>
    3740:	d0 92 4a 11 	sts	0x114A, r13	; 0x80114a <i.2494+0x1>
    3744:	e0 92 4b 11 	sts	0x114B, r14	; 0x80114b <i.2494+0x2>
    3748:	f0 92 4c 11 	sts	0x114C, r15	; 0x80114c <i.2494+0x3>
    374c:	c1 14       	cp	r12, r1
    374e:	8c e2       	ldi	r24, 0x2C	; 44
    3750:	d8 06       	cpc	r13, r24
    3752:	81 e0       	ldi	r24, 0x01	; 1
    3754:	e8 06       	cpc	r14, r24
    3756:	f1 04       	cpc	r15, r1
    3758:	49 f7       	brne	.-46     	; 0x372c <ClearScreen+0x33c>
    375a:	39 c0       	rjmp	.+114    	; 0x37ce <ClearScreen+0x3de>
	SetColumnAddress(0, 239);
	SetPageAddress(0, 319);

	WriteCommand(0x2C); //Write Memory Start

	switch (colour)  {
    375c:	c1 2c       	mov	r12, r1
    375e:	d1 2c       	mov	r13, r1
    3760:	76 01       	movw	r14, r12
    3762:	c3 94       	inc	r12
	unsigned int data = 0;
	data |= Red << 11;
	data |= Green << 5;
	data |= Blue;
	
	WriteData(data);
    3764:	87 eb       	ldi	r24, 0xB7	; 183
    3766:	9f e7       	ldi	r25, 0x7F	; 127
    3768:	b1 db       	rcall	.-2206   	; 0x2ecc <WriteData>
    376a:	c0 92 49 11 	sts	0x1149, r12	; 0x801149 <i.2494>
			Cyan_Out;
		} break;
		case 14:    for(i=0;i<76800;i++){
			Lavenderblush_Out;
		} break;
		case 15:    for(i=0;i<76800;i++){
    376e:	d0 92 4a 11 	sts	0x114A, r13	; 0x80114a <i.2494+0x1>
    3772:	e0 92 4b 11 	sts	0x114B, r14	; 0x80114b <i.2494+0x2>
    3776:	f0 92 4c 11 	sts	0x114C, r15	; 0x80114c <i.2494+0x3>
    377a:	8f ef       	ldi	r24, 0xFF	; 255
    377c:	c8 1a       	sub	r12, r24
    377e:	d8 0a       	sbc	r13, r24
    3780:	e8 0a       	sbc	r14, r24
    3782:	f8 0a       	sbc	r15, r24
    3784:	81 e0       	ldi	r24, 0x01	; 1
    3786:	c8 16       	cp	r12, r24
    3788:	8c e2       	ldi	r24, 0x2C	; 44
    378a:	d8 06       	cpc	r13, r24
    378c:	81 e0       	ldi	r24, 0x01	; 1
    378e:	e8 06       	cpc	r14, r24
    3790:	f1 04       	cpc	r15, r1
    3792:	41 f7       	brne	.-48     	; 0x3764 <ClearScreen+0x374>
    3794:	1c c0       	rjmp	.+56     	; 0x37ce <ClearScreen+0x3de>
	SetColumnAddress(0, 239);
	SetPageAddress(0, 319);

	WriteCommand(0x2C); //Write Memory Start

	switch (colour)  {
    3796:	c1 2c       	mov	r12, r1
    3798:	d1 2c       	mov	r13, r1
    379a:	76 01       	movw	r14, r12
    379c:	c3 94       	inc	r12
	unsigned int data = 0;
	data |= Red << 11;
	data |= Green << 5;
	data |= Blue;
	
	WriteData(data);
    379e:	8e ec       	ldi	r24, 0xCE	; 206
    37a0:	9f e7       	ldi	r25, 0x7F	; 127
    37a2:	94 db       	rcall	.-2264   	; 0x2ecc <WriteData>
    37a4:	c0 92 49 11 	sts	0x1149, r12	; 0x801149 <i.2494>
			Lavenderblush_Out;
		} break;
		case 15:    for(i=0;i<76800;i++){
			Beige_Out;
		} break;
		default:    for(i=0;i<76800;i++){
    37a8:	d0 92 4a 11 	sts	0x114A, r13	; 0x80114a <i.2494+0x1>
    37ac:	e0 92 4b 11 	sts	0x114B, r14	; 0x80114b <i.2494+0x2>
    37b0:	f0 92 4c 11 	sts	0x114C, r15	; 0x80114c <i.2494+0x3>
    37b4:	8f ef       	ldi	r24, 0xFF	; 255
    37b6:	c8 1a       	sub	r12, r24
    37b8:	d8 0a       	sbc	r13, r24
    37ba:	e8 0a       	sbc	r14, r24
    37bc:	f8 0a       	sbc	r15, r24
    37be:	81 e0       	ldi	r24, 0x01	; 1
    37c0:	c8 16       	cp	r12, r24
    37c2:	8c e2       	ldi	r24, 0x2C	; 44
    37c4:	d8 06       	cpc	r13, r24
    37c6:	81 e0       	ldi	r24, 0x01	; 1
    37c8:	e8 06       	cpc	r14, r24
    37ca:	f1 04       	cpc	r15, r1
    37cc:	41 f7       	brne	.-48     	; 0x379e <ClearScreen+0x3ae>
    37ce:	80 91 74 11 	lds	r24, 0x1174	; 0x801174 <Background_Colour>
			Baby_Powder_Out;
		} break;
	}
	return Background_Colour;
}
    37d2:	90 91 75 11 	lds	r25, 0x1175	; 0x801175 <Background_Colour+0x1>
    37d6:	cf 91       	pop	r28
    37d8:	ff 90       	pop	r15
    37da:	ef 90       	pop	r14
    37dc:	df 90       	pop	r13
    37de:	cf 90       	pop	r12
    37e0:	08 95       	ret

000037e2 <setpixelColour>:
    37e2:	9c 01       	movw	r18, r24

unsigned int setpixelColour(unsigned int Colour)
{
	unsigned int colour = 0x00 | Colour;

	switch (colour)  {
    37e4:	80 31       	cpi	r24, 0x10	; 16
    37e6:	91 05       	cpc	r25, r1
    37e8:	08 f0       	brcs	.+2      	; 0x37ec <setpixelColour+0xa>
    37ea:	87 c0       	rjmp	.+270    	; 0x38fa <setpixelColour+0x118>
    37ec:	fc 01       	movw	r30, r24
    37ee:	88 27       	eor	r24, r24
    37f0:	ee 56       	subi	r30, 0x6E	; 110
    37f2:	ff 4f       	sbci	r31, 0xFF	; 255
    37f4:	8f 4f       	sbci	r24, 0xFF	; 255
    37f6:	0c 94 b9 26 	jmp	0x4d72	; 0x4d72 <__tablejump2__>

		case 0:     R = 0; G = 0, B = 0;
    37fa:	10 92 79 11 	sts	0x1179, r1	; 0x801179 <R>
    37fe:	10 92 77 11 	sts	0x1177, r1	; 0x801177 <G>
    3802:	10 92 73 11 	sts	0x1173, r1	; 0x801173 <B>
		break;
    3806:	7f c0       	rjmp	.+254    	; 0x3906 <setpixelColour+0x124>
		case 2:     R = 255; G = 0, B = 0;
    3808:	8f ef       	ldi	r24, 0xFF	; 255
    380a:	80 93 79 11 	sts	0x1179, r24	; 0x801179 <R>
    380e:	10 92 77 11 	sts	0x1177, r1	; 0x801177 <G>
    3812:	10 92 73 11 	sts	0x1173, r1	; 0x801173 <B>
		break;
    3816:	77 c0       	rjmp	.+238    	; 0x3906 <setpixelColour+0x124>
		case 3:     R = 255; G = 155, B = 0;
    3818:	8f ef       	ldi	r24, 0xFF	; 255
    381a:	80 93 79 11 	sts	0x1179, r24	; 0x801179 <R>
    381e:	8b e9       	ldi	r24, 0x9B	; 155
    3820:	80 93 77 11 	sts	0x1177, r24	; 0x801177 <G>
    3824:	10 92 73 11 	sts	0x1173, r1	; 0x801173 <B>
		break;
    3828:	6e c0       	rjmp	.+220    	; 0x3906 <setpixelColour+0x124>
		case 4:     R = 255; G = 255, B = 0;
    382a:	8f ef       	ldi	r24, 0xFF	; 255
    382c:	80 93 79 11 	sts	0x1179, r24	; 0x801179 <R>
    3830:	80 93 77 11 	sts	0x1177, r24	; 0x801177 <G>
    3834:	10 92 73 11 	sts	0x1173, r1	; 0x801173 <B>
		break;
    3838:	66 c0       	rjmp	.+204    	; 0x3906 <setpixelColour+0x124>
		case 5:     R = 0; G = 255, B = 0;
    383a:	10 92 79 11 	sts	0x1179, r1	; 0x801179 <R>
    383e:	8f ef       	ldi	r24, 0xFF	; 255
    3840:	80 93 77 11 	sts	0x1177, r24	; 0x801177 <G>
    3844:	10 92 73 11 	sts	0x1173, r1	; 0x801173 <B>
		break;
    3848:	5e c0       	rjmp	.+188    	; 0x3906 <setpixelColour+0x124>
		case 6:     R = 0; G = 0, B = 255;
    384a:	10 92 79 11 	sts	0x1179, r1	; 0x801179 <R>
    384e:	10 92 77 11 	sts	0x1177, r1	; 0x801177 <G>
    3852:	8f ef       	ldi	r24, 0xFF	; 255
    3854:	80 93 73 11 	sts	0x1173, r24	; 0x801173 <B>
		break;
    3858:	56 c0       	rjmp	.+172    	; 0x3906 <setpixelColour+0x124>
		case 7:     R = 196; G = 0, B = 255;
    385a:	84 ec       	ldi	r24, 0xC4	; 196
    385c:	80 93 79 11 	sts	0x1179, r24	; 0x801179 <R>
    3860:	10 92 77 11 	sts	0x1177, r1	; 0x801177 <G>
    3864:	8f ef       	ldi	r24, 0xFF	; 255
    3866:	80 93 73 11 	sts	0x1173, r24	; 0x801173 <B>
		break;
    386a:	4d c0       	rjmp	.+154    	; 0x3906 <setpixelColour+0x124>
		case 8:     R = 128; G = 128, B = 128;
    386c:	80 e8       	ldi	r24, 0x80	; 128
    386e:	80 93 79 11 	sts	0x1179, r24	; 0x801179 <R>
    3872:	80 93 77 11 	sts	0x1177, r24	; 0x801177 <G>
    3876:	80 93 73 11 	sts	0x1173, r24	; 0x801173 <B>
		break;
    387a:	45 c0       	rjmp	.+138    	; 0x3906 <setpixelColour+0x124>
		case 9:     R = 255; G = 255, B = 255;
    387c:	8f ef       	ldi	r24, 0xFF	; 255
    387e:	80 93 79 11 	sts	0x1179, r24	; 0x801179 <R>
    3882:	80 93 77 11 	sts	0x1177, r24	; 0x801177 <G>
    3886:	80 93 73 11 	sts	0x1173, r24	; 0x801173 <B>
		break;
    388a:	3d c0       	rjmp	.+122    	; 0x3906 <setpixelColour+0x124>
		case 10:    R = 255; G = 0, B = 255;
    388c:	8f ef       	ldi	r24, 0xFF	; 255
    388e:	80 93 79 11 	sts	0x1179, r24	; 0x801179 <R>
    3892:	10 92 77 11 	sts	0x1177, r1	; 0x801177 <G>
    3896:	80 93 73 11 	sts	0x1173, r24	; 0x801173 <B>
		break;
    389a:	35 c0       	rjmp	.+106    	; 0x3906 <setpixelColour+0x124>
		case 11:    R = 111; G = 255, B = 0;
    389c:	8f e6       	ldi	r24, 0x6F	; 111
    389e:	80 93 79 11 	sts	0x1179, r24	; 0x801179 <R>
    38a2:	8f ef       	ldi	r24, 0xFF	; 255
    38a4:	80 93 77 11 	sts	0x1177, r24	; 0x801177 <G>
    38a8:	10 92 73 11 	sts	0x1173, r1	; 0x801173 <B>
		break;
    38ac:	2c c0       	rjmp	.+88     	; 0x3906 <setpixelColour+0x124>
		case 12:    R = 141; G = 186, B = 206;
    38ae:	8d e8       	ldi	r24, 0x8D	; 141
    38b0:	80 93 79 11 	sts	0x1179, r24	; 0x801179 <R>
    38b4:	8a eb       	ldi	r24, 0xBA	; 186
    38b6:	80 93 77 11 	sts	0x1177, r24	; 0x801177 <G>
    38ba:	8e ec       	ldi	r24, 0xCE	; 206
    38bc:	80 93 73 11 	sts	0x1173, r24	; 0x801173 <B>
		break;
    38c0:	22 c0       	rjmp	.+68     	; 0x3906 <setpixelColour+0x124>
		case 13:    R = 0; G = 255, B = 255;
    38c2:	10 92 79 11 	sts	0x1179, r1	; 0x801179 <R>
    38c6:	8f ef       	ldi	r24, 0xFF	; 255
    38c8:	80 93 77 11 	sts	0x1177, r24	; 0x801177 <G>
    38cc:	80 93 73 11 	sts	0x1173, r24	; 0x801173 <B>
		break;
    38d0:	1a c0       	rjmp	.+52     	; 0x3906 <setpixelColour+0x124>
		case 14:    R = 255; G = 240, B = 245;
    38d2:	8f ef       	ldi	r24, 0xFF	; 255
    38d4:	80 93 79 11 	sts	0x1179, r24	; 0x801179 <R>
    38d8:	80 ef       	ldi	r24, 0xF0	; 240
    38da:	80 93 77 11 	sts	0x1177, r24	; 0x801177 <G>
    38de:	85 ef       	ldi	r24, 0xF5	; 245
    38e0:	80 93 73 11 	sts	0x1173, r24	; 0x801173 <B>
		break;
    38e4:	10 c0       	rjmp	.+32     	; 0x3906 <setpixelColour+0x124>
		case 15:    R = 207; G = 185, B = 151;
    38e6:	8f ec       	ldi	r24, 0xCF	; 207
    38e8:	80 93 79 11 	sts	0x1179, r24	; 0x801179 <R>
    38ec:	89 eb       	ldi	r24, 0xB9	; 185
    38ee:	80 93 77 11 	sts	0x1177, r24	; 0x801177 <G>
    38f2:	87 e9       	ldi	r24, 0x97	; 151
    38f4:	80 93 73 11 	sts	0x1173, r24	; 0x801173 <B>
		break;
    38f8:	06 c0       	rjmp	.+12     	; 0x3906 <setpixelColour+0x124>
		default:    R = 0; G = 0, B = 0;
    38fa:	10 92 79 11 	sts	0x1179, r1	; 0x801179 <R>
    38fe:	10 92 77 11 	sts	0x1177, r1	; 0x801177 <G>
    3902:	10 92 73 11 	sts	0x1173, r1	; 0x801173 <B>
		break;
	}

	switch (Background_Colour)  {
    3906:	e0 91 74 11 	lds	r30, 0x1174	; 0x801174 <Background_Colour>
    390a:	f0 91 75 11 	lds	r31, 0x1175	; 0x801175 <Background_Colour+0x1>
    390e:	e0 31       	cpi	r30, 0x10	; 16
    3910:	f1 05       	cpc	r31, r1
    3912:	08 f0       	brcs	.+2      	; 0x3916 <setpixelColour+0x134>
    3914:	86 c0       	rjmp	.+268    	; 0x3a22 <setpixelColour+0x240>
    3916:	88 27       	eor	r24, r24
    3918:	ee 55       	subi	r30, 0x5E	; 94
    391a:	ff 4f       	sbci	r31, 0xFF	; 255
    391c:	8f 4f       	sbci	r24, 0xFF	; 255
    391e:	0c 94 b9 26 	jmp	0x4d72	; 0x4d72 <__tablejump2__>

		case 0:     R_back = 0; G_back = 0, B_back = 0;
    3922:	10 92 72 11 	sts	0x1172, r1	; 0x801172 <R_back>
    3926:	10 92 7a 11 	sts	0x117A, r1	; 0x80117a <G_back>
    392a:	10 92 6f 11 	sts	0x116F, r1	; 0x80116f <B_back>
		break;
    392e:	7f c0       	rjmp	.+254    	; 0x3a2e <setpixelColour+0x24c>
		case 2:     R_back = 255; G_back = 0, B_back = 0;
    3930:	8f ef       	ldi	r24, 0xFF	; 255
    3932:	80 93 72 11 	sts	0x1172, r24	; 0x801172 <R_back>
    3936:	10 92 7a 11 	sts	0x117A, r1	; 0x80117a <G_back>
    393a:	10 92 6f 11 	sts	0x116F, r1	; 0x80116f <B_back>
		break;
    393e:	77 c0       	rjmp	.+238    	; 0x3a2e <setpixelColour+0x24c>
		case 3:     R_back = 255; G_back = 155, B_back = 0;
    3940:	8f ef       	ldi	r24, 0xFF	; 255
    3942:	80 93 72 11 	sts	0x1172, r24	; 0x801172 <R_back>
    3946:	8b e9       	ldi	r24, 0x9B	; 155
    3948:	80 93 7a 11 	sts	0x117A, r24	; 0x80117a <G_back>
    394c:	10 92 6f 11 	sts	0x116F, r1	; 0x80116f <B_back>
		break;
    3950:	6e c0       	rjmp	.+220    	; 0x3a2e <setpixelColour+0x24c>
		case 4:     R_back = 255; G_back = 255, B_back = 0;
    3952:	8f ef       	ldi	r24, 0xFF	; 255
    3954:	80 93 72 11 	sts	0x1172, r24	; 0x801172 <R_back>
    3958:	80 93 7a 11 	sts	0x117A, r24	; 0x80117a <G_back>
    395c:	10 92 6f 11 	sts	0x116F, r1	; 0x80116f <B_back>
		break;
    3960:	66 c0       	rjmp	.+204    	; 0x3a2e <setpixelColour+0x24c>
		case 5:     R_back = 0; G_back = 255, B_back = 0;
    3962:	10 92 72 11 	sts	0x1172, r1	; 0x801172 <R_back>
    3966:	8f ef       	ldi	r24, 0xFF	; 255
    3968:	80 93 7a 11 	sts	0x117A, r24	; 0x80117a <G_back>
    396c:	10 92 6f 11 	sts	0x116F, r1	; 0x80116f <B_back>
		break;
    3970:	5e c0       	rjmp	.+188    	; 0x3a2e <setpixelColour+0x24c>
		case 6:     R_back = 0; G_back = 0, B_back = 255;
    3972:	10 92 72 11 	sts	0x1172, r1	; 0x801172 <R_back>
    3976:	10 92 7a 11 	sts	0x117A, r1	; 0x80117a <G_back>
    397a:	8f ef       	ldi	r24, 0xFF	; 255
    397c:	80 93 6f 11 	sts	0x116F, r24	; 0x80116f <B_back>
		break;
    3980:	56 c0       	rjmp	.+172    	; 0x3a2e <setpixelColour+0x24c>
		case 7:     R_back = 196; G_back = 0, B_back = 255;
    3982:	84 ec       	ldi	r24, 0xC4	; 196
    3984:	80 93 72 11 	sts	0x1172, r24	; 0x801172 <R_back>
    3988:	10 92 7a 11 	sts	0x117A, r1	; 0x80117a <G_back>
    398c:	8f ef       	ldi	r24, 0xFF	; 255
    398e:	80 93 6f 11 	sts	0x116F, r24	; 0x80116f <B_back>
		break;
    3992:	4d c0       	rjmp	.+154    	; 0x3a2e <setpixelColour+0x24c>
		case 8:     R_back = 128; G_back = 128, B_back = 128;
    3994:	80 e8       	ldi	r24, 0x80	; 128
    3996:	80 93 72 11 	sts	0x1172, r24	; 0x801172 <R_back>
    399a:	80 93 7a 11 	sts	0x117A, r24	; 0x80117a <G_back>
    399e:	80 93 6f 11 	sts	0x116F, r24	; 0x80116f <B_back>
		break;
    39a2:	45 c0       	rjmp	.+138    	; 0x3a2e <setpixelColour+0x24c>
		case 9:     R_back = 255; G_back = 255, B_back = 255;
    39a4:	8f ef       	ldi	r24, 0xFF	; 255
    39a6:	80 93 72 11 	sts	0x1172, r24	; 0x801172 <R_back>
    39aa:	80 93 7a 11 	sts	0x117A, r24	; 0x80117a <G_back>
    39ae:	80 93 6f 11 	sts	0x116F, r24	; 0x80116f <B_back>
		break;
    39b2:	3d c0       	rjmp	.+122    	; 0x3a2e <setpixelColour+0x24c>
		case 10:    R_back = 255; G_back = 0, B_back = 255;
    39b4:	8f ef       	ldi	r24, 0xFF	; 255
    39b6:	80 93 72 11 	sts	0x1172, r24	; 0x801172 <R_back>
    39ba:	10 92 7a 11 	sts	0x117A, r1	; 0x80117a <G_back>
    39be:	80 93 6f 11 	sts	0x116F, r24	; 0x80116f <B_back>
		break;
    39c2:	35 c0       	rjmp	.+106    	; 0x3a2e <setpixelColour+0x24c>
		case 11:    R_back = 111; G_back = 255, B_back = 0;
    39c4:	8f e6       	ldi	r24, 0x6F	; 111
    39c6:	80 93 72 11 	sts	0x1172, r24	; 0x801172 <R_back>
    39ca:	8f ef       	ldi	r24, 0xFF	; 255
    39cc:	80 93 7a 11 	sts	0x117A, r24	; 0x80117a <G_back>
    39d0:	10 92 6f 11 	sts	0x116F, r1	; 0x80116f <B_back>
		break;
    39d4:	2c c0       	rjmp	.+88     	; 0x3a2e <setpixelColour+0x24c>
		case 12:    R_back = 141; G_back = 186, B_back = 206;
    39d6:	8d e8       	ldi	r24, 0x8D	; 141
    39d8:	80 93 72 11 	sts	0x1172, r24	; 0x801172 <R_back>
    39dc:	8a eb       	ldi	r24, 0xBA	; 186
    39de:	80 93 7a 11 	sts	0x117A, r24	; 0x80117a <G_back>
    39e2:	8e ec       	ldi	r24, 0xCE	; 206
    39e4:	80 93 6f 11 	sts	0x116F, r24	; 0x80116f <B_back>
		break;
    39e8:	22 c0       	rjmp	.+68     	; 0x3a2e <setpixelColour+0x24c>
		case 13:    R_back = 0; G_back = 255, B_back = 255;
    39ea:	10 92 72 11 	sts	0x1172, r1	; 0x801172 <R_back>
    39ee:	8f ef       	ldi	r24, 0xFF	; 255
    39f0:	80 93 7a 11 	sts	0x117A, r24	; 0x80117a <G_back>
    39f4:	80 93 6f 11 	sts	0x116F, r24	; 0x80116f <B_back>
		break;
    39f8:	1a c0       	rjmp	.+52     	; 0x3a2e <setpixelColour+0x24c>
		case 14:    R_back = 255; G_back = 240, B_back = 245;
    39fa:	8f ef       	ldi	r24, 0xFF	; 255
    39fc:	80 93 72 11 	sts	0x1172, r24	; 0x801172 <R_back>
    3a00:	80 ef       	ldi	r24, 0xF0	; 240
    3a02:	80 93 7a 11 	sts	0x117A, r24	; 0x80117a <G_back>
    3a06:	85 ef       	ldi	r24, 0xF5	; 245
    3a08:	80 93 6f 11 	sts	0x116F, r24	; 0x80116f <B_back>
		break;
    3a0c:	10 c0       	rjmp	.+32     	; 0x3a2e <setpixelColour+0x24c>
		case 15:    R_back = 207; G_back = 185, B_back = 151;
    3a0e:	8f ec       	ldi	r24, 0xCF	; 207
    3a10:	80 93 72 11 	sts	0x1172, r24	; 0x801172 <R_back>
    3a14:	89 eb       	ldi	r24, 0xB9	; 185
    3a16:	80 93 7a 11 	sts	0x117A, r24	; 0x80117a <G_back>
    3a1a:	87 e9       	ldi	r24, 0x97	; 151
    3a1c:	80 93 6f 11 	sts	0x116F, r24	; 0x80116f <B_back>
		break;
    3a20:	06 c0       	rjmp	.+12     	; 0x3a2e <setpixelColour+0x24c>
		default:    R_back = 0; G_back = 0, B_back = 0;
    3a22:	10 92 72 11 	sts	0x1172, r1	; 0x801172 <R_back>
    3a26:	10 92 7a 11 	sts	0x117A, r1	; 0x80117a <G_back>
    3a2a:	10 92 6f 11 	sts	0x116F, r1	; 0x80116f <B_back>
	}

	return colour;
	return Background_Colour;
	
}
    3a2e:	c9 01       	movw	r24, r18
    3a30:	08 95       	ret

00003a32 <WriteNumber>:


//Numbers *********************************************************** Numbers *************************************************
void WriteNumber(unsigned int X_pos, unsigned int Y_pos, unsigned int Colour, int NumberToWrite)
{
    3a32:	9f 92       	push	r9
    3a34:	af 92       	push	r10
    3a36:	bf 92       	push	r11
    3a38:	cf 92       	push	r12
    3a3a:	df 92       	push	r13
    3a3c:	ef 92       	push	r14
    3a3e:	ff 92       	push	r15
    3a40:	0f 93       	push	r16
    3a42:	1f 93       	push	r17
    3a44:	cf 93       	push	r28
    3a46:	df 93       	push	r29
    3a48:	8c 01       	movw	r16, r24
    3a4a:	7b 01       	movw	r14, r22
    3a4c:	ca 01       	movw	r24, r20
    3a4e:	e9 01       	movw	r28, r18
	static unsigned char x=0;
	static unsigned char dataout=0;
	static unsigned int i=1;
	static unsigned int jj=0;
	
	setpixelColour(Colour);
    3a50:	c8 de       	rcall	.-624    	; 0x37e2 <setpixelColour>
	setDisplayNumberFont(X_pos,Y_pos);
    3a52:	b7 01       	movw	r22, r14
    3a54:	c8 01       	movw	r24, r16
    3a56:	94 da       	rcall	.-2776   	; 0x2f80 <setDisplayNumberFont>
	
	if(NumberToWrite == 0)
    3a58:	20 97       	sbiw	r28, 0x00	; 0
    3a5a:	09 f0       	breq	.+2      	; 0x3a5e <WriteNumber+0x2c>
    3a5c:	69 c0       	rjmp	.+210    	; 0x3b30 <WriteNumber+0xfe>
	{
		for (jj=Number_Font_Start; jj<Number_Font_Length_Bytes-1; jj++)
    3a5e:	10 92 48 11 	sts	0x1148, r1	; 0x801148 <jj.2607+0x1>
    3a62:	10 92 47 11 	sts	0x1147, r1	; 0x801147 <jj.2607>
    3a66:	0f 2e       	mov	r0, r31
    3a68:	f5 ea       	ldi	r31, 0xA5	; 165
    3a6a:	ef 2e       	mov	r14, r31
    3a6c:	f7 e0       	ldi	r31, 0x07	; 7
    3a6e:	ff 2e       	mov	r15, r31
    3a70:	f0 2d       	mov	r31, r0
    3a72:	aa 24       	eor	r10, r10
    3a74:	a3 94       	inc	r10
    3a76:	b1 2c       	mov	r11, r1
				}
				i=i<<1;

				if (i>=256)
				{
					i=1;
    3a78:	cc 24       	eor	r12, r12
    3a7a:	c3 94       	inc	r12
    3a7c:	d1 2c       	mov	r13, r1
	
	if(NumberToWrite == 0)
	{
		for (jj=Number_Font_Start; jj<Number_Font_Length_Bytes-1; jj++)
		{
			for (x=0; x<8; x++)
    3a7e:	10 92 46 11 	sts	0x1146, r1	; 0x801146 <x.2604>
    3a82:	11 e0       	ldi	r17, 0x01	; 1
			{
				dataout = Number_Font[jj] &i;
    3a84:	c0 91 12 02 	lds	r28, 0x0212	; 0x800212 <i.2606>
    3a88:	d0 91 13 02 	lds	r29, 0x0213	; 0x800213 <i.2606+0x1>
				if (dataout >=1)
    3a8c:	f7 01       	movw	r30, r14
    3a8e:	80 81       	ld	r24, Z
    3a90:	8c 23       	and	r24, r28
    3a92:	a9 f0       	breq	.+42     	; 0x3abe <WriteNumber+0x8c>
// Red 0-31, Green 0-63, Blue 0-31
void WritePixel(unsigned char Red, unsigned char Green, unsigned char Blue)
{
	unsigned int data = 0;
	data |= Red << 11;
	data |= Green << 5;
    3a94:	80 91 79 11 	lds	r24, 0x1179	; 0x801179 <R>
    3a98:	90 e0       	ldi	r25, 0x00	; 0
    3a9a:	98 2f       	mov	r25, r24
    3a9c:	88 27       	eor	r24, r24
    3a9e:	99 0f       	add	r25, r25
    3aa0:	99 0f       	add	r25, r25
    3aa2:	99 0f       	add	r25, r25
    3aa4:	20 91 77 11 	lds	r18, 0x1177	; 0x801177 <G>
    3aa8:	40 e2       	ldi	r20, 0x20	; 32
    3aaa:	24 9f       	mul	r18, r20
    3aac:	90 01       	movw	r18, r0
    3aae:	11 24       	eor	r1, r1
    3ab0:	82 2b       	or	r24, r18
    3ab2:	93 2b       	or	r25, r19
	data |= Blue;
	
	WriteData(data);
    3ab4:	20 91 73 11 	lds	r18, 0x1173	; 0x801173 <B>
    3ab8:	82 2b       	or	r24, r18
    3aba:	08 da       	rcall	.-3056   	; 0x2ecc <WriteData>
    3abc:	14 c0       	rjmp	.+40     	; 0x3ae6 <WriteNumber+0xb4>
// Red 0-31, Green 0-63, Blue 0-31
void WritePixel(unsigned char Red, unsigned char Green, unsigned char Blue)
{
	unsigned int data = 0;
	data |= Red << 11;
	data |= Green << 5;
    3abe:	80 91 72 11 	lds	r24, 0x1172	; 0x801172 <R_back>
    3ac2:	90 e0       	ldi	r25, 0x00	; 0
    3ac4:	98 2f       	mov	r25, r24
    3ac6:	88 27       	eor	r24, r24
    3ac8:	99 0f       	add	r25, r25
    3aca:	99 0f       	add	r25, r25
    3acc:	99 0f       	add	r25, r25
    3ace:	20 91 7a 11 	lds	r18, 0x117A	; 0x80117a <G_back>
    3ad2:	e0 e2       	ldi	r30, 0x20	; 32
    3ad4:	2e 9f       	mul	r18, r30
    3ad6:	90 01       	movw	r18, r0
    3ad8:	11 24       	eor	r1, r1
    3ada:	82 2b       	or	r24, r18
    3adc:	93 2b       	or	r25, r19
	data |= Blue;
	
	WriteData(data);
    3ade:	20 91 6f 11 	lds	r18, 0x116F	; 0x80116f <B_back>
    3ae2:	82 2b       	or	r24, r18
    3ae4:	f3 d9       	rcall	.-3098   	; 0x2ecc <WriteData>
				}
				else
				{
					WritePixel(R_back,G_back,B_back);
				}
				i=i<<1;
    3ae6:	cc 0f       	add	r28, r28
    3ae8:	dd 1f       	adc	r29, r29

				if (i>=256)
    3aea:	cf 3f       	cpi	r28, 0xFF	; 255
    3aec:	d1 05       	cpc	r29, r1
    3aee:	09 f0       	breq	.+2      	; 0x3af2 <WriteNumber+0xc0>
    3af0:	28 f4       	brcc	.+10     	; 0x3afc <WriteNumber+0xca>
				}
				else
				{
					WritePixel(R_back,G_back,B_back);
				}
				i=i<<1;
    3af2:	d0 93 13 02 	sts	0x0213, r29	; 0x800213 <i.2606+0x1>
    3af6:	c0 93 12 02 	sts	0x0212, r28	; 0x800212 <i.2606>
    3afa:	04 c0       	rjmp	.+8      	; 0x3b04 <WriteNumber+0xd2>

				if (i>=256)
				{
					i=1;
    3afc:	d0 92 13 02 	sts	0x0213, r13	; 0x800213 <i.2606+0x1>
    3b00:	c0 92 12 02 	sts	0x0212, r12	; 0x800212 <i.2606>
	
	if(NumberToWrite == 0)
	{
		for (jj=Number_Font_Start; jj<Number_Font_Length_Bytes-1; jj++)
		{
			for (x=0; x<8; x++)
    3b04:	10 93 46 11 	sts	0x1146, r17	; 0x801146 <x.2604>
    3b08:	1f 5f       	subi	r17, 0xFF	; 255
    3b0a:	19 30       	cpi	r17, 0x09	; 9
    3b0c:	09 f0       	breq	.+2      	; 0x3b10 <WriteNumber+0xde>
    3b0e:	ba cf       	rjmp	.-140    	; 0x3a84 <WriteNumber+0x52>
	setpixelColour(Colour);
	setDisplayNumberFont(X_pos,Y_pos);
	
	if(NumberToWrite == 0)
	{
		for (jj=Number_Font_Start; jj<Number_Font_Length_Bytes-1; jj++)
    3b10:	b0 92 48 11 	sts	0x1148, r11	; 0x801148 <jj.2607+0x1>
    3b14:	a0 92 47 11 	sts	0x1147, r10	; 0x801147 <jj.2607>
    3b18:	ff ef       	ldi	r31, 0xFF	; 255
    3b1a:	af 1a       	sub	r10, r31
    3b1c:	bf 0a       	sbc	r11, r31
    3b1e:	42 e0       	ldi	r20, 0x02	; 2
    3b20:	e4 0e       	add	r14, r20
    3b22:	f1 1c       	adc	r15, r1
    3b24:	8f e6       	ldi	r24, 0x6F	; 111
    3b26:	a8 16       	cp	r10, r24
    3b28:	b1 04       	cpc	r11, r1
    3b2a:	09 f0       	breq	.+2      	; 0x3b2e <WriteNumber+0xfc>
    3b2c:	a8 cf       	rjmp	.-176    	; 0x3a7e <WriteNumber+0x4c>
    3b2e:	71 c0       	rjmp	.+226    	; 0x3c12 <WriteNumber+0x1e0>
			}
		}
	}
	else
	{	//for (jj=Number_Font_Length_Bytes*(NumberToWrite+1)-1; jj>Number_Font_Length_Bytes*NumberToWrite; jj--)
		for (jj=Number_Font_Length_Bytes*NumberToWrite; jj<(Number_Font_Length_Bytes)*(NumberToWrite+1)-1; jj++)
    3b30:	8f e6       	ldi	r24, 0x6F	; 111
    3b32:	8c 9f       	mul	r24, r28
    3b34:	60 01       	movw	r12, r0
    3b36:	8d 9f       	mul	r24, r29
    3b38:	d0 0c       	add	r13, r0
    3b3a:	11 24       	eor	r1, r1
    3b3c:	d0 92 48 11 	sts	0x1148, r13	; 0x801148 <jj.2607+0x1>
    3b40:	c0 92 47 11 	sts	0x1147, r12	; 0x801147 <jj.2607>
    3b44:	56 01       	movw	r10, r12
    3b46:	9e e6       	ldi	r25, 0x6E	; 110
    3b48:	a9 0e       	add	r10, r25
    3b4a:	b1 1c       	adc	r11, r1
    3b4c:	ca 14       	cp	r12, r10
    3b4e:	db 04       	cpc	r13, r11
    3b50:	08 f0       	brcs	.+2      	; 0x3b54 <WriteNumber+0x122>
    3b52:	5f c0       	rjmp	.+190    	; 0x3c12 <WriteNumber+0x1e0>
    3b54:	86 01       	movw	r16, r12
    3b56:	00 0f       	add	r16, r16
    3b58:	11 1f       	adc	r17, r17
    3b5a:	0b 55       	subi	r16, 0x5B	; 91
    3b5c:	18 4f       	sbci	r17, 0xF8	; 248
				WritePixel(R_back,G_back,B_back); }

				i=i<<1;

				if (i>=256){
				i=1;}
    3b5e:	ee 24       	eor	r14, r14
    3b60:	e3 94       	inc	r14
    3b62:	f1 2c       	mov	r15, r1
	}
	else
	{	//for (jj=Number_Font_Length_Bytes*(NumberToWrite+1)-1; jj>Number_Font_Length_Bytes*NumberToWrite; jj--)
		for (jj=Number_Font_Length_Bytes*NumberToWrite; jj<(Number_Font_Length_Bytes)*(NumberToWrite+1)-1; jj++)
		{
			for (x = 0; x < 8; x++){
    3b64:	10 92 46 11 	sts	0x1146, r1	; 0x801146 <x.2604>
    3b68:	99 24       	eor	r9, r9
    3b6a:	93 94       	inc	r9

				//dataout = Number_Font[jj] &i;
				dataout = (Number_Font[jj] & i);
    3b6c:	c0 91 12 02 	lds	r28, 0x0212	; 0x800212 <i.2606>
    3b70:	d0 91 13 02 	lds	r29, 0x0213	; 0x800213 <i.2606+0x1>
				

				if (dataout >=1){
    3b74:	f8 01       	movw	r30, r16
    3b76:	80 81       	ld	r24, Z
    3b78:	8c 23       	and	r24, r28
    3b7a:	a9 f0       	breq	.+42     	; 0x3ba6 <WriteNumber+0x174>
// Red 0-31, Green 0-63, Blue 0-31
void WritePixel(unsigned char Red, unsigned char Green, unsigned char Blue)
{
	unsigned int data = 0;
	data |= Red << 11;
	data |= Green << 5;
    3b7c:	80 91 79 11 	lds	r24, 0x1179	; 0x801179 <R>
    3b80:	90 e0       	ldi	r25, 0x00	; 0
    3b82:	98 2f       	mov	r25, r24
    3b84:	88 27       	eor	r24, r24
    3b86:	99 0f       	add	r25, r25
    3b88:	99 0f       	add	r25, r25
    3b8a:	99 0f       	add	r25, r25
    3b8c:	20 91 77 11 	lds	r18, 0x1177	; 0x801177 <G>
    3b90:	40 e2       	ldi	r20, 0x20	; 32
    3b92:	24 9f       	mul	r18, r20
    3b94:	90 01       	movw	r18, r0
    3b96:	11 24       	eor	r1, r1
    3b98:	82 2b       	or	r24, r18
	data |= Blue;
	
	WriteData(data);
    3b9a:	93 2b       	or	r25, r19
    3b9c:	20 91 73 11 	lds	r18, 0x1173	; 0x801173 <B>
    3ba0:	82 2b       	or	r24, r18
    3ba2:	94 d9       	rcall	.-3288   	; 0x2ecc <WriteData>
    3ba4:	14 c0       	rjmp	.+40     	; 0x3bce <WriteNumber+0x19c>
// Red 0-31, Green 0-63, Blue 0-31
void WritePixel(unsigned char Red, unsigned char Green, unsigned char Blue)
{
	unsigned int data = 0;
	data |= Red << 11;
	data |= Green << 5;
    3ba6:	80 91 72 11 	lds	r24, 0x1172	; 0x801172 <R_back>
    3baa:	90 e0       	ldi	r25, 0x00	; 0
    3bac:	98 2f       	mov	r25, r24
    3bae:	88 27       	eor	r24, r24
    3bb0:	99 0f       	add	r25, r25
    3bb2:	99 0f       	add	r25, r25
    3bb4:	99 0f       	add	r25, r25
    3bb6:	20 91 7a 11 	lds	r18, 0x117A	; 0x80117a <G_back>
    3bba:	e0 e2       	ldi	r30, 0x20	; 32
    3bbc:	2e 9f       	mul	r18, r30
    3bbe:	90 01       	movw	r18, r0
    3bc0:	11 24       	eor	r1, r1
    3bc2:	82 2b       	or	r24, r18
	data |= Blue;
	
	WriteData(data);
    3bc4:	93 2b       	or	r25, r19
    3bc6:	20 91 6f 11 	lds	r18, 0x116F	; 0x80116f <B_back>
    3bca:	82 2b       	or	r24, r18
    3bcc:	7f d9       	rcall	.-3330   	; 0x2ecc <WriteData>
					WritePixel(R,G,B);
				} else
				{
				WritePixel(R_back,G_back,B_back); }

				i=i<<1;
    3bce:	cc 0f       	add	r28, r28
    3bd0:	dd 1f       	adc	r29, r29

				if (i>=256){
    3bd2:	cf 3f       	cpi	r28, 0xFF	; 255
    3bd4:	d1 05       	cpc	r29, r1
    3bd6:	09 f0       	breq	.+2      	; 0x3bda <WriteNumber+0x1a8>
    3bd8:	28 f4       	brcc	.+10     	; 0x3be4 <WriteNumber+0x1b2>
					WritePixel(R,G,B);
				} else
				{
				WritePixel(R_back,G_back,B_back); }

				i=i<<1;
    3bda:	d0 93 13 02 	sts	0x0213, r29	; 0x800213 <i.2606+0x1>
    3bde:	c0 93 12 02 	sts	0x0212, r28	; 0x800212 <i.2606>
    3be2:	04 c0       	rjmp	.+8      	; 0x3bec <WriteNumber+0x1ba>

				if (i>=256){
				i=1;}
    3be4:	f0 92 13 02 	sts	0x0213, r15	; 0x800213 <i.2606+0x1>
    3be8:	e0 92 12 02 	sts	0x0212, r14	; 0x800212 <i.2606>
	}
	else
	{	//for (jj=Number_Font_Length_Bytes*(NumberToWrite+1)-1; jj>Number_Font_Length_Bytes*NumberToWrite; jj--)
		for (jj=Number_Font_Length_Bytes*NumberToWrite; jj<(Number_Font_Length_Bytes)*(NumberToWrite+1)-1; jj++)
		{
			for (x = 0; x < 8; x++){
    3bec:	90 92 46 11 	sts	0x1146, r9	; 0x801146 <x.2604>
    3bf0:	93 94       	inc	r9
    3bf2:	f9 e0       	ldi	r31, 0x09	; 9
    3bf4:	9f 12       	cpse	r9, r31
    3bf6:	ba cf       	rjmp	.-140    	; 0x3b6c <WriteNumber+0x13a>
			}
		}
	}
	else
	{	//for (jj=Number_Font_Length_Bytes*(NumberToWrite+1)-1; jj>Number_Font_Length_Bytes*NumberToWrite; jj--)
		for (jj=Number_Font_Length_Bytes*NumberToWrite; jj<(Number_Font_Length_Bytes)*(NumberToWrite+1)-1; jj++)
    3bf8:	4f ef       	ldi	r20, 0xFF	; 255
    3bfa:	c4 1a       	sub	r12, r20
    3bfc:	d4 0a       	sbc	r13, r20
    3bfe:	d0 92 48 11 	sts	0x1148, r13	; 0x801148 <jj.2607+0x1>
    3c02:	c0 92 47 11 	sts	0x1147, r12	; 0x801147 <jj.2607>
    3c06:	0e 5f       	subi	r16, 0xFE	; 254
    3c08:	1f 4f       	sbci	r17, 0xFF	; 255
    3c0a:	ca 14       	cp	r12, r10
    3c0c:	db 04       	cpc	r13, r11
    3c0e:	08 f4       	brcc	.+2      	; 0x3c12 <WriteNumber+0x1e0>
    3c10:	a9 cf       	rjmp	.-174    	; 0x3b64 <WriteNumber+0x132>
				if (i>=256){
				i=1;}
			}
		}
	}
}
    3c12:	df 91       	pop	r29
    3c14:	cf 91       	pop	r28
    3c16:	1f 91       	pop	r17
    3c18:	0f 91       	pop	r16
    3c1a:	ff 90       	pop	r15
    3c1c:	ef 90       	pop	r14
    3c1e:	df 90       	pop	r13
    3c20:	cf 90       	pop	r12
    3c22:	bf 90       	pop	r11
    3c24:	af 90       	pop	r10
    3c26:	9f 90       	pop	r9
    3c28:	08 95       	ret

00003c2a <WriteDot>:


//Letters *********************************************************** Letters *************************************************

void WriteDot(unsigned int X_pos, unsigned int Y_pos, unsigned int Colour)
{
    3c2a:	af 92       	push	r10
    3c2c:	bf 92       	push	r11
    3c2e:	cf 92       	push	r12
    3c30:	df 92       	push	r13
    3c32:	ef 92       	push	r14
    3c34:	ff 92       	push	r15
    3c36:	1f 93       	push	r17
    3c38:	cf 93       	push	r28
    3c3a:	df 93       	push	r29
    3c3c:	ec 01       	movw	r28, r24
    3c3e:	7b 01       	movw	r14, r22
    3c40:	ca 01       	movw	r24, r20
	static unsigned char x=0;
	static unsigned char dataout=0;
	static unsigned int i=1;
	static unsigned int jj=0;
	
	setpixelColour(Colour);
    3c42:	cf dd       	rcall	.-1122   	; 0x37e2 <setpixelColour>
	setDisplayDotFont(X_pos,Y_pos);
    3c44:	b7 01       	movw	r22, r14
    3c46:	ce 01       	movw	r24, r28
    3c48:	bb d9       	rcall	.-3210   	; 0x2fc0 <setDisplayDotFont>
	
	
	for (jj=Dot_Font_Start; jj<Dot_Font_Length_Bytes; jj++)
    3c4a:	10 92 3f 11 	sts	0x113F, r1	; 0x80113f <jj.2656+0x1>
    3c4e:	10 92 3e 11 	sts	0x113E, r1	; 0x80113e <jj.2656>
    3c52:	0f 2e       	mov	r0, r31
    3c54:	f5 e9       	ldi	r31, 0x95	; 149
    3c56:	ef 2e       	mov	r14, r31
    3c58:	f7 e0       	ldi	r31, 0x07	; 7
    3c5a:	ff 2e       	mov	r15, r31
    3c5c:	f0 2d       	mov	r31, r0
    3c5e:	aa 24       	eor	r10, r10
    3c60:	a3 94       	inc	r10
    3c62:	b1 2c       	mov	r11, r1
			}
			i=i<<1;

			if (i>=256)
			{
				i=1;
    3c64:	cc 24       	eor	r12, r12
    3c66:	c3 94       	inc	r12
    3c68:	d1 2c       	mov	r13, r1
	setDisplayDotFont(X_pos,Y_pos);
	
	
	for (jj=Dot_Font_Start; jj<Dot_Font_Length_Bytes; jj++)
	{
		for (x=0; x<8; x++)
    3c6a:	10 92 3d 11 	sts	0x113D, r1	; 0x80113d <x.2653>
    3c6e:	11 e0       	ldi	r17, 0x01	; 1
		{
			dataout = Dot_font[jj] &i;
    3c70:	c0 91 10 02 	lds	r28, 0x0210	; 0x800210 <i.2655>
    3c74:	d0 91 11 02 	lds	r29, 0x0211	; 0x800211 <i.2655+0x1>
			if (dataout >=1)
    3c78:	f7 01       	movw	r30, r14
    3c7a:	80 81       	ld	r24, Z
    3c7c:	8c 23       	and	r24, r28
    3c7e:	a9 f0       	breq	.+42     	; 0x3caa <WriteDot+0x80>
// Red 0-31, Green 0-63, Blue 0-31
void WritePixel(unsigned char Red, unsigned char Green, unsigned char Blue)
{
	unsigned int data = 0;
	data |= Red << 11;
	data |= Green << 5;
    3c80:	80 91 79 11 	lds	r24, 0x1179	; 0x801179 <R>
    3c84:	90 e0       	ldi	r25, 0x00	; 0
    3c86:	98 2f       	mov	r25, r24
    3c88:	88 27       	eor	r24, r24
    3c8a:	99 0f       	add	r25, r25
    3c8c:	99 0f       	add	r25, r25
    3c8e:	99 0f       	add	r25, r25
    3c90:	20 91 77 11 	lds	r18, 0x1177	; 0x801177 <G>
    3c94:	40 e2       	ldi	r20, 0x20	; 32
    3c96:	24 9f       	mul	r18, r20
    3c98:	90 01       	movw	r18, r0
    3c9a:	11 24       	eor	r1, r1
    3c9c:	82 2b       	or	r24, r18
    3c9e:	93 2b       	or	r25, r19
	data |= Blue;
	
	WriteData(data);
    3ca0:	20 91 73 11 	lds	r18, 0x1173	; 0x801173 <B>
    3ca4:	82 2b       	or	r24, r18
    3ca6:	12 d9       	rcall	.-3548   	; 0x2ecc <WriteData>
    3ca8:	14 c0       	rjmp	.+40     	; 0x3cd2 <WriteDot+0xa8>
// Red 0-31, Green 0-63, Blue 0-31
void WritePixel(unsigned char Red, unsigned char Green, unsigned char Blue)
{
	unsigned int data = 0;
	data |= Red << 11;
	data |= Green << 5;
    3caa:	80 91 72 11 	lds	r24, 0x1172	; 0x801172 <R_back>
    3cae:	90 e0       	ldi	r25, 0x00	; 0
    3cb0:	98 2f       	mov	r25, r24
    3cb2:	88 27       	eor	r24, r24
    3cb4:	99 0f       	add	r25, r25
    3cb6:	99 0f       	add	r25, r25
    3cb8:	99 0f       	add	r25, r25
    3cba:	20 91 7a 11 	lds	r18, 0x117A	; 0x80117a <G_back>
    3cbe:	e0 e2       	ldi	r30, 0x20	; 32
    3cc0:	2e 9f       	mul	r18, r30
    3cc2:	90 01       	movw	r18, r0
    3cc4:	11 24       	eor	r1, r1
    3cc6:	82 2b       	or	r24, r18
    3cc8:	93 2b       	or	r25, r19
	data |= Blue;
	
	WriteData(data);
    3cca:	20 91 6f 11 	lds	r18, 0x116F	; 0x80116f <B_back>
    3cce:	82 2b       	or	r24, r18
    3cd0:	fd d8       	rcall	.-3590   	; 0x2ecc <WriteData>
			}
			else
			{
				WritePixel(R_back,G_back,B_back);
			}
			i=i<<1;
    3cd2:	cc 0f       	add	r28, r28
    3cd4:	dd 1f       	adc	r29, r29

			if (i>=256)
    3cd6:	cf 3f       	cpi	r28, 0xFF	; 255
    3cd8:	d1 05       	cpc	r29, r1
    3cda:	09 f0       	breq	.+2      	; 0x3cde <WriteDot+0xb4>
    3cdc:	28 f4       	brcc	.+10     	; 0x3ce8 <WriteDot+0xbe>
			}
			else
			{
				WritePixel(R_back,G_back,B_back);
			}
			i=i<<1;
    3cde:	d0 93 11 02 	sts	0x0211, r29	; 0x800211 <i.2655+0x1>
    3ce2:	c0 93 10 02 	sts	0x0210, r28	; 0x800210 <i.2655>
    3ce6:	04 c0       	rjmp	.+8      	; 0x3cf0 <WriteDot+0xc6>

			if (i>=256)
			{
				i=1;
    3ce8:	d0 92 11 02 	sts	0x0211, r13	; 0x800211 <i.2655+0x1>
    3cec:	c0 92 10 02 	sts	0x0210, r12	; 0x800210 <i.2655>
	setDisplayDotFont(X_pos,Y_pos);
	
	
	for (jj=Dot_Font_Start; jj<Dot_Font_Length_Bytes; jj++)
	{
		for (x=0; x<8; x++)
    3cf0:	10 93 3d 11 	sts	0x113D, r17	; 0x80113d <x.2653>
    3cf4:	1f 5f       	subi	r17, 0xFF	; 255
    3cf6:	19 30       	cpi	r17, 0x09	; 9
    3cf8:	09 f0       	breq	.+2      	; 0x3cfc <WriteDot+0xd2>
    3cfa:	ba cf       	rjmp	.-140    	; 0x3c70 <WriteDot+0x46>
	
	setpixelColour(Colour);
	setDisplayDotFont(X_pos,Y_pos);
	
	
	for (jj=Dot_Font_Start; jj<Dot_Font_Length_Bytes; jj++)
    3cfc:	b0 92 3f 11 	sts	0x113F, r11	; 0x80113f <jj.2656+0x1>
    3d00:	a0 92 3e 11 	sts	0x113E, r10	; 0x80113e <jj.2656>
    3d04:	ff ef       	ldi	r31, 0xFF	; 255
    3d06:	af 1a       	sub	r10, r31
    3d08:	bf 0a       	sbc	r11, r31
    3d0a:	42 e0       	ldi	r20, 0x02	; 2
    3d0c:	e4 0e       	add	r14, r20
    3d0e:	f1 1c       	adc	r15, r1
    3d10:	89 e0       	ldi	r24, 0x09	; 9
    3d12:	a8 16       	cp	r10, r24
    3d14:	b1 04       	cpc	r11, r1
    3d16:	09 f0       	breq	.+2      	; 0x3d1a <WriteDot+0xf0>
    3d18:	a8 cf       	rjmp	.-176    	; 0x3c6a <WriteDot+0x40>
				i=1;
			}
		}
	}
	
}
    3d1a:	df 91       	pop	r29
    3d1c:	cf 91       	pop	r28
    3d1e:	1f 91       	pop	r17
    3d20:	ff 90       	pop	r15
    3d22:	ef 90       	pop	r14
    3d24:	df 90       	pop	r13
    3d26:	cf 90       	pop	r12
    3d28:	bf 90       	pop	r11
    3d2a:	af 90       	pop	r10
    3d2c:	08 95       	ret

00003d2e <WriteNumberFromADC>:
	}
}


void WriteNumberFromADC(unsigned int X_Position, unsigned int Y_Position, unsigned int setColour, float num)
{
    3d2e:	2f 92       	push	r2
    3d30:	3f 92       	push	r3
    3d32:	4f 92       	push	r4
    3d34:	5f 92       	push	r5
    3d36:	6f 92       	push	r6
    3d38:	7f 92       	push	r7
    3d3a:	8f 92       	push	r8
    3d3c:	9f 92       	push	r9
    3d3e:	af 92       	push	r10
    3d40:	bf 92       	push	r11
    3d42:	cf 92       	push	r12
    3d44:	df 92       	push	r13
    3d46:	ef 92       	push	r14
    3d48:	ff 92       	push	r15
    3d4a:	0f 93       	push	r16
    3d4c:	1f 93       	push	r17
    3d4e:	cf 93       	push	r28
    3d50:	df 93       	push	r29
    3d52:	cd b7       	in	r28, 0x3d	; 61
    3d54:	de b7       	in	r29, 0x3e	; 62
    3d56:	e4 97       	sbiw	r28, 0x34	; 52
    3d58:	0f b6       	in	r0, 0x3f	; 63
    3d5a:	f8 94       	cli
    3d5c:	de bf       	out	0x3e, r29	; 62
    3d5e:	0f be       	out	0x3f, r0	; 63
    3d60:	cd bf       	out	0x3d, r28	; 61
    3d62:	4c 01       	movw	r8, r24
    3d64:	5b 01       	movw	r10, r22
    3d66:	5c ab       	std	Y+52, r21	; 0x34
    3d68:	4b ab       	std	Y+51, r20	; 0x33
    3d6a:	c9 01       	movw	r24, r18
    3d6c:	b8 01       	movw	r22, r16
	static unsigned char numberstring[6];
	
	// === FOR DEBUGGING === //
	char debugMsg[50];
	
	dtostrf(num, 3, 3, numberstring);     // Converts input unsigned long integer number to a string
    3d6e:	00 e4       	ldi	r16, 0x40	; 64
    3d70:	11 e1       	ldi	r17, 0x11	; 17
    3d72:	23 e0       	ldi	r18, 0x03	; 3
    3d74:	43 e0       	ldi	r20, 0x03	; 3
    3d76:	0e 94 da 26 	call	0x4db4	; 0x4db4 <dtostrf>
	sprintf(debugMsg, "WriteNumber is %6s\r\n", numberstring);
    3d7a:	78 01       	movw	r14, r16
    3d7c:	ff 92       	push	r15
    3d7e:	0f 93       	push	r16
    3d80:	8c ea       	ldi	r24, 0xAC	; 172
    3d82:	92 e0       	ldi	r25, 0x02	; 2
    3d84:	9f 93       	push	r25
    3d86:	8f 93       	push	r24
    3d88:	8e 01       	movw	r16, r28
    3d8a:	0f 5f       	subi	r16, 0xFF	; 255
    3d8c:	1f 4f       	sbci	r17, 0xFF	; 255
    3d8e:	1f 93       	push	r17
    3d90:	0f 93       	push	r16
    3d92:	0e 94 00 27 	call	0x4e00	; 0x4e00 <sprintf>
	SendString(UART0, debugMsg );
    3d96:	b8 01       	movw	r22, r16
    3d98:	80 ec       	ldi	r24, 0xC0	; 192
    3d9a:	90 e0       	ldi	r25, 0x00	; 0
    3d9c:	7b d8       	rcall	.-3850   	; 0x2e94 <SendString>
	clearPromille(X_Position, Y_Position, Background_Colour, strlen(numberstring));
    3d9e:	f7 01       	movw	r30, r14
    3da0:	01 90       	ld	r0, Z+
    3da2:	00 20       	and	r0, r0
    3da4:	e9 f7       	brne	.-6      	; 0x3da0 <WriteNumberFromADC+0x72>
    3da6:	31 97       	sbiw	r30, 0x01	; 1
    3da8:	9f 01       	movw	r18, r30
    3daa:	20 54       	subi	r18, 0x40	; 64
    3dac:	31 41       	sbci	r19, 0x11	; 17
    3dae:	40 91 74 11 	lds	r20, 0x1174	; 0x801174 <Background_Colour>
    3db2:	b5 01       	movw	r22, r10
    3db4:	c4 01       	movw	r24, r8
    3db6:	2b d9       	rcall	.-3498   	; 0x300e <clearPromille>
    3db8:	87 01       	movw	r16, r14
	
	for (i = 0; i < strlen(numberstring); i++)
    3dba:	0f 90       	pop	r0
    3dbc:	0f 90       	pop	r0
    3dbe:	0f 90       	pop	r0
    3dc0:	0f 90       	pop	r0
    3dc2:	0f 90       	pop	r0
    3dc4:	0f 90       	pop	r0
{
	unsigned int Font_Width;
	Font_Width = Number_Font_Width + Number_Font_Spacing;
	unsigned int posX;
	unsigned int i = 0;
	unsigned int tempIndex = 0;
    3dc6:	61 2c       	mov	r6, r1
    3dc8:	71 2c       	mov	r7, r1
	dtostrf(num, 3, 3, numberstring);     // Converts input unsigned long integer number to a string
	sprintf(debugMsg, "WriteNumber is %6s\r\n", numberstring);
	SendString(UART0, debugMsg );
	clearPromille(X_Position, Y_Position, Background_Colour, strlen(numberstring));
	
	for (i = 0; i < strlen(numberstring); i++)
    3dca:	e1 2c       	mov	r14, r1
    3dcc:	f1 2c       	mov	r15, r1
    3dce:	28 01       	movw	r4, r16
    3dd0:	97 c0       	rjmp	.+302    	; 0x3f00 <WriteNumberFromADC+0x1d2>
    3dd2:	18 01       	movw	r2, r16
	{

		if(numberstring[i] == 46)
    3dd4:	d8 01       	movw	r26, r16
    3dd6:	8c 91       	ld	r24, X
    3dd8:	8e 32       	cpi	r24, 0x2E	; 46
    3dda:	49 f4       	brne	.+18     	; 0x3dee <WriteNumberFromADC+0xc0>
		{
			posX = posX + Font_Width;
    3ddc:	b9 e1       	ldi	r27, 0x19	; 25
    3dde:	cb 0e       	add	r12, r27
    3de0:	d1 1c       	adc	r13, r1
			SendString(UART0, "NumberString[i]");
    3de2:	61 ec       	ldi	r22, 0xC1	; 193
    3de4:	72 e0       	ldi	r23, 0x02	; 2
    3de6:	80 ec       	ldi	r24, 0xC0	; 192
    3de8:	90 e0       	ldi	r25, 0x00	; 0
    3dea:	54 d8       	rcall	.-3928   	; 0x2e94 <SendString>
    3dec:	20 c0       	rjmp	.+64     	; 0x3e2e <WriteNumberFromADC+0x100>
			
		}
		else if (numberstring[i-1] == 46)
    3dee:	f8 01       	movw	r30, r16
    3df0:	31 97       	sbiw	r30, 0x01	; 1
    3df2:	80 81       	ld	r24, Z
    3df4:	8e 32       	cpi	r24, 0x2E	; 46
    3df6:	59 f4       	brne	.+22     	; 0x3e0e <WriteNumberFromADC+0xe0>
		{
			posX = posX + Number_Font_Spacing*8;
    3df8:	e8 e0       	ldi	r30, 0x08	; 8
    3dfa:	ce 0e       	add	r12, r30
    3dfc:	d1 1c       	adc	r13, r1
			X_Position = posX;
			SendString(UART0, "NumberString[i-1]");
    3dfe:	61 ed       	ldi	r22, 0xD1	; 209
    3e00:	72 e0       	ldi	r23, 0x02	; 2
    3e02:	80 ec       	ldi	r24, 0xC0	; 192
    3e04:	90 e0       	ldi	r25, 0x00	; 0
    3e06:	46 d8       	rcall	.-3956   	; 0x2e94 <SendString>
			tempIndex = i;
    3e08:	37 01       	movw	r6, r14
			
		}
		else if (numberstring[i-1] == 46)
		{
			posX = posX + Number_Font_Spacing*8;
			X_Position = posX;
    3e0a:	46 01       	movw	r8, r12
    3e0c:	10 c0       	rjmp	.+32     	; 0x3e2e <WriteNumberFromADC+0x100>
			SendString(UART0, "NumberString[i-1]");
			tempIndex = i;
		}
		else
		{
			posX = X_Position + Font_Width*(i-tempIndex);
    3e0e:	c7 01       	movw	r24, r14
    3e10:	86 19       	sub	r24, r6
    3e12:	97 09       	sbc	r25, r7
    3e14:	f9 e1       	ldi	r31, 0x19	; 25
    3e16:	f8 9f       	mul	r31, r24
    3e18:	60 01       	movw	r12, r0
    3e1a:	f9 9f       	mul	r31, r25
    3e1c:	d0 0c       	add	r13, r0
    3e1e:	11 24       	eor	r1, r1
    3e20:	c8 0c       	add	r12, r8
    3e22:	d9 1c       	adc	r13, r9
			SendString(UART0, "Else");
    3e24:	63 ee       	ldi	r22, 0xE3	; 227
    3e26:	72 e0       	ldi	r23, 0x02	; 2
    3e28:	80 ec       	ldi	r24, 0xC0	; 192
    3e2a:	90 e0       	ldi	r25, 0x00	; 0
    3e2c:	33 d8       	rcall	.-3994   	; 0x2e94 <SendString>
    3e2e:	0f 5f       	subi	r16, 0xFF	; 255
    3e30:	1f 4f       	sbci	r17, 0xFF	; 255
		}
		
		switch (numberstring[i])  {  //units position
    3e32:	d1 01       	movw	r26, r2
    3e34:	ec 91       	ld	r30, X
    3e36:	8e 2f       	mov	r24, r30
    3e38:	90 e0       	ldi	r25, 0x00	; 0
    3e3a:	fc 01       	movw	r30, r24
    3e3c:	be 97       	sbiw	r30, 0x2e	; 46
    3e3e:	ec 30       	cpi	r30, 0x0C	; 12
    3e40:	f1 05       	cpc	r31, r1
    3e42:	08 f0       	brcs	.+2      	; 0x3e46 <WriteNumberFromADC+0x118>
    3e44:	5a c0       	rjmp	.+180    	; 0x3efa <WriteNumberFromADC+0x1cc>
    3e46:	88 27       	eor	r24, r24
    3e48:	ee 54       	subi	r30, 0x4E	; 78
    3e4a:	ff 4f       	sbci	r31, 0xFF	; 255
    3e4c:	8f 4f       	sbci	r24, 0xFF	; 255
    3e4e:	91 c7       	rjmp	.+3874   	; 0x4d72 <__tablejump2__>
			case 46: WriteDot(posX, Y_Position, setColour);
    3e50:	4b a9       	ldd	r20, Y+51	; 0x33
    3e52:	5c a9       	ldd	r21, Y+52	; 0x34
    3e54:	b5 01       	movw	r22, r10
    3e56:	c6 01       	movw	r24, r12
    3e58:	e8 de       	rcall	.-560    	; 0x3c2a <WriteDot>
			break;
    3e5a:	4f c0       	rjmp	.+158    	; 0x3efa <WriteNumberFromADC+0x1cc>
			case 48:
			WriteNumber(posX,Y_Position, setColour, 0);
    3e5c:	20 e0       	ldi	r18, 0x00	; 0
    3e5e:	30 e0       	ldi	r19, 0x00	; 0
    3e60:	4b a9       	ldd	r20, Y+51	; 0x33
    3e62:	5c a9       	ldd	r21, Y+52	; 0x34
    3e64:	b5 01       	movw	r22, r10
    3e66:	c6 01       	movw	r24, r12
    3e68:	e4 dd       	rcall	.-1080   	; 0x3a32 <WriteNumber>
			break;
    3e6a:	47 c0       	rjmp	.+142    	; 0x3efa <WriteNumberFromADC+0x1cc>
			case 49:
			WriteNumber(posX,Y_Position, setColour, 1);
    3e6c:	21 e0       	ldi	r18, 0x01	; 1
    3e6e:	30 e0       	ldi	r19, 0x00	; 0
    3e70:	4b a9       	ldd	r20, Y+51	; 0x33
    3e72:	5c a9       	ldd	r21, Y+52	; 0x34
    3e74:	b5 01       	movw	r22, r10
    3e76:	c6 01       	movw	r24, r12
    3e78:	dc dd       	rcall	.-1096   	; 0x3a32 <WriteNumber>
			break;
    3e7a:	3f c0       	rjmp	.+126    	; 0x3efa <WriteNumberFromADC+0x1cc>
			case 50:
			WriteNumber(posX,Y_Position, setColour, 2);
    3e7c:	22 e0       	ldi	r18, 0x02	; 2
    3e7e:	30 e0       	ldi	r19, 0x00	; 0
    3e80:	4b a9       	ldd	r20, Y+51	; 0x33
    3e82:	5c a9       	ldd	r21, Y+52	; 0x34
    3e84:	b5 01       	movw	r22, r10
    3e86:	c6 01       	movw	r24, r12
    3e88:	d4 dd       	rcall	.-1112   	; 0x3a32 <WriteNumber>
			break;
    3e8a:	37 c0       	rjmp	.+110    	; 0x3efa <WriteNumberFromADC+0x1cc>
			case 51:
			WriteNumber(posX,Y_Position, setColour, 3);
    3e8c:	23 e0       	ldi	r18, 0x03	; 3
    3e8e:	30 e0       	ldi	r19, 0x00	; 0
    3e90:	4b a9       	ldd	r20, Y+51	; 0x33
    3e92:	5c a9       	ldd	r21, Y+52	; 0x34
    3e94:	b5 01       	movw	r22, r10
    3e96:	c6 01       	movw	r24, r12
    3e98:	cc dd       	rcall	.-1128   	; 0x3a32 <WriteNumber>
			break;
    3e9a:	2f c0       	rjmp	.+94     	; 0x3efa <WriteNumberFromADC+0x1cc>
			case 52:
			WriteNumber(posX,Y_Position, setColour, 4);
    3e9c:	24 e0       	ldi	r18, 0x04	; 4
    3e9e:	30 e0       	ldi	r19, 0x00	; 0
    3ea0:	4b a9       	ldd	r20, Y+51	; 0x33
    3ea2:	5c a9       	ldd	r21, Y+52	; 0x34
    3ea4:	b5 01       	movw	r22, r10
    3ea6:	c6 01       	movw	r24, r12
    3ea8:	c4 dd       	rcall	.-1144   	; 0x3a32 <WriteNumber>
			break;
			case 53:
			WriteNumber(posX,Y_Position, setColour, 5);
    3eaa:	27 c0       	rjmp	.+78     	; 0x3efa <WriteNumberFromADC+0x1cc>
    3eac:	25 e0       	ldi	r18, 0x05	; 5
    3eae:	30 e0       	ldi	r19, 0x00	; 0
    3eb0:	4b a9       	ldd	r20, Y+51	; 0x33
    3eb2:	5c a9       	ldd	r21, Y+52	; 0x34
    3eb4:	b5 01       	movw	r22, r10
    3eb6:	c6 01       	movw	r24, r12
			break;
    3eb8:	bc dd       	rcall	.-1160   	; 0x3a32 <WriteNumber>
			case 54:
			WriteNumber(posX,Y_Position, setColour, 6);
    3eba:	1f c0       	rjmp	.+62     	; 0x3efa <WriteNumberFromADC+0x1cc>
    3ebc:	26 e0       	ldi	r18, 0x06	; 6
    3ebe:	30 e0       	ldi	r19, 0x00	; 0
    3ec0:	4b a9       	ldd	r20, Y+51	; 0x33
    3ec2:	5c a9       	ldd	r21, Y+52	; 0x34
    3ec4:	b5 01       	movw	r22, r10
    3ec6:	c6 01       	movw	r24, r12
			break;
    3ec8:	b4 dd       	rcall	.-1176   	; 0x3a32 <WriteNumber>
			case 55:
			WriteNumber(posX,Y_Position, setColour, 7);
    3eca:	17 c0       	rjmp	.+46     	; 0x3efa <WriteNumberFromADC+0x1cc>
    3ecc:	27 e0       	ldi	r18, 0x07	; 7
    3ece:	30 e0       	ldi	r19, 0x00	; 0
    3ed0:	4b a9       	ldd	r20, Y+51	; 0x33
    3ed2:	5c a9       	ldd	r21, Y+52	; 0x34
    3ed4:	b5 01       	movw	r22, r10
    3ed6:	c6 01       	movw	r24, r12
			break;
    3ed8:	ac dd       	rcall	.-1192   	; 0x3a32 <WriteNumber>
			case 56:
			WriteNumber(posX,Y_Position, setColour, 8);
    3eda:	0f c0       	rjmp	.+30     	; 0x3efa <WriteNumberFromADC+0x1cc>
    3edc:	28 e0       	ldi	r18, 0x08	; 8
    3ede:	30 e0       	ldi	r19, 0x00	; 0
    3ee0:	4b a9       	ldd	r20, Y+51	; 0x33
    3ee2:	5c a9       	ldd	r21, Y+52	; 0x34
    3ee4:	b5 01       	movw	r22, r10
    3ee6:	c6 01       	movw	r24, r12
			break;
    3ee8:	a4 dd       	rcall	.-1208   	; 0x3a32 <WriteNumber>
			case 57:
			WriteNumber(posX,Y_Position, setColour, 9);
    3eea:	07 c0       	rjmp	.+14     	; 0x3efa <WriteNumberFromADC+0x1cc>
    3eec:	29 e0       	ldi	r18, 0x09	; 9
    3eee:	30 e0       	ldi	r19, 0x00	; 0
    3ef0:	4b a9       	ldd	r20, Y+51	; 0x33
    3ef2:	5c a9       	ldd	r21, Y+52	; 0x34
    3ef4:	b5 01       	movw	r22, r10
    3ef6:	c6 01       	movw	r24, r12
    3ef8:	9c dd       	rcall	.-1224   	; 0x3a32 <WriteNumber>
	dtostrf(num, 3, 3, numberstring);     // Converts input unsigned long integer number to a string
	sprintf(debugMsg, "WriteNumber is %6s\r\n", numberstring);
	SendString(UART0, debugMsg );
	clearPromille(X_Position, Y_Position, Background_Colour, strlen(numberstring));
	
	for (i = 0; i < strlen(numberstring); i++)
    3efa:	bf ef       	ldi	r27, 0xFF	; 255
    3efc:	eb 1a       	sub	r14, r27
    3efe:	fb 0a       	sbc	r15, r27
    3f00:	f2 01       	movw	r30, r4
    3f02:	01 90       	ld	r0, Z+
    3f04:	00 20       	and	r0, r0
    3f06:	e9 f7       	brne	.-6      	; 0x3f02 <WriteNumberFromADC+0x1d4>
    3f08:	31 97       	sbiw	r30, 0x01	; 1
    3f0a:	e0 54       	subi	r30, 0x40	; 64
    3f0c:	f1 41       	sbci	r31, 0x11	; 17
    3f0e:	ee 16       	cp	r14, r30
    3f10:	ff 06       	cpc	r15, r31
    3f12:	08 f4       	brcc	.+2      	; 0x3f16 <WriteNumberFromADC+0x1e8>
    3f14:	5e cf       	rjmp	.-324    	; 0x3dd2 <WriteNumberFromADC+0xa4>
			default:    break;
		}
	}


}
    3f16:	e4 96       	adiw	r28, 0x34	; 52
    3f18:	0f b6       	in	r0, 0x3f	; 63
    3f1a:	f8 94       	cli
    3f1c:	de bf       	out	0x3e, r29	; 62
    3f1e:	0f be       	out	0x3f, r0	; 63
    3f20:	cd bf       	out	0x3d, r28	; 61
    3f22:	df 91       	pop	r29
    3f24:	cf 91       	pop	r28
    3f26:	1f 91       	pop	r17
    3f28:	0f 91       	pop	r16
    3f2a:	ff 90       	pop	r15
    3f2c:	ef 90       	pop	r14
    3f2e:	df 90       	pop	r13
    3f30:	cf 90       	pop	r12
    3f32:	bf 90       	pop	r11
    3f34:	af 90       	pop	r10
    3f36:	9f 90       	pop	r9
    3f38:	8f 90       	pop	r8
    3f3a:	7f 90       	pop	r7
    3f3c:	6f 90       	pop	r6
    3f3e:	5f 90       	pop	r5
    3f40:	4f 90       	pop	r4
    3f42:	3f 90       	pop	r3
    3f44:	2f 90       	pop	r2
    3f46:	08 95       	ret

00003f48 <AsciiToFontIndex>:
	
}

unsigned int AsciiToFontIndex(char Letter)
{
	switch(Letter){ // Returnerer det rigtige index for de forskellige bogstavers hexkode
    3f48:	90 e0       	ldi	r25, 0x00	; 0
    3f4a:	fc 01       	movw	r30, r24
    3f4c:	fa 97       	sbiw	r30, 0x3a	; 58
    3f4e:	e1 34       	cpi	r30, 0x41	; 65
    3f50:	f1 05       	cpc	r31, r1
    3f52:	48 f5       	brcc	.+82     	; 0x3fa6 <AsciiToFontIndex+0x5e>
    3f54:	88 27       	eor	r24, r24
    3f56:	e2 54       	subi	r30, 0x42	; 66
    3f58:	ff 4f       	sbci	r31, 0xFF	; 255
    3f5a:	8f 4f       	sbci	r24, 0xFF	; 255
    3f5c:	0a c7       	rjmp	.+3604   	; 0x4d72 <__tablejump2__>
		case 66:	return 1;	break;
		case 114:	return 2;	break;
    3f5e:	82 e0       	ldi	r24, 0x02	; 2
    3f60:	90 e0       	ldi	r25, 0x00	; 0
    3f62:	08 95       	ret
		case 101:	return 3;	break;
		case 97:	return 4;	break;
    3f64:	84 e0       	ldi	r24, 0x04	; 4
    3f66:	90 e0       	ldi	r25, 0x00	; 0
    3f68:	08 95       	ret
		case 116:	return 5;	break;
    3f6a:	85 e0       	ldi	r24, 0x05	; 5
    3f6c:	90 e0       	ldi	r25, 0x00	; 0
    3f6e:	08 95       	ret
		case 104:	return 6;	break;
    3f70:	86 e0       	ldi	r24, 0x06	; 6
    3f72:	90 e0       	ldi	r25, 0x00	; 0
    3f74:	08 95       	ret
		case 108:	return 7;	break;
    3f76:	87 e0       	ldi	r24, 0x07	; 7
    3f78:	90 e0       	ldi	r25, 0x00	; 0
    3f7a:	08 95       	ret
		case 121:	return 8;	break;
    3f7c:	88 e0       	ldi	r24, 0x08	; 8
    3f7e:	90 e0       	ldi	r25, 0x00	; 0
    3f80:	08 95       	ret
		case 122:	return 9;	break;
    3f82:	89 e0       	ldi	r24, 0x09	; 9
    3f84:	90 e0       	ldi	r25, 0x00	; 0
    3f86:	08 95       	ret
		case 80:	return 10;	break;
    3f88:	8a e0       	ldi	r24, 0x0A	; 10
    3f8a:	90 e0       	ldi	r25, 0x00	; 0
    3f8c:	08 95       	ret
		case 111:	return 11;	break;
    3f8e:	8b e0       	ldi	r24, 0x0B	; 11
    3f90:	90 e0       	ldi	r25, 0x00	; 0
    3f92:	08 95       	ret
		case 109:	return 12;	break;
    3f94:	8c e0       	ldi	r24, 0x0C	; 12
    3f96:	90 e0       	ldi	r25, 0x00	; 0
    3f98:	08 95       	ret
		case 105:	return 13;	break;
    3f9a:	8d e0       	ldi	r24, 0x0D	; 13
    3f9c:	90 e0       	ldi	r25, 0x00	; 0
    3f9e:	08 95       	ret
		case 58:	return 14;	break;
    3fa0:	8e e0       	ldi	r24, 0x0E	; 14
    3fa2:	90 e0       	ldi	r25, 0x00	; 0
    3fa4:	08 95       	ret
		default: break;
	}
	
}
    3fa6:	08 95       	ret
}

unsigned int AsciiToFontIndex(char Letter)
{
	switch(Letter){ // Returnerer det rigtige index for de forskellige bogstavers hexkode
		case 66:	return 1;	break;
    3fa8:	81 e0       	ldi	r24, 0x01	; 1
    3faa:	90 e0       	ldi	r25, 0x00	; 0
    3fac:	08 95       	ret
		case 114:	return 2;	break;
		case 101:	return 3;	break;
    3fae:	83 e0       	ldi	r24, 0x03	; 3
    3fb0:	90 e0       	ldi	r25, 0x00	; 0
		case 105:	return 13;	break;
		case 58:	return 14;	break;
		default: break;
	}
	
}
    3fb2:	08 95       	ret

00003fb4 <WriteLetter>:

void WriteLetter(unsigned int X_pos, unsigned int Y_pos, unsigned int Colour, char LetterToWrite)
{
    3fb4:	7f 92       	push	r7
    3fb6:	8f 92       	push	r8
    3fb8:	9f 92       	push	r9
    3fba:	af 92       	push	r10
    3fbc:	bf 92       	push	r11
    3fbe:	cf 92       	push	r12
    3fc0:	df 92       	push	r13
    3fc2:	ef 92       	push	r14
    3fc4:	ff 92       	push	r15
    3fc6:	0f 93       	push	r16
    3fc8:	1f 93       	push	r17
    3fca:	cf 93       	push	r28
    3fcc:	df 93       	push	r29
    3fce:	cd b7       	in	r28, 0x3d	; 61
    3fd0:	de b7       	in	r29, 0x3e	; 62
    3fd2:	e2 97       	sbiw	r28, 0x32	; 50
    3fd4:	0f b6       	in	r0, 0x3f	; 63
    3fd6:	f8 94       	cli
    3fd8:	de bf       	out	0x3e, r29	; 62
    3fda:	0f be       	out	0x3f, r0	; 63
    3fdc:	cd bf       	out	0x3d, r28	; 61
    3fde:	6c 01       	movw	r12, r24
    3fe0:	5b 01       	movw	r10, r22
    3fe2:	4a 01       	movw	r8, r20
    3fe4:	82 2f       	mov	r24, r18
	static unsigned char x=0;
	static unsigned char dataout=0;
	static unsigned int i=1;
	static unsigned int jj=0;
	unsigned int LetterIndex = AsciiToFontIndex(LetterToWrite);
    3fe6:	b0 df       	rcall	.-160    	; 0x3f48 <AsciiToFontIndex>
    3fe8:	7c 01       	movw	r14, r24
	// === FOR DEBUGGING === //
	char debugMsg[50];
	static unsigned char numberstring[6];
	
	dtostrf(LetterIndex, 3, 3, numberstring);     // Converts input unsigned long integer number to a string
    3fea:	bc 01       	movw	r22, r24
    3fec:	80 e0       	ldi	r24, 0x00	; 0
    3fee:	90 e0       	ldi	r25, 0x00	; 0
    3ff0:	24 d4       	rcall	.+2120   	; 0x483a <__floatunsisf>
    3ff2:	07 e3       	ldi	r16, 0x37	; 55
    3ff4:	11 e1       	ldi	r17, 0x11	; 17
    3ff6:	23 e0       	ldi	r18, 0x03	; 3
    3ff8:	43 e0       	ldi	r20, 0x03	; 3
    3ffa:	dc d6       	rcall	.+3512   	; 0x4db4 <dtostrf>
	sprintf(debugMsg, "WriteLetter is %6s\r\n", numberstring);
    3ffc:	c8 01       	movw	r24, r16
    3ffe:	9f 93       	push	r25
    4000:	0f 93       	push	r16
    4002:	88 ee       	ldi	r24, 0xE8	; 232
    4004:	92 e0       	ldi	r25, 0x02	; 2
    4006:	9f 93       	push	r25
    4008:	8f 93       	push	r24
    400a:	8e 01       	movw	r16, r28
    400c:	0f 5f       	subi	r16, 0xFF	; 255
    400e:	1f 4f       	sbci	r17, 0xFF	; 255
    4010:	1f 93       	push	r17
    4012:	0f 93       	push	r16
    4014:	f5 d6       	rcall	.+3562   	; 0x4e00 <sprintf>
	SendString(UART0, debugMsg );
    4016:	b8 01       	movw	r22, r16
    4018:	80 ec       	ldi	r24, 0xC0	; 192
    401a:	90 e0       	ldi	r25, 0x00	; 0
    401c:	0e 94 4a 17 	call	0x2e94	; 0x2e94 <SendString>
	
	setpixelColour(Colour);
    4020:	c4 01       	movw	r24, r8
    4022:	df db       	rcall	.-2114   	; 0x37e2 <setpixelColour>
	setDisplayLetterFont(X_pos,Y_pos);
    4024:	b5 01       	movw	r22, r10
    4026:	c6 01       	movw	r24, r12
    4028:	0e 94 d0 17 	call	0x2fa0	; 0x2fa0 <setDisplayLetterFont>
	
	if(LetterIndex == 1) //Index 1 = start ved 0 ellers start ved index -1. Derved f?r den fat i den rigtige hex kode inde fra Letter_font arrayet
    402c:	0f 90       	pop	r0
    402e:	0f 90       	pop	r0
    4030:	0f 90       	pop	r0
    4032:	0f 90       	pop	r0
    4034:	0f 90       	pop	r0
    4036:	0f 90       	pop	r0
    4038:	21 e0       	ldi	r18, 0x01	; 1
    403a:	e2 16       	cp	r14, r18
    403c:	f1 04       	cpc	r15, r1
    403e:	09 f0       	breq	.+2      	; 0x4042 <WriteLetter+0x8e>
    4040:	6c c0       	rjmp	.+216    	; 0x411a <WriteLetter+0x166>
	{
		for (jj=Letter_Font_Start; jj<Letter_Font_Length_Bytes-1; jj++)
    4042:	10 92 36 11 	sts	0x1136, r1	; 0x801136 <jj.2691+0x1>
    4046:	10 92 35 11 	sts	0x1135, r1	; 0x801135 <jj.2691>
    404a:	0f 2e       	mov	r0, r31
    404c:	fd ef       	ldi	r31, 0xFD	; 253
    404e:	ef 2e       	mov	r14, r31
    4050:	f2 e0       	ldi	r31, 0x02	; 2
    4052:	ff 2e       	mov	r15, r31
    4054:	f0 2d       	mov	r31, r0
    4056:	aa 24       	eor	r10, r10
    4058:	a3 94       	inc	r10
    405a:	b1 2c       	mov	r11, r1
				}
				i=i<<1;

				if (i>=256)
				{
					i=1;
    405c:	cc 24       	eor	r12, r12
    405e:	c3 94       	inc	r12
    4060:	d1 2c       	mov	r13, r1
	
	if(LetterIndex == 1) //Index 1 = start ved 0 ellers start ved index -1. Derved f?r den fat i den rigtige hex kode inde fra Letter_font arrayet
	{
		for (jj=Letter_Font_Start; jj<Letter_Font_Length_Bytes-1; jj++)
		{
			for (x=0; x<8; x++)
    4062:	10 92 34 11 	sts	0x1134, r1	; 0x801134 <x.2688>
    4066:	99 24       	eor	r9, r9
    4068:	93 94       	inc	r9
			{
				dataout = Letter_Font[jj] &i;
    406a:	00 91 0e 02 	lds	r16, 0x020E	; 0x80020e <i.2690>
    406e:	10 91 0f 02 	lds	r17, 0x020F	; 0x80020f <i.2690+0x1>
				if (dataout >=1)
    4072:	f7 01       	movw	r30, r14
    4074:	80 81       	ld	r24, Z
    4076:	80 23       	and	r24, r16
    4078:	b1 f0       	breq	.+44     	; 0x40a6 <WriteLetter+0xf2>
// Red 0-31, Green 0-63, Blue 0-31
void WritePixel(unsigned char Red, unsigned char Green, unsigned char Blue)
{
	unsigned int data = 0;
	data |= Red << 11;
	data |= Green << 5;
    407a:	80 91 79 11 	lds	r24, 0x1179	; 0x801179 <R>
    407e:	90 e0       	ldi	r25, 0x00	; 0
    4080:	98 2f       	mov	r25, r24
    4082:	88 27       	eor	r24, r24
    4084:	99 0f       	add	r25, r25
    4086:	99 0f       	add	r25, r25
    4088:	99 0f       	add	r25, r25
    408a:	20 91 77 11 	lds	r18, 0x1177	; 0x801177 <G>
    408e:	f0 e2       	ldi	r31, 0x20	; 32
    4090:	2f 9f       	mul	r18, r31
    4092:	90 01       	movw	r18, r0
    4094:	11 24       	eor	r1, r1
    4096:	82 2b       	or	r24, r18
    4098:	93 2b       	or	r25, r19
	data |= Blue;
	
	WriteData(data);
    409a:	20 91 73 11 	lds	r18, 0x1173	; 0x801173 <B>
    409e:	82 2b       	or	r24, r18
    40a0:	0e 94 66 17 	call	0x2ecc	; 0x2ecc <WriteData>
    40a4:	15 c0       	rjmp	.+42     	; 0x40d0 <WriteLetter+0x11c>
// Red 0-31, Green 0-63, Blue 0-31
void WritePixel(unsigned char Red, unsigned char Green, unsigned char Blue)
{
	unsigned int data = 0;
	data |= Red << 11;
	data |= Green << 5;
    40a6:	80 91 72 11 	lds	r24, 0x1172	; 0x801172 <R_back>
    40aa:	90 e0       	ldi	r25, 0x00	; 0
    40ac:	98 2f       	mov	r25, r24
    40ae:	88 27       	eor	r24, r24
    40b0:	99 0f       	add	r25, r25
    40b2:	99 0f       	add	r25, r25
    40b4:	99 0f       	add	r25, r25
    40b6:	20 91 7a 11 	lds	r18, 0x117A	; 0x80117a <G_back>
    40ba:	40 e2       	ldi	r20, 0x20	; 32
    40bc:	24 9f       	mul	r18, r20
    40be:	90 01       	movw	r18, r0
    40c0:	11 24       	eor	r1, r1
    40c2:	82 2b       	or	r24, r18
    40c4:	93 2b       	or	r25, r19
	data |= Blue;
	
	WriteData(data);
    40c6:	20 91 6f 11 	lds	r18, 0x116F	; 0x80116f <B_back>
    40ca:	82 2b       	or	r24, r18
    40cc:	0e 94 66 17 	call	0x2ecc	; 0x2ecc <WriteData>
				}
				else
				{
					WritePixel(R_back,G_back,B_back);
				}
				i=i<<1;
    40d0:	00 0f       	add	r16, r16
    40d2:	11 1f       	adc	r17, r17

				if (i>=256)
    40d4:	0f 3f       	cpi	r16, 0xFF	; 255
    40d6:	11 05       	cpc	r17, r1
    40d8:	09 f0       	breq	.+2      	; 0x40dc <WriteLetter+0x128>
    40da:	28 f4       	brcc	.+10     	; 0x40e6 <WriteLetter+0x132>
				}
				else
				{
					WritePixel(R_back,G_back,B_back);
				}
				i=i<<1;
    40dc:	10 93 0f 02 	sts	0x020F, r17	; 0x80020f <i.2690+0x1>
    40e0:	00 93 0e 02 	sts	0x020E, r16	; 0x80020e <i.2690>
    40e4:	04 c0       	rjmp	.+8      	; 0x40ee <WriteLetter+0x13a>

				if (i>=256)
				{
					i=1;
    40e6:	d0 92 0f 02 	sts	0x020F, r13	; 0x80020f <i.2690+0x1>
    40ea:	c0 92 0e 02 	sts	0x020E, r12	; 0x80020e <i.2690>
	
	if(LetterIndex == 1) //Index 1 = start ved 0 ellers start ved index -1. Derved f?r den fat i den rigtige hex kode inde fra Letter_font arrayet
	{
		for (jj=Letter_Font_Start; jj<Letter_Font_Length_Bytes-1; jj++)
		{
			for (x=0; x<8; x++)
    40ee:	90 92 34 11 	sts	0x1134, r9	; 0x801134 <x.2688>
    40f2:	93 94       	inc	r9
    40f4:	89 e0       	ldi	r24, 0x09	; 9
    40f6:	98 12       	cpse	r9, r24
    40f8:	b8 cf       	rjmp	.-144    	; 0x406a <WriteLetter+0xb6>
	setpixelColour(Colour);
	setDisplayLetterFont(X_pos,Y_pos);
	
	if(LetterIndex == 1) //Index 1 = start ved 0 ellers start ved index -1. Derved f?r den fat i den rigtige hex kode inde fra Letter_font arrayet
	{
		for (jj=Letter_Font_Start; jj<Letter_Font_Length_Bytes-1; jj++)
    40fa:	b0 92 36 11 	sts	0x1136, r11	; 0x801136 <jj.2691+0x1>
    40fe:	a0 92 35 11 	sts	0x1135, r10	; 0x801135 <jj.2691>
    4102:	ef ef       	ldi	r30, 0xFF	; 255
    4104:	ae 1a       	sub	r10, r30
    4106:	be 0a       	sbc	r11, r30
    4108:	f2 e0       	ldi	r31, 0x02	; 2
    410a:	ef 0e       	add	r14, r31
    410c:	f1 1c       	adc	r15, r1
    410e:	2a e2       	ldi	r18, 0x2A	; 42
    4110:	a2 16       	cp	r10, r18
    4112:	b1 04       	cpc	r11, r1
    4114:	09 f0       	breq	.+2      	; 0x4118 <WriteLetter+0x164>
    4116:	a5 cf       	rjmp	.-182    	; 0x4062 <WriteLetter+0xae>
    4118:	7b c0       	rjmp	.+246    	; 0x4210 <WriteLetter+0x25c>
			}
		}
	}
	else
	{	//for (jj=Number_Font_Length_Bytes*(NumberToWrite+1)-1; jj>Number_Font_Length_Bytes*NumberToWrite; jj--)
		for (jj=Letter_Font_Length_Bytes*(LetterIndex-1); jj<(Letter_Font_Length_Bytes*LetterIndex)-1; jj++)
    411a:	8a e2       	ldi	r24, 0x2A	; 42
    411c:	8e 9d       	mul	r24, r14
    411e:	40 01       	movw	r8, r0
    4120:	8f 9d       	mul	r24, r15
    4122:	90 0c       	add	r9, r0
    4124:	11 24       	eor	r1, r1
    4126:	c4 01       	movw	r24, r8
    4128:	8a 97       	sbiw	r24, 0x2a	; 42
    412a:	90 93 36 11 	sts	0x1136, r25	; 0x801136 <jj.2691+0x1>
    412e:	80 93 35 11 	sts	0x1135, r24	; 0x801135 <jj.2691>
    4132:	94 01       	movw	r18, r8
    4134:	21 50       	subi	r18, 0x01	; 1
    4136:	31 09       	sbc	r19, r1
    4138:	82 17       	cp	r24, r18
    413a:	93 07       	cpc	r25, r19
    413c:	08 f0       	brcs	.+2      	; 0x4140 <WriteLetter+0x18c>
    413e:	68 c0       	rjmp	.+208    	; 0x4210 <WriteLetter+0x25c>
    4140:	54 01       	movw	r10, r8
    4142:	39 e2       	ldi	r19, 0x29	; 41
    4144:	a3 1a       	sub	r10, r19
    4146:	b1 08       	sbc	r11, r1
    4148:	c4 01       	movw	r24, r8
    414a:	88 0f       	add	r24, r24
    414c:	99 1f       	adc	r25, r25
    414e:	fc 01       	movw	r30, r24
    4150:	e7 55       	subi	r30, 0x57	; 87
    4152:	fd 4f       	sbci	r31, 0xFD	; 253
    4154:	7f 01       	movw	r14, r30
				WritePixel(R_back,G_back,B_back); }

				i=i<<1;

				if (i>=256){
				i=1;}
    4156:	cc 24       	eor	r12, r12
    4158:	c3 94       	inc	r12
    415a:	d1 2c       	mov	r13, r1
	}
	else
	{	//for (jj=Number_Font_Length_Bytes*(NumberToWrite+1)-1; jj>Number_Font_Length_Bytes*NumberToWrite; jj--)
		for (jj=Letter_Font_Length_Bytes*(LetterIndex-1); jj<(Letter_Font_Length_Bytes*LetterIndex)-1; jj++)
		{
			for (x = 0; x < 8; x++){
    415c:	10 92 34 11 	sts	0x1134, r1	; 0x801134 <x.2688>
    4160:	77 24       	eor	r7, r7
    4162:	73 94       	inc	r7

				//dataout = Number_Font[jj] &i;
				dataout = (Letter_Font[jj] & i);
    4164:	00 91 0e 02 	lds	r16, 0x020E	; 0x80020e <i.2690>
    4168:	10 91 0f 02 	lds	r17, 0x020F	; 0x80020f <i.2690+0x1>
				

				if (dataout >=1){
    416c:	f7 01       	movw	r30, r14
    416e:	80 81       	ld	r24, Z
    4170:	80 23       	and	r24, r16
    4172:	b1 f0       	breq	.+44     	; 0x41a0 <WriteLetter+0x1ec>
// Red 0-31, Green 0-63, Blue 0-31
void WritePixel(unsigned char Red, unsigned char Green, unsigned char Blue)
{
	unsigned int data = 0;
	data |= Red << 11;
	data |= Green << 5;
    4174:	80 91 79 11 	lds	r24, 0x1179	; 0x801179 <R>
    4178:	90 e0       	ldi	r25, 0x00	; 0
    417a:	98 2f       	mov	r25, r24
    417c:	88 27       	eor	r24, r24
    417e:	99 0f       	add	r25, r25
    4180:	99 0f       	add	r25, r25
    4182:	99 0f       	add	r25, r25
    4184:	20 91 77 11 	lds	r18, 0x1177	; 0x801177 <G>
    4188:	f0 e2       	ldi	r31, 0x20	; 32
    418a:	2f 9f       	mul	r18, r31
    418c:	90 01       	movw	r18, r0
    418e:	11 24       	eor	r1, r1
    4190:	82 2b       	or	r24, r18
    4192:	93 2b       	or	r25, r19
	data |= Blue;
	
	WriteData(data);
    4194:	20 91 73 11 	lds	r18, 0x1173	; 0x801173 <B>
    4198:	82 2b       	or	r24, r18
    419a:	0e 94 66 17 	call	0x2ecc	; 0x2ecc <WriteData>
    419e:	15 c0       	rjmp	.+42     	; 0x41ca <WriteLetter+0x216>
// Red 0-31, Green 0-63, Blue 0-31
void WritePixel(unsigned char Red, unsigned char Green, unsigned char Blue)
{
	unsigned int data = 0;
	data |= Red << 11;
	data |= Green << 5;
    41a0:	80 91 72 11 	lds	r24, 0x1172	; 0x801172 <R_back>
    41a4:	90 e0       	ldi	r25, 0x00	; 0
    41a6:	98 2f       	mov	r25, r24
    41a8:	88 27       	eor	r24, r24
    41aa:	99 0f       	add	r25, r25
    41ac:	99 0f       	add	r25, r25
    41ae:	99 0f       	add	r25, r25
    41b0:	20 91 7a 11 	lds	r18, 0x117A	; 0x80117a <G_back>
    41b4:	40 e2       	ldi	r20, 0x20	; 32
    41b6:	24 9f       	mul	r18, r20
    41b8:	90 01       	movw	r18, r0
    41ba:	11 24       	eor	r1, r1
    41bc:	82 2b       	or	r24, r18
    41be:	93 2b       	or	r25, r19
	data |= Blue;
	
	WriteData(data);
    41c0:	20 91 6f 11 	lds	r18, 0x116F	; 0x80116f <B_back>
    41c4:	82 2b       	or	r24, r18
    41c6:	0e 94 66 17 	call	0x2ecc	; 0x2ecc <WriteData>
					WritePixel(R,G,B);
				} else
				{
				WritePixel(R_back,G_back,B_back); }

				i=i<<1;
    41ca:	00 0f       	add	r16, r16
    41cc:	11 1f       	adc	r17, r17

				if (i>=256){
    41ce:	0f 3f       	cpi	r16, 0xFF	; 255
    41d0:	11 05       	cpc	r17, r1
    41d2:	09 f0       	breq	.+2      	; 0x41d6 <WriteLetter+0x222>
    41d4:	28 f4       	brcc	.+10     	; 0x41e0 <WriteLetter+0x22c>
					WritePixel(R,G,B);
				} else
				{
				WritePixel(R_back,G_back,B_back); }

				i=i<<1;
    41d6:	10 93 0f 02 	sts	0x020F, r17	; 0x80020f <i.2690+0x1>
    41da:	00 93 0e 02 	sts	0x020E, r16	; 0x80020e <i.2690>
    41de:	04 c0       	rjmp	.+8      	; 0x41e8 <WriteLetter+0x234>

				if (i>=256){
				i=1;}
    41e0:	d0 92 0f 02 	sts	0x020F, r13	; 0x80020f <i.2690+0x1>
    41e4:	c0 92 0e 02 	sts	0x020E, r12	; 0x80020e <i.2690>
	}
	else
	{	//for (jj=Number_Font_Length_Bytes*(NumberToWrite+1)-1; jj>Number_Font_Length_Bytes*NumberToWrite; jj--)
		for (jj=Letter_Font_Length_Bytes*(LetterIndex-1); jj<(Letter_Font_Length_Bytes*LetterIndex)-1; jj++)
		{
			for (x = 0; x < 8; x++){
    41e8:	70 92 34 11 	sts	0x1134, r7	; 0x801134 <x.2688>
    41ec:	73 94       	inc	r7
    41ee:	89 e0       	ldi	r24, 0x09	; 9
    41f0:	78 12       	cpse	r7, r24
    41f2:	b8 cf       	rjmp	.-144    	; 0x4164 <WriteLetter+0x1b0>
			}
		}
	}
	else
	{	//for (jj=Number_Font_Length_Bytes*(NumberToWrite+1)-1; jj>Number_Font_Length_Bytes*NumberToWrite; jj--)
		for (jj=Letter_Font_Length_Bytes*(LetterIndex-1); jj<(Letter_Font_Length_Bytes*LetterIndex)-1; jj++)
    41f4:	b0 92 36 11 	sts	0x1136, r11	; 0x801136 <jj.2691+0x1>
    41f8:	a0 92 35 11 	sts	0x1135, r10	; 0x801135 <jj.2691>
    41fc:	ef ef       	ldi	r30, 0xFF	; 255
    41fe:	ae 1a       	sub	r10, r30
    4200:	be 0a       	sbc	r11, r30
    4202:	f2 e0       	ldi	r31, 0x02	; 2
    4204:	ef 0e       	add	r14, r31
    4206:	f1 1c       	adc	r15, r1
    4208:	8a 14       	cp	r8, r10
    420a:	9b 04       	cpc	r9, r11
    420c:	09 f0       	breq	.+2      	; 0x4210 <WriteLetter+0x25c>
    420e:	a6 cf       	rjmp	.-180    	; 0x415c <WriteLetter+0x1a8>
				if (i>=256){
				i=1;}
			}
		}
	}
    4210:	e2 96       	adiw	r28, 0x32	; 50
    4212:	0f b6       	in	r0, 0x3f	; 63
    4214:	f8 94       	cli
    4216:	de bf       	out	0x3e, r29	; 62
    4218:	0f be       	out	0x3f, r0	; 63
    421a:	cd bf       	out	0x3d, r28	; 61
    421c:	df 91       	pop	r29
    421e:	cf 91       	pop	r28
    4220:	1f 91       	pop	r17
    4222:	0f 91       	pop	r16
    4224:	ff 90       	pop	r15
    4226:	ef 90       	pop	r14
    4228:	df 90       	pop	r13
    422a:	cf 90       	pop	r12
    422c:	bf 90       	pop	r11
    422e:	af 90       	pop	r10
    4230:	9f 90       	pop	r9
    4232:	8f 90       	pop	r8
    4234:	7f 90       	pop	r7
    4236:	08 95       	ret

00004238 <DisplayInit>:

// PUBLIC FUNCTIONS ////////////////////////////////////////////////////////////

// Initializes (resets) the display
void DisplayInit(unsigned char colourBackground, unsigned char colourText)
{
    4238:	cf 93       	push	r28
    423a:	df 93       	push	r29
    423c:	d8 2f       	mov	r29, r24
    423e:	c6 2f       	mov	r28, r22
	//Controlpins skal v?re input
	DDRG |= 0b00000111;
    4240:	83 b3       	in	r24, 0x13	; 19
    4242:	87 60       	ori	r24, 0x07	; 7
    4244:	83 bb       	out	0x13, r24	; 19
	DDRD |= 0b10000000;
    4246:	57 9a       	sbi	0x0a, 7	; 10
	//Data pins skal v?re outputs
	DDRA = 0xFF;
    4248:	8f ef       	ldi	r24, 0xFF	; 255
    424a:	81 b9       	out	0x01, r24	; 1
	DDRC = 0xFF;
    424c:	87 b9       	out	0x07, r24	; 7
	
	PORTG |= 0b00000111;
    424e:	84 b3       	in	r24, 0x14	; 20
    4250:	87 60       	ori	r24, 0x07	; 7
    4252:	84 bb       	out	0x14, r24	; 20
	PORTD |= 0b10000000;
    4254:	5f 9a       	sbi	0x0b, 7	; 11
	
	RST_PORT &= ~(1<<RST_BIT);
    4256:	a0 98       	cbi	0x14, 0	; 20
	#else
		//round up by default
		__ticks_dc = (uint32_t)(ceil(fabs(__tmp)));
	#endif

	__builtin_avr_delay_cycles(__ticks_dc);
    4258:	2f ef       	ldi	r18, 0xFF	; 255
    425a:	89 e6       	ldi	r24, 0x69	; 105
    425c:	98 e1       	ldi	r25, 0x18	; 24
    425e:	21 50       	subi	r18, 0x01	; 1
    4260:	80 40       	sbci	r24, 0x00	; 0
    4262:	90 40       	sbci	r25, 0x00	; 0
    4264:	e1 f7       	brne	.-8      	; 0x425e <DisplayInit+0x26>
    4266:	00 c0       	rjmp	.+0      	; 0x4268 <DisplayInit+0x30>
    4268:	00 00       	nop
	
	_delay_ms(500);
	
	RST_PORT |= (1<<RST_BIT);
    426a:	a0 9a       	sbi	0x14, 0	; 20
    426c:	2f ef       	ldi	r18, 0xFF	; 255
    426e:	88 e5       	ldi	r24, 0x58	; 88
    4270:	96 e0       	ldi	r25, 0x06	; 6
    4272:	21 50       	subi	r18, 0x01	; 1
    4274:	80 40       	sbci	r24, 0x00	; 0
    4276:	90 40       	sbci	r25, 0x00	; 0
    4278:	e1 f7       	brne	.-8      	; 0x4272 <DisplayInit+0x3a>
    427a:	00 c0       	rjmp	.+0      	; 0x427c <DisplayInit+0x44>
    427c:	00 00       	nop
	
	_delay_ms(130);
	
	SleepOut();
    427e:	0e 94 72 17 	call	0x2ee4	; 0x2ee4 <SleepOut>

	DisplayOn();
    4282:	0e 94 6f 17 	call	0x2ede	; 0x2ede <DisplayOn>
	
	
	MemoryAccessControl(0b00001000);
    4286:	88 e0       	ldi	r24, 0x08	; 8
    4288:	0e 94 75 17 	call	0x2eea	; 0x2eea <MemoryAccessControl>
	InterfacePixelFormat(0b00000101);
    428c:	85 e0       	ldi	r24, 0x05	; 5
    428e:	0e 94 7e 17 	call	0x2efc	; 0x2efc <InterfacePixelFormat>
	
	ClearScreen(colourBackground);
    4292:	8d 2f       	mov	r24, r29
    4294:	ad d8       	rcall	.-3750   	; 0x33f0 <ClearScreen>
	
	WriteLetter(30,		290,	colourText, 'B');
    4296:	d0 e0       	ldi	r29, 0x00	; 0
    4298:	22 e4       	ldi	r18, 0x42	; 66
    429a:	ae 01       	movw	r20, r28
    429c:	62 e2       	ldi	r22, 0x22	; 34
    429e:	71 e0       	ldi	r23, 0x01	; 1
    42a0:	8e e1       	ldi	r24, 0x1E	; 30
    42a2:	90 e0       	ldi	r25, 0x00	; 0
    42a4:	87 de       	rcall	.-754    	; 0x3fb4 <WriteLetter>
	WriteLetter(45,		290,	colourText, 'r');
    42a6:	22 e7       	ldi	r18, 0x72	; 114
    42a8:	ae 01       	movw	r20, r28
    42aa:	62 e2       	ldi	r22, 0x22	; 34
    42ac:	71 e0       	ldi	r23, 0x01	; 1
    42ae:	8d e2       	ldi	r24, 0x2D	; 45
    42b0:	90 e0       	ldi	r25, 0x00	; 0
    42b2:	80 de       	rcall	.-768    	; 0x3fb4 <WriteLetter>
	WriteLetter(57,		290,	colourText, 'e');
    42b4:	25 e6       	ldi	r18, 0x65	; 101
    42b6:	ae 01       	movw	r20, r28
    42b8:	62 e2       	ldi	r22, 0x22	; 34
    42ba:	71 e0       	ldi	r23, 0x01	; 1
    42bc:	89 e3       	ldi	r24, 0x39	; 57
    42be:	90 e0       	ldi	r25, 0x00	; 0
    42c0:	79 de       	rcall	.-782    	; 0x3fb4 <WriteLetter>
	WriteLetter(73,		290,	colourText, 'a');
    42c2:	21 e6       	ldi	r18, 0x61	; 97
    42c4:	ae 01       	movw	r20, r28
    42c6:	62 e2       	ldi	r22, 0x22	; 34
    42c8:	71 e0       	ldi	r23, 0x01	; 1
    42ca:	89 e4       	ldi	r24, 0x49	; 73
    42cc:	90 e0       	ldi	r25, 0x00	; 0
    42ce:	72 de       	rcall	.-796    	; 0x3fb4 <WriteLetter>
	WriteLetter(89,		290,	colourText, 't');
    42d0:	24 e7       	ldi	r18, 0x74	; 116
    42d2:	ae 01       	movw	r20, r28
    42d4:	62 e2       	ldi	r22, 0x22	; 34
    42d6:	71 e0       	ldi	r23, 0x01	; 1
    42d8:	89 e5       	ldi	r24, 0x59	; 89
    42da:	90 e0       	ldi	r25, 0x00	; 0
    42dc:	6b de       	rcall	.-810    	; 0x3fb4 <WriteLetter>
	WriteLetter(105,	290,	colourText, 'h');
    42de:	28 e6       	ldi	r18, 0x68	; 104
    42e0:	ae 01       	movw	r20, r28
    42e2:	62 e2       	ldi	r22, 0x22	; 34
    42e4:	71 e0       	ldi	r23, 0x01	; 1
    42e6:	89 e6       	ldi	r24, 0x69	; 105
    42e8:	90 e0       	ldi	r25, 0x00	; 0
    42ea:	64 de       	rcall	.-824    	; 0x3fb4 <WriteLetter>
	WriteLetter(121,	290,	colourText, 'a');
    42ec:	21 e6       	ldi	r18, 0x61	; 97
    42ee:	ae 01       	movw	r20, r28
    42f0:	62 e2       	ldi	r22, 0x22	; 34
    42f2:	71 e0       	ldi	r23, 0x01	; 1
    42f4:	89 e7       	ldi	r24, 0x79	; 121
    42f6:	90 e0       	ldi	r25, 0x00	; 0
    42f8:	5d de       	rcall	.-838    	; 0x3fb4 <WriteLetter>
	WriteLetter(137,	290,	colourText, 'l');
    42fa:	2c e6       	ldi	r18, 0x6C	; 108
    42fc:	ae 01       	movw	r20, r28
    42fe:	62 e2       	ldi	r22, 0x22	; 34
    4300:	71 e0       	ldi	r23, 0x01	; 1
    4302:	89 e8       	ldi	r24, 0x89	; 137
    4304:	90 e0       	ldi	r25, 0x00	; 0
    4306:	56 de       	rcall	.-852    	; 0x3fb4 <WriteLetter>
	WriteLetter(152,	285,	colourText, 'y');
    4308:	29 e7       	ldi	r18, 0x79	; 121
    430a:	ae 01       	movw	r20, r28
    430c:	6d e1       	ldi	r22, 0x1D	; 29
    430e:	71 e0       	ldi	r23, 0x01	; 1
    4310:	88 e9       	ldi	r24, 0x98	; 152
    4312:	90 e0       	ldi	r25, 0x00	; 0
    4314:	4f de       	rcall	.-866    	; 0x3fb4 <WriteLetter>
	WriteLetter(168,	290,	colourText, 'z');
    4316:	2a e7       	ldi	r18, 0x7A	; 122
    4318:	ae 01       	movw	r20, r28
    431a:	62 e2       	ldi	r22, 0x22	; 34
    431c:	71 e0       	ldi	r23, 0x01	; 1
    431e:	88 ea       	ldi	r24, 0xA8	; 168
    4320:	90 e0       	ldi	r25, 0x00	; 0
    4322:	48 de       	rcall	.-880    	; 0x3fb4 <WriteLetter>
	WriteLetter(184,	290,	colourText, 'e');
    4324:	25 e6       	ldi	r18, 0x65	; 101
    4326:	ae 01       	movw	r20, r28
    4328:	62 e2       	ldi	r22, 0x22	; 34
    432a:	71 e0       	ldi	r23, 0x01	; 1
    432c:	88 eb       	ldi	r24, 0xB8	; 184
    432e:	90 e0       	ldi	r25, 0x00	; 0
    4330:	41 de       	rcall	.-894    	; 0x3fb4 <WriteLetter>
	WriteLetter(200,	290,	colourText, 'r');
    4332:	22 e7       	ldi	r18, 0x72	; 114
    4334:	ae 01       	movw	r20, r28
    4336:	62 e2       	ldi	r22, 0x22	; 34
    4338:	71 e0       	ldi	r23, 0x01	; 1
    433a:	88 ec       	ldi	r24, 0xC8	; 200
    433c:	90 e0       	ldi	r25, 0x00	; 0
    433e:	3a de       	rcall	.-908    	; 0x3fb4 <WriteLetter>
	
	WriteLetter(60,		140,	colourText, 'P');
    4340:	20 e5       	ldi	r18, 0x50	; 80
    4342:	ae 01       	movw	r20, r28
    4344:	6c e8       	ldi	r22, 0x8C	; 140
    4346:	70 e0       	ldi	r23, 0x00	; 0
    4348:	8c e3       	ldi	r24, 0x3C	; 60
    434a:	90 e0       	ldi	r25, 0x00	; 0
    434c:	33 de       	rcall	.-922    	; 0x3fb4 <WriteLetter>
	WriteLetter(75,		140,	colourText, 'r');
    434e:	22 e7       	ldi	r18, 0x72	; 114
    4350:	ae 01       	movw	r20, r28
    4352:	6c e8       	ldi	r22, 0x8C	; 140
    4354:	70 e0       	ldi	r23, 0x00	; 0
    4356:	8b e4       	ldi	r24, 0x4B	; 75
    4358:	90 e0       	ldi	r25, 0x00	; 0
    435a:	2c de       	rcall	.-936    	; 0x3fb4 <WriteLetter>
	WriteLetter(87,		140,	colourText, 'o');
    435c:	2f e6       	ldi	r18, 0x6F	; 111
    435e:	ae 01       	movw	r20, r28
    4360:	6c e8       	ldi	r22, 0x8C	; 140
    4362:	70 e0       	ldi	r23, 0x00	; 0
    4364:	87 e5       	ldi	r24, 0x57	; 87
    4366:	90 e0       	ldi	r25, 0x00	; 0
    4368:	25 de       	rcall	.-950    	; 0x3fb4 <WriteLetter>
	WriteLetter(116,	140,	colourText, 'i');
    436a:	29 e6       	ldi	r18, 0x69	; 105
    436c:	ae 01       	movw	r20, r28
    436e:	6c e8       	ldi	r22, 0x8C	; 140
    4370:	70 e0       	ldi	r23, 0x00	; 0
    4372:	84 e7       	ldi	r24, 0x74	; 116
    4374:	90 e0       	ldi	r25, 0x00	; 0
    4376:	1e de       	rcall	.-964    	; 0x3fb4 <WriteLetter>
	WriteLetter(104,	140,	colourText, 'm');
    4378:	2d e6       	ldi	r18, 0x6D	; 109
    437a:	ae 01       	movw	r20, r28
    437c:	6c e8       	ldi	r22, 0x8C	; 140
    437e:	70 e0       	ldi	r23, 0x00	; 0
    4380:	88 e6       	ldi	r24, 0x68	; 104
    4382:	90 e0       	ldi	r25, 0x00	; 0
    4384:	17 de       	rcall	.-978    	; 0x3fb4 <WriteLetter>
	WriteLetter(127,	140,	colourText, 'l');
    4386:	2c e6       	ldi	r18, 0x6C	; 108
    4388:	ae 01       	movw	r20, r28
    438a:	6c e8       	ldi	r22, 0x8C	; 140
    438c:	70 e0       	ldi	r23, 0x00	; 0
    438e:	8f e7       	ldi	r24, 0x7F	; 127
    4390:	90 e0       	ldi	r25, 0x00	; 0
    4392:	10 de       	rcall	.-992    	; 0x3fb4 <WriteLetter>
	WriteLetter(139,	140,	colourText, 'l');
    4394:	2c e6       	ldi	r18, 0x6C	; 108
    4396:	ae 01       	movw	r20, r28
    4398:	6c e8       	ldi	r22, 0x8C	; 140
    439a:	70 e0       	ldi	r23, 0x00	; 0
    439c:	8b e8       	ldi	r24, 0x8B	; 139
    439e:	90 e0       	ldi	r25, 0x00	; 0
    43a0:	09 de       	rcall	.-1006   	; 0x3fb4 <WriteLetter>
	WriteLetter(153,	140,	colourText, 'e');
    43a2:	25 e6       	ldi	r18, 0x65	; 101
    43a4:	ae 01       	movw	r20, r28
    43a6:	6c e8       	ldi	r22, 0x8C	; 140
    43a8:	70 e0       	ldi	r23, 0x00	; 0
    43aa:	89 e9       	ldi	r24, 0x99	; 153
    43ac:	90 e0       	ldi	r25, 0x00	; 0
    43ae:	02 de       	rcall	.-1020   	; 0x3fb4 <WriteLetter>
    43b0:	2a e3       	ldi	r18, 0x3A	; 58
	WriteLetter(167,	137,	colourText, ':');
    43b2:	ae 01       	movw	r20, r28
    43b4:	69 e8       	ldi	r22, 0x89	; 137
    43b6:	70 e0       	ldi	r23, 0x00	; 0
    43b8:	87 ea       	ldi	r24, 0xA7	; 167
    43ba:	90 e0       	ldi	r25, 0x00	; 0
    43bc:	fb dd       	rcall	.-1034   	; 0x3fb4 <WriteLetter>
    43be:	df 91       	pop	r29
    43c0:	cf 91       	pop	r28
	
}
    43c2:	08 95       	ret

000043c4 <main>:
    43c4:	cf 93       	push	r28
    43c6:	df 93       	push	r29

FATFS FatFs;		/* FatFs work area needed for each volume */
FIL Fil;			/* File object needed for each open file */

int main(void)
{
    43c8:	cd b7       	in	r28, 0x3d	; 61
    43ca:	de b7       	in	r29, 0x3e	; 62
    43cc:	cc 5e       	subi	r28, 0xEC	; 236
    43ce:	d1 09       	sbc	r29, r1
    43d0:	0f b6       	in	r0, 0x3f	; 63
    43d2:	f8 94       	cli
    43d4:	de bf       	out	0x3e, r29	; 62
    43d6:	0f be       	out	0x3f, r0	; 63
    43d8:	cd bf       	out	0x3d, r28	; 61
	// ========================================= //
	
	///-main_init_start
	
	// Initialize UART0 (Baud Rate = 9600, 8 Databits, No Parity)
	InitUART(UART0, 9600, 8,'A');
    43da:	01 e4       	ldi	r16, 0x41	; 65
    43dc:	28 e0       	ldi	r18, 0x08	; 8
    43de:	40 e8       	ldi	r20, 0x80	; 128
    43e0:	55 e2       	ldi	r21, 0x25	; 37
    43e2:	60 e0       	ldi	r22, 0x00	; 0
    43e4:	70 e0       	ldi	r23, 0x00	; 0
    43e6:	80 ec       	ldi	r24, 0xC0	; 192
    43e8:	90 e0       	ldi	r25, 0x00	; 0
    43ea:	0e 94 f0 16 	call	0x2de0	; 0x2de0 <InitUART>
	SendString(UART0, "UART Initialized\r\n");
    43ee:	61 e5       	ldi	r22, 0x51	; 81
    43f0:	70 e1       	ldi	r23, 0x10	; 16
    43f2:	80 ec       	ldi	r24, 0xC0	; 192
    43f4:	90 e0       	ldi	r25, 0x00	; 0
    43f6:	0e 94 4a 17 	call	0x2e94	; 0x2e94 <SendString>
	
	// Initialize Digital Pin 13 (= PB7) to input (Actually Pin 8-13 are all inputs now)
	InitButton(0);
    43fa:	80 e0       	ldi	r24, 0x00	; 0
    43fc:	0e 94 85 02 	call	0x50a	; 0x50a <InitButton>
	
	// Initialize the Breathalyzer/Gas Sensor
	breathalyzerInit();
    4400:	0e 94 e8 01 	call	0x3d0	; 0x3d0 <breathalyzerInit>
	float BAC = 0;
	bool newMeasurement = false;
	SendString(UART0, "Breathalyzer Initialized\r\n");
    4404:	64 e6       	ldi	r22, 0x64	; 100
    4406:	70 e1       	ldi	r23, 0x10	; 16
    4408:	80 ec       	ldi	r24, 0xC0	; 192
    440a:	90 e0       	ldi	r25, 0x00	; 0
    440c:	0e 94 4a 17 	call	0x2e94	; 0x2e94 <SendString>
	
	// Initialize the TFT Display
	DisplayInit(MAGENTA, BLACK);
    4410:	60 e0       	ldi	r22, 0x00	; 0
    4412:	8a e0       	ldi	r24, 0x0A	; 10
    4414:	11 df       	rcall	.-478    	; 0x4238 <DisplayInit>
	SendString(UART0, "TFT Display Initialized\r\n");
    4416:	6f e7       	ldi	r22, 0x7F	; 127
    4418:	70 e1       	ldi	r23, 0x10	; 16
    441a:	80 ec       	ldi	r24, 0xC0	; 192
    441c:	90 e0       	ldi	r25, 0x00	; 0
    441e:	0e 94 4a 17 	call	0x2e94	; 0x2e94 <SendString>

	// Setup of SD card
	uint16_t pressCount = 0;
	UINT bw;
	FRESULT fr;
	f_mount(&FatFs, "", 0);											/* Give a work area to the default drive */
    4422:	40 e0       	ldi	r20, 0x00	; 0
    4424:	6f eb       	ldi	r22, 0xBF	; 191
    4426:	70 e1       	ldi	r23, 0x10	; 16
    4428:	8b e7       	ldi	r24, 0x7B	; 123
    442a:	91 e1       	ldi	r25, 0x11	; 17
    442c:	0e 94 f9 10 	call	0x21f2	; 0x21f2 <f_mount>
	
	fr = f_open(&Fil, "Datalog.txt", FA_WRITE | FA_CREATE_ALWAYS);	// Change to FA_CREATE_NEW to only create a new one when no file exists
    4430:	4a e0       	ldi	r20, 0x0A	; 10
    4432:	69 e9       	ldi	r22, 0x99	; 153
    4434:	70 e1       	ldi	r23, 0x10	; 16
    4436:	8a ea       	ldi	r24, 0xAA	; 170
    4438:	93 e1       	ldi	r25, 0x13	; 19
    443a:	0e 94 3d 11 	call	0x227a	; 0x227a <f_open>
	
	char msg[50];
	int btw = 0;
	btw = sprintf(msg, "Breathalyzer Datalogger!\r\n");
    443e:	9b e1       	ldi	r25, 0x1B	; 27
    4440:	e5 ea       	ldi	r30, 0xA5	; 165
    4442:	f0 e1       	ldi	r31, 0x10	; 16
    4444:	de 01       	movw	r26, r28
    4446:	a7 5b       	subi	r26, 0xB7	; 183
    4448:	bf 4f       	sbci	r27, 0xFF	; 255
    444a:	01 90       	ld	r0, Z+
    444c:	0d 92       	st	X+, r0
    444e:	9a 95       	dec	r25
    4450:	e1 f7       	brne	.-8      	; 0x444a <main+0x86>
	
	if (fr == FR_OK) {
    4452:	81 11       	cpse	r24, r1
    4454:	1e c0       	rjmp	.+60     	; 0x4492 <main+0xce>
		f_write(&Fil, msg, btw, &bw);
    4456:	9e 01       	movw	r18, r28
    4458:	29 5b       	subi	r18, 0xB9	; 185
    445a:	3f 4f       	sbci	r19, 0xFF	; 255
    445c:	4a e1       	ldi	r20, 0x1A	; 26
    445e:	50 e0       	ldi	r21, 0x00	; 0
    4460:	be 01       	movw	r22, r28
    4462:	67 5b       	subi	r22, 0xB7	; 183
    4464:	7f 4f       	sbci	r23, 0xFF	; 255
    4466:	8a ea       	ldi	r24, 0xAA	; 170
    4468:	93 e1       	ldi	r25, 0x13	; 19
    446a:	0e 94 11 13 	call	0x2622	; 0x2622 <f_write>
		fr = f_close(&Fil);
    446e:	8a ea       	ldi	r24, 0xAA	; 170
    4470:	93 e1       	ldi	r25, 0x13	; 19
    4472:	0e 94 58 15 	call	0x2ab0	; 0x2ab0 <f_close>
		if (fr == FR_OK && bw == btw) {
    4476:	81 11       	cpse	r24, r1
    4478:	0c c0       	rjmp	.+24     	; 0x4492 <main+0xce>
    447a:	29 96       	adiw	r28, 0x09	; 9
    447c:	8e ad       	ldd	r24, Y+62	; 0x3e
    447e:	9f ad       	ldd	r25, Y+63	; 0x3f
    4480:	29 97       	sbiw	r28, 0x09	; 9
    4482:	4a 97       	sbiw	r24, 0x1a	; 26
    4484:	31 f4       	brne	.+12     	; 0x4492 <main+0xce>
			SendString(UART0,"Datalog.txt er oprettet!\r\n");
    4486:	60 ec       	ldi	r22, 0xC0	; 192
    4488:	70 e1       	ldi	r23, 0x10	; 16
    448a:	80 ec       	ldi	r24, 0xC0	; 192
    448c:	90 e0       	ldi	r25, 0x00	; 0
    448e:	0e 94 4a 17 	call	0x2e94	; 0x2e94 <SendString>
	
	if(newMeasurement == true){
		/* Display new BAC value */
		WriteNumberFromADC(60, 100, BLACK, BAC);
		// Reset 
		newMeasurement = false;
    4492:	61 2c       	mov	r6, r1
    4494:	71 2c       	mov	r7, r1
    4496:	f1 2c       	mov	r15, r1
    4498:	c7 51       	subi	r28, 0x17	; 23
    449a:	df 4f       	sbci	r29, 0xFF	; 255
    449c:	18 82       	st	Y, r1
    449e:	19 82       	std	Y+1, r1	; 0x01
    44a0:	1a 82       	std	Y+2, r1	; 0x02
    44a2:	1b 82       	std	Y+3, r1	; 0x03
    44a4:	c9 5e       	subi	r28, 0xE9	; 233
    44a6:	d0 40       	sbci	r29, 0x00	; 0
				
		// ============= FOR DEBUGGING ============= //
		memset(debugMsg,'0', strlen(debugMsg));
    44a8:	ce 01       	movw	r24, r28
    44aa:	01 96       	adiw	r24, 0x01	; 1
    44ac:	5c 01       	movw	r10, r24
		memset(debugString,'0', strlen(debugString));
    44ae:	6e 01       	movw	r12, r28
    44b0:	93 e3       	ldi	r25, 0x33	; 51
    44b2:	c9 0e       	add	r12, r25
    44b4:	d1 1c       	adc	r13, r1
	
		dtostrf(BAC, 3, 3, debugString);
		sprintf(debugMsg, "BAC Level is %6s\r\n", debugString);
    44b6:	0f 2e       	mov	r0, r31
    44b8:	fd e1       	ldi	r31, 0x1D	; 29
    44ba:	8f 2e       	mov	r8, r31
    44bc:	f1 e1       	ldi	r31, 0x11	; 17
    44be:	9f 2e       	mov	r9, r31
    44c0:	f0 2d       	mov	r31, r0
	
	if(newMeasurement == true){
		/* Display new BAC value */
		WriteNumberFromADC(60, 100, BLACK, BAC);
		// Reset 
		newMeasurement = false;
    44c2:	e1 2c       	mov	r14, r1
		{
			char stringBAC[10];													// String used to store value of converted float
			char msg[50];														// String to store Datalogging msg.
			int btw;															// Size of string msg.
		
			dtostrf(BAC, 3, 3, stringBAC);
    44c4:	2e 01       	movw	r4, r28
    44c6:	2f ed       	ldi	r18, 0xDF	; 223
    44c8:	42 0e       	add	r4, r18
    44ca:	51 1c       	adc	r5, r1
			btw = sprintf(msg, "BAC Level is %6s\r\n",stringBAC);
    44cc:	1e 01       	movw	r2, r28
    44ce:	8b e7       	ldi	r24, 0x7B	; 123
    44d0:	28 0e       	add	r2, r24
    44d2:	31 1c       	adc	r3, r1
    44d4:	91 c0       	rjmp	.+290    	; 0x45f8 <main+0x234>
  while(1) 
  {
	
	while(readButtonState(7) != 0){ // Check if Pin 13 (= 7th Pin in PINB) is set
			  								
	    BAC = BacLevel();														// Get the current BAC Level
    44d6:	0e 94 ea 01 	call	0x3d4	; 0x3d4 <BacLevel>
    44da:	c7 51       	subi	r28, 0x17	; 23
    44dc:	df 4f       	sbci	r29, 0xFF	; 255
    44de:	68 83       	st	Y, r22
    44e0:	79 83       	std	Y+1, r23	; 0x01
    44e2:	8a 83       	std	Y+2, r24	; 0x02
    44e4:	9b 83       	std	Y+3, r25	; 0x03
    44e6:	c9 5e       	subi	r28, 0xE9	; 233
    44e8:	d0 40       	sbci	r29, 0x00	; 0
		
		if (newMeasurement == false)
    44ea:	f1 10       	cpse	r15, r1
    44ec:	37 c0       	rjmp	.+110    	; 0x455c <main+0x198>
		{
			pressCount++;
    44ee:	9f ef       	ldi	r25, 0xFF	; 255
    44f0:	69 1a       	sub	r6, r25
    44f2:	79 0a       	sbc	r7, r25
			
			fr = f_open(&Fil, "Datalog.txt", FA_WRITE | FA_OPEN_APPEND);			// Open the existing Datalog file
    44f4:	42 e3       	ldi	r20, 0x32	; 50
    44f6:	69 e9       	ldi	r22, 0x99	; 153
    44f8:	70 e1       	ldi	r23, 0x10	; 16
    44fa:	8a ea       	ldi	r24, 0xAA	; 170
    44fc:	93 e1       	ldi	r25, 0x13	; 19
    44fe:	0e 94 3d 11 	call	0x227a	; 0x227a <f_open>
			
			if (fr == FR_OK)
    4502:	81 11       	cpse	r24, r1
    4504:	2b c0       	rjmp	.+86     	; 0x455c <main+0x198>
			{
				char msg[100];														// String to store Datalogging msg.
				int btw;															// Size of string msg.
				
				btw = sprintf(msg, "// ==================== Measurement #%d ==================== //\r\n", pressCount);
    4506:	7f 92       	push	r7
    4508:	6f 92       	push	r6
    450a:	8b ed       	ldi	r24, 0xDB	; 219
    450c:	90 e1       	ldi	r25, 0x10	; 16
    450e:	9f 93       	push	r25
    4510:	8f 93       	push	r24
    4512:	3f 92       	push	r3
    4514:	2f 92       	push	r2
    4516:	74 d4       	rcall	.+2280   	; 0x4e00 <sprintf>
    4518:	8c 01       	movw	r16, r24
				
				f_write(&Fil, msg, btw, &bw);										// Writes the msg onto the SD Card
    451a:	9e 01       	movw	r18, r28
    451c:	29 5b       	subi	r18, 0xB9	; 185
    451e:	3f 4f       	sbci	r19, 0xFF	; 255
    4520:	ac 01       	movw	r20, r24
    4522:	b1 01       	movw	r22, r2
    4524:	8a ea       	ldi	r24, 0xAA	; 170
    4526:	93 e1       	ldi	r25, 0x13	; 19
    4528:	0e 94 11 13 	call	0x2622	; 0x2622 <f_write>
				
				fr = f_close(&Fil);													// Closes the opened file
    452c:	8a ea       	ldi	r24, 0xAA	; 170
    452e:	93 e1       	ldi	r25, 0x13	; 19
    4530:	0e 94 58 15 	call	0x2ab0	; 0x2ab0 <f_close>
				
				if (fr == FR_OK && bw == btw)										// If it was successful, send a UART message.
    4534:	0f 90       	pop	r0
    4536:	0f 90       	pop	r0
    4538:	0f 90       	pop	r0
    453a:	0f 90       	pop	r0
    453c:	0f 90       	pop	r0
    453e:	0f 90       	pop	r0
    4540:	81 11       	cpse	r24, r1
    4542:	0c c0       	rjmp	.+24     	; 0x455c <main+0x198>
    4544:	29 96       	adiw	r28, 0x09	; 9
    4546:	8e ad       	ldd	r24, Y+62	; 0x3e
    4548:	9f ad       	ldd	r25, Y+63	; 0x3f
    454a:	29 97       	sbiw	r28, 0x09	; 9
    454c:	08 17       	cp	r16, r24
    454e:	19 07       	cpc	r17, r25
    4550:	29 f4       	brne	.+10     	; 0x455c <main+0x198>
				{
					SendString(UART0, msg);
    4552:	b1 01       	movw	r22, r2
    4554:	80 ec       	ldi	r24, 0xC0	; 192
    4556:	90 e0       	ldi	r25, 0x00	; 0
    4558:	0e 94 4a 17 	call	0x2e94	; 0x2e94 <SendString>
				}
			}
		}
		
		if(BAC != 0){
    455c:	20 e0       	ldi	r18, 0x00	; 0
    455e:	30 e0       	ldi	r19, 0x00	; 0
    4560:	a9 01       	movw	r20, r18
    4562:	c7 51       	subi	r28, 0x17	; 23
    4564:	df 4f       	sbci	r29, 0xFF	; 255
    4566:	68 81       	ld	r22, Y
    4568:	79 81       	ldd	r23, Y+1	; 0x01
    456a:	8a 81       	ldd	r24, Y+2	; 0x02
    456c:	9b 81       	ldd	r25, Y+3	; 0x03
    456e:	c9 5e       	subi	r28, 0xE9	; 233
    4570:	d0 40       	sbci	r29, 0x00	; 0
    4572:	f7 d0       	rcall	.+494    	; 0x4762 <__cmpsf2>
    4574:	88 23       	and	r24, r24
    4576:	11 f0       	breq	.+4      	; 0x457c <main+0x1b8>
			newMeasurement = true;
    4578:	ff 24       	eor	r15, r15
    457a:	f3 94       	inc	r15
		dtostrf(BAC, 3, 3, debugString);
		sprintf(debugMsg, "BAC Level is %6s\r\n", debugString);
		SendString(UART0, debugMsg);*/
		// ========================================= //
	
		fr = f_open(&Fil, "Datalog.txt", FA_WRITE | FA_OPEN_APPEND);			// Open the existing Datalog file
    457c:	42 e3       	ldi	r20, 0x32	; 50
    457e:	69 e9       	ldi	r22, 0x99	; 153
    4580:	70 e1       	ldi	r23, 0x10	; 16
    4582:	8a ea       	ldi	r24, 0xAA	; 170
    4584:	93 e1       	ldi	r25, 0x13	; 19
    4586:	0e 94 3d 11 	call	0x227a	; 0x227a <f_open>
		
		if (fr == FR_OK)
    458a:	81 11       	cpse	r24, r1
    458c:	35 c0       	rjmp	.+106    	; 0x45f8 <main+0x234>
		{
			char stringBAC[10];													// String used to store value of converted float
			char msg[50];														// String to store Datalogging msg.
			int btw;															// Size of string msg.
		
			dtostrf(BAC, 3, 3, stringBAC);
    458e:	82 01       	movw	r16, r4
    4590:	23 e0       	ldi	r18, 0x03	; 3
    4592:	43 e0       	ldi	r20, 0x03	; 3
    4594:	c7 51       	subi	r28, 0x17	; 23
    4596:	df 4f       	sbci	r29, 0xFF	; 255
    4598:	68 81       	ld	r22, Y
    459a:	79 81       	ldd	r23, Y+1	; 0x01
    459c:	8a 81       	ldd	r24, Y+2	; 0x02
    459e:	9b 81       	ldd	r25, Y+3	; 0x03
    45a0:	c9 5e       	subi	r28, 0xE9	; 233
    45a2:	d0 40       	sbci	r29, 0x00	; 0
    45a4:	07 d4       	rcall	.+2062   	; 0x4db4 <dtostrf>
			btw = sprintf(msg, "BAC Level is %6s\r\n",stringBAC);
    45a6:	5f 92       	push	r5
    45a8:	4f 92       	push	r4
    45aa:	9f 92       	push	r9
    45ac:	8f 92       	push	r8
    45ae:	3f 92       	push	r3
    45b0:	2f 92       	push	r2
    45b2:	26 d4       	rcall	.+2124   	; 0x4e00 <sprintf>
    45b4:	8c 01       	movw	r16, r24
		
			f_write(&Fil, msg, btw, &bw);										// Writes the msg onto the SD Card
    45b6:	9e 01       	movw	r18, r28
    45b8:	29 5b       	subi	r18, 0xB9	; 185
    45ba:	3f 4f       	sbci	r19, 0xFF	; 255
    45bc:	ac 01       	movw	r20, r24
    45be:	b1 01       	movw	r22, r2
    45c0:	8a ea       	ldi	r24, 0xAA	; 170
    45c2:	93 e1       	ldi	r25, 0x13	; 19
    45c4:	0e 94 11 13 	call	0x2622	; 0x2622 <f_write>
		
			fr = f_close(&Fil);													// Closes the opened file
    45c8:	8a ea       	ldi	r24, 0xAA	; 170
    45ca:	93 e1       	ldi	r25, 0x13	; 19
    45cc:	0e 94 58 15 	call	0x2ab0	; 0x2ab0 <f_close>
		
			if (fr == FR_OK && bw == btw)										// If it was successful, send a UART message.
    45d0:	0f 90       	pop	r0
    45d2:	0f 90       	pop	r0
    45d4:	0f 90       	pop	r0
    45d6:	0f 90       	pop	r0
    45d8:	0f 90       	pop	r0
    45da:	0f 90       	pop	r0
    45dc:	81 11       	cpse	r24, r1
    45de:	0c c0       	rjmp	.+24     	; 0x45f8 <main+0x234>
    45e0:	29 96       	adiw	r28, 0x09	; 9
    45e2:	8e ad       	ldd	r24, Y+62	; 0x3e
    45e4:	9f ad       	ldd	r25, Y+63	; 0x3f
    45e6:	29 97       	sbiw	r28, 0x09	; 9
    45e8:	08 17       	cp	r16, r24
    45ea:	19 07       	cpc	r17, r25
    45ec:	29 f4       	brne	.+10     	; 0x45f8 <main+0x234>
			{
				SendString(UART0, msg);
    45ee:	b1 01       	movw	r22, r2
    45f0:	80 ec       	ldi	r24, 0xC0	; 192
    45f2:	90 e0       	ldi	r25, 0x00	; 0
    45f4:	0e 94 4a 17 	call	0x2e94	; 0x2e94 <SendString>
 
 ///-while_start
  while(1) 
  {
	
	while(readButtonState(7) != 0){ // Check if Pin 13 (= 7th Pin in PINB) is set
    45f8:	87 e0       	ldi	r24, 0x07	; 7
    45fa:	90 e0       	ldi	r25, 0x00	; 0
    45fc:	0e 94 88 02 	call	0x510	; 0x510 <readButtonState>
    4600:	89 2b       	or	r24, r25
    4602:	09 f0       	breq	.+2      	; 0x4606 <main+0x242>
    4604:	68 cf       	rjmp	.-304    	; 0x44d6 <main+0x112>
			}
		
		}
	}
	
	if(newMeasurement == true){
    4606:	ff 20       	and	r15, r15
    4608:	b9 f3       	breq	.-18     	; 0x45f8 <main+0x234>
		/* Display new BAC value */
		WriteNumberFromADC(60, 100, BLACK, BAC);
    460a:	c7 51       	subi	r28, 0x17	; 23
    460c:	df 4f       	sbci	r29, 0xFF	; 255
    460e:	08 81       	ld	r16, Y
    4610:	19 81       	ldd	r17, Y+1	; 0x01
    4612:	2a 81       	ldd	r18, Y+2	; 0x02
    4614:	3b 81       	ldd	r19, Y+3	; 0x03
    4616:	c9 5e       	subi	r28, 0xE9	; 233
    4618:	d0 40       	sbci	r29, 0x00	; 0
    461a:	40 e0       	ldi	r20, 0x00	; 0
    461c:	50 e0       	ldi	r21, 0x00	; 0
    461e:	64 e6       	ldi	r22, 0x64	; 100
    4620:	70 e0       	ldi	r23, 0x00	; 0
    4622:	8c e3       	ldi	r24, 0x3C	; 60
    4624:	90 e0       	ldi	r25, 0x00	; 0
    4626:	83 db       	rcall	.-2298   	; 0x3d2e <WriteNumberFromADC>
		// Reset 
		newMeasurement = false;
				
		// ============= FOR DEBUGGING ============= //
		memset(debugMsg,'0', strlen(debugMsg));
    4628:	f5 01       	movw	r30, r10
    462a:	01 90       	ld	r0, Z+
    462c:	00 20       	and	r0, r0
    462e:	e9 f7       	brne	.-6      	; 0x462a <main+0x266>
    4630:	31 97       	sbiw	r30, 0x01	; 1
    4632:	af 01       	movw	r20, r30
    4634:	4a 19       	sub	r20, r10
    4636:	5b 09       	sbc	r21, r11
    4638:	60 e3       	ldi	r22, 0x30	; 48
    463a:	70 e0       	ldi	r23, 0x00	; 0
    463c:	c5 01       	movw	r24, r10
    463e:	d9 d3       	rcall	.+1970   	; 0x4df2 <memset>
		memset(debugString,'0', strlen(debugString));
    4640:	f6 01       	movw	r30, r12
    4642:	01 90       	ld	r0, Z+
    4644:	00 20       	and	r0, r0
    4646:	e9 f7       	brne	.-6      	; 0x4642 <main+0x27e>
    4648:	31 97       	sbiw	r30, 0x01	; 1
    464a:	af 01       	movw	r20, r30
    464c:	4c 19       	sub	r20, r12
    464e:	5d 09       	sbc	r21, r13
    4650:	60 e3       	ldi	r22, 0x30	; 48
    4652:	70 e0       	ldi	r23, 0x00	; 0
    4654:	c6 01       	movw	r24, r12
    4656:	cd d3       	rcall	.+1946   	; 0x4df2 <memset>
	
		dtostrf(BAC, 3, 3, debugString);
    4658:	86 01       	movw	r16, r12
    465a:	23 e0       	ldi	r18, 0x03	; 3
    465c:	43 e0       	ldi	r20, 0x03	; 3
    465e:	c7 51       	subi	r28, 0x17	; 23
    4660:	df 4f       	sbci	r29, 0xFF	; 255
    4662:	68 81       	ld	r22, Y
    4664:	79 81       	ldd	r23, Y+1	; 0x01
    4666:	8a 81       	ldd	r24, Y+2	; 0x02
    4668:	9b 81       	ldd	r25, Y+3	; 0x03
    466a:	c9 5e       	subi	r28, 0xE9	; 233
    466c:	d0 40       	sbci	r29, 0x00	; 0
		sprintf(debugMsg, "BAC Level is %6s\r\n", debugString);
    466e:	a2 d3       	rcall	.+1860   	; 0x4db4 <dtostrf>
    4670:	df 92       	push	r13
    4672:	cf 92       	push	r12
    4674:	9f 92       	push	r9
    4676:	8f 92       	push	r8
    4678:	bf 92       	push	r11
    467a:	af 92       	push	r10
    467c:	c1 d3       	rcall	.+1922   	; 0x4e00 <sprintf>
		SendString(UART0, debugMsg);
    467e:	b5 01       	movw	r22, r10
    4680:	80 ec       	ldi	r24, 0xC0	; 192
    4682:	90 e0       	ldi	r25, 0x00	; 0
    4684:	0e 94 4a 17 	call	0x2e94	; 0x2e94 <SendString>
    4688:	0f 90       	pop	r0
    468a:	0f 90       	pop	r0
    468c:	0f 90       	pop	r0
    468e:	0f 90       	pop	r0
    4690:	0f 90       	pop	r0
    4692:	0f 90       	pop	r0
	
	if(newMeasurement == true){
		/* Display new BAC value */
		WriteNumberFromADC(60, 100, BLACK, BAC);
		// Reset 
		newMeasurement = false;
    4694:	fe 2c       	mov	r15, r14
    4696:	b0 cf       	rjmp	.-160    	; 0x45f8 <main+0x234>

00004698 <__subsf3>:
    4698:	50 58       	subi	r21, 0x80	; 128

0000469a <__addsf3>:
    469a:	bb 27       	eor	r27, r27
    469c:	aa 27       	eor	r26, r26
    469e:	0e d0       	rcall	.+28     	; 0x46bc <__addsf3x>
    46a0:	44 c1       	rjmp	.+648    	; 0x492a <__fp_round>
    46a2:	35 d1       	rcall	.+618    	; 0x490e <__fp_pscA>
    46a4:	30 f0       	brcs	.+12     	; 0x46b2 <__addsf3+0x18>
    46a6:	3a d1       	rcall	.+628    	; 0x491c <__fp_pscB>
    46a8:	20 f0       	brcs	.+8      	; 0x46b2 <__addsf3+0x18>
    46aa:	31 f4       	brne	.+12     	; 0x46b8 <__addsf3+0x1e>
    46ac:	9f 3f       	cpi	r25, 0xFF	; 255
    46ae:	11 f4       	brne	.+4      	; 0x46b4 <__addsf3+0x1a>
    46b0:	1e f4       	brtc	.+6      	; 0x46b8 <__addsf3+0x1e>
    46b2:	2a c1       	rjmp	.+596    	; 0x4908 <__fp_nan>
    46b4:	0e f4       	brtc	.+2      	; 0x46b8 <__addsf3+0x1e>
    46b6:	e0 95       	com	r30
    46b8:	e7 fb       	bst	r30, 7
    46ba:	20 c1       	rjmp	.+576    	; 0x48fc <__fp_inf>

000046bc <__addsf3x>:
    46bc:	e9 2f       	mov	r30, r25
    46be:	46 d1       	rcall	.+652    	; 0x494c <__fp_split3>
    46c0:	80 f3       	brcs	.-32     	; 0x46a2 <__addsf3+0x8>
    46c2:	ba 17       	cp	r27, r26
    46c4:	62 07       	cpc	r22, r18
    46c6:	73 07       	cpc	r23, r19
    46c8:	84 07       	cpc	r24, r20
    46ca:	95 07       	cpc	r25, r21
    46cc:	18 f0       	brcs	.+6      	; 0x46d4 <__addsf3x+0x18>
    46ce:	71 f4       	brne	.+28     	; 0x46ec <__addsf3x+0x30>
    46d0:	9e f5       	brtc	.+102    	; 0x4738 <__addsf3x+0x7c>
    46d2:	5e c1       	rjmp	.+700    	; 0x4990 <__fp_zero>
    46d4:	0e f4       	brtc	.+2      	; 0x46d8 <__addsf3x+0x1c>
    46d6:	e0 95       	com	r30
    46d8:	0b 2e       	mov	r0, r27
    46da:	ba 2f       	mov	r27, r26
    46dc:	a0 2d       	mov	r26, r0
    46de:	0b 01       	movw	r0, r22
    46e0:	b9 01       	movw	r22, r18
    46e2:	90 01       	movw	r18, r0
    46e4:	0c 01       	movw	r0, r24
    46e6:	ca 01       	movw	r24, r20
    46e8:	a0 01       	movw	r20, r0
    46ea:	11 24       	eor	r1, r1
    46ec:	ff 27       	eor	r31, r31
    46ee:	59 1b       	sub	r21, r25
    46f0:	99 f0       	breq	.+38     	; 0x4718 <__addsf3x+0x5c>
    46f2:	59 3f       	cpi	r21, 0xF9	; 249
    46f4:	50 f4       	brcc	.+20     	; 0x470a <__addsf3x+0x4e>
    46f6:	50 3e       	cpi	r21, 0xE0	; 224
    46f8:	68 f1       	brcs	.+90     	; 0x4754 <__addsf3x+0x98>
    46fa:	1a 16       	cp	r1, r26
    46fc:	f0 40       	sbci	r31, 0x00	; 0
    46fe:	a2 2f       	mov	r26, r18
    4700:	23 2f       	mov	r18, r19
    4702:	34 2f       	mov	r19, r20
    4704:	44 27       	eor	r20, r20
    4706:	58 5f       	subi	r21, 0xF8	; 248
    4708:	f3 cf       	rjmp	.-26     	; 0x46f0 <__addsf3x+0x34>
    470a:	46 95       	lsr	r20
    470c:	37 95       	ror	r19
    470e:	27 95       	ror	r18
    4710:	a7 95       	ror	r26
    4712:	f0 40       	sbci	r31, 0x00	; 0
    4714:	53 95       	inc	r21
    4716:	c9 f7       	brne	.-14     	; 0x470a <__addsf3x+0x4e>
    4718:	7e f4       	brtc	.+30     	; 0x4738 <__addsf3x+0x7c>
    471a:	1f 16       	cp	r1, r31
    471c:	ba 0b       	sbc	r27, r26
    471e:	62 0b       	sbc	r22, r18
    4720:	73 0b       	sbc	r23, r19
    4722:	84 0b       	sbc	r24, r20
    4724:	ba f0       	brmi	.+46     	; 0x4754 <__addsf3x+0x98>
    4726:	91 50       	subi	r25, 0x01	; 1
    4728:	a1 f0       	breq	.+40     	; 0x4752 <__addsf3x+0x96>
    472a:	ff 0f       	add	r31, r31
    472c:	bb 1f       	adc	r27, r27
    472e:	66 1f       	adc	r22, r22
    4730:	77 1f       	adc	r23, r23
    4732:	88 1f       	adc	r24, r24
    4734:	c2 f7       	brpl	.-16     	; 0x4726 <__addsf3x+0x6a>
    4736:	0e c0       	rjmp	.+28     	; 0x4754 <__addsf3x+0x98>
    4738:	ba 0f       	add	r27, r26
    473a:	62 1f       	adc	r22, r18
    473c:	73 1f       	adc	r23, r19
    473e:	84 1f       	adc	r24, r20
    4740:	48 f4       	brcc	.+18     	; 0x4754 <__addsf3x+0x98>
    4742:	87 95       	ror	r24
    4744:	77 95       	ror	r23
    4746:	67 95       	ror	r22
    4748:	b7 95       	ror	r27
    474a:	f7 95       	ror	r31
    474c:	9e 3f       	cpi	r25, 0xFE	; 254
    474e:	08 f0       	brcs	.+2      	; 0x4752 <__addsf3x+0x96>
    4750:	b3 cf       	rjmp	.-154    	; 0x46b8 <__addsf3+0x1e>
    4752:	93 95       	inc	r25
    4754:	88 0f       	add	r24, r24
    4756:	08 f0       	brcs	.+2      	; 0x475a <__addsf3x+0x9e>
    4758:	99 27       	eor	r25, r25
    475a:	ee 0f       	add	r30, r30
    475c:	97 95       	ror	r25
    475e:	87 95       	ror	r24
    4760:	08 95       	ret

00004762 <__cmpsf2>:
    4762:	a8 d0       	rcall	.+336    	; 0x48b4 <__fp_cmp>
    4764:	08 f4       	brcc	.+2      	; 0x4768 <__cmpsf2+0x6>
    4766:	81 e0       	ldi	r24, 0x01	; 1
    4768:	08 95       	ret

0000476a <__divsf3>:
    476a:	0c d0       	rcall	.+24     	; 0x4784 <__divsf3x>
    476c:	de c0       	rjmp	.+444    	; 0x492a <__fp_round>
    476e:	d6 d0       	rcall	.+428    	; 0x491c <__fp_pscB>
    4770:	40 f0       	brcs	.+16     	; 0x4782 <__divsf3+0x18>
    4772:	cd d0       	rcall	.+410    	; 0x490e <__fp_pscA>
    4774:	30 f0       	brcs	.+12     	; 0x4782 <__divsf3+0x18>
    4776:	21 f4       	brne	.+8      	; 0x4780 <__divsf3+0x16>
    4778:	5f 3f       	cpi	r21, 0xFF	; 255
    477a:	19 f0       	breq	.+6      	; 0x4782 <__divsf3+0x18>
    477c:	bf c0       	rjmp	.+382    	; 0x48fc <__fp_inf>
    477e:	51 11       	cpse	r21, r1
    4780:	08 c1       	rjmp	.+528    	; 0x4992 <__fp_szero>
    4782:	c2 c0       	rjmp	.+388    	; 0x4908 <__fp_nan>

00004784 <__divsf3x>:
    4784:	e3 d0       	rcall	.+454    	; 0x494c <__fp_split3>
    4786:	98 f3       	brcs	.-26     	; 0x476e <__divsf3+0x4>

00004788 <__divsf3_pse>:
    4788:	99 23       	and	r25, r25
    478a:	c9 f3       	breq	.-14     	; 0x477e <__divsf3+0x14>
    478c:	55 23       	and	r21, r21
    478e:	b1 f3       	breq	.-20     	; 0x477c <__divsf3+0x12>
    4790:	95 1b       	sub	r25, r21
    4792:	55 0b       	sbc	r21, r21
    4794:	bb 27       	eor	r27, r27
    4796:	aa 27       	eor	r26, r26
    4798:	62 17       	cp	r22, r18
    479a:	73 07       	cpc	r23, r19
    479c:	84 07       	cpc	r24, r20
    479e:	38 f0       	brcs	.+14     	; 0x47ae <__divsf3_pse+0x26>
    47a0:	9f 5f       	subi	r25, 0xFF	; 255
    47a2:	5f 4f       	sbci	r21, 0xFF	; 255
    47a4:	22 0f       	add	r18, r18
    47a6:	33 1f       	adc	r19, r19
    47a8:	44 1f       	adc	r20, r20
    47aa:	aa 1f       	adc	r26, r26
    47ac:	a9 f3       	breq	.-22     	; 0x4798 <__divsf3_pse+0x10>
    47ae:	33 d0       	rcall	.+102    	; 0x4816 <__divsf3_pse+0x8e>
    47b0:	0e 2e       	mov	r0, r30
    47b2:	3a f0       	brmi	.+14     	; 0x47c2 <__divsf3_pse+0x3a>
    47b4:	e0 e8       	ldi	r30, 0x80	; 128
    47b6:	30 d0       	rcall	.+96     	; 0x4818 <__divsf3_pse+0x90>
    47b8:	91 50       	subi	r25, 0x01	; 1
    47ba:	50 40       	sbci	r21, 0x00	; 0
    47bc:	e6 95       	lsr	r30
    47be:	00 1c       	adc	r0, r0
    47c0:	ca f7       	brpl	.-14     	; 0x47b4 <__divsf3_pse+0x2c>
    47c2:	29 d0       	rcall	.+82     	; 0x4816 <__divsf3_pse+0x8e>
    47c4:	fe 2f       	mov	r31, r30
    47c6:	27 d0       	rcall	.+78     	; 0x4816 <__divsf3_pse+0x8e>
    47c8:	66 0f       	add	r22, r22
    47ca:	77 1f       	adc	r23, r23
    47cc:	88 1f       	adc	r24, r24
    47ce:	bb 1f       	adc	r27, r27
    47d0:	26 17       	cp	r18, r22
    47d2:	37 07       	cpc	r19, r23
    47d4:	48 07       	cpc	r20, r24
    47d6:	ab 07       	cpc	r26, r27
    47d8:	b0 e8       	ldi	r27, 0x80	; 128
    47da:	09 f0       	breq	.+2      	; 0x47de <__divsf3_pse+0x56>
    47dc:	bb 0b       	sbc	r27, r27
    47de:	80 2d       	mov	r24, r0
    47e0:	bf 01       	movw	r22, r30
    47e2:	ff 27       	eor	r31, r31
    47e4:	93 58       	subi	r25, 0x83	; 131
    47e6:	5f 4f       	sbci	r21, 0xFF	; 255
    47e8:	2a f0       	brmi	.+10     	; 0x47f4 <__divsf3_pse+0x6c>
    47ea:	9e 3f       	cpi	r25, 0xFE	; 254
    47ec:	51 05       	cpc	r21, r1
    47ee:	68 f0       	brcs	.+26     	; 0x480a <__divsf3_pse+0x82>
    47f0:	85 c0       	rjmp	.+266    	; 0x48fc <__fp_inf>
    47f2:	cf c0       	rjmp	.+414    	; 0x4992 <__fp_szero>
    47f4:	5f 3f       	cpi	r21, 0xFF	; 255
    47f6:	ec f3       	brlt	.-6      	; 0x47f2 <__divsf3_pse+0x6a>
    47f8:	98 3e       	cpi	r25, 0xE8	; 232
    47fa:	dc f3       	brlt	.-10     	; 0x47f2 <__divsf3_pse+0x6a>
    47fc:	86 95       	lsr	r24
    47fe:	77 95       	ror	r23
    4800:	67 95       	ror	r22
    4802:	b7 95       	ror	r27
    4804:	f7 95       	ror	r31
    4806:	9f 5f       	subi	r25, 0xFF	; 255
    4808:	c9 f7       	brne	.-14     	; 0x47fc <__divsf3_pse+0x74>
    480a:	88 0f       	add	r24, r24
    480c:	91 1d       	adc	r25, r1
    480e:	96 95       	lsr	r25
    4810:	87 95       	ror	r24
    4812:	97 f9       	bld	r25, 7
    4814:	08 95       	ret
    4816:	e1 e0       	ldi	r30, 0x01	; 1
    4818:	66 0f       	add	r22, r22
    481a:	77 1f       	adc	r23, r23
    481c:	88 1f       	adc	r24, r24
    481e:	bb 1f       	adc	r27, r27
    4820:	62 17       	cp	r22, r18
    4822:	73 07       	cpc	r23, r19
    4824:	84 07       	cpc	r24, r20
    4826:	ba 07       	cpc	r27, r26
    4828:	20 f0       	brcs	.+8      	; 0x4832 <__divsf3_pse+0xaa>
    482a:	62 1b       	sub	r22, r18
    482c:	73 0b       	sbc	r23, r19
    482e:	84 0b       	sbc	r24, r20
    4830:	ba 0b       	sbc	r27, r26
    4832:	ee 1f       	adc	r30, r30
    4834:	88 f7       	brcc	.-30     	; 0x4818 <__divsf3_pse+0x90>
    4836:	e0 95       	com	r30
    4838:	08 95       	ret

0000483a <__floatunsisf>:
    483a:	e8 94       	clt
    483c:	09 c0       	rjmp	.+18     	; 0x4850 <__floatsisf+0x12>

0000483e <__floatsisf>:
    483e:	97 fb       	bst	r25, 7
    4840:	3e f4       	brtc	.+14     	; 0x4850 <__floatsisf+0x12>
    4842:	90 95       	com	r25
    4844:	80 95       	com	r24
    4846:	70 95       	com	r23
    4848:	61 95       	neg	r22
    484a:	7f 4f       	sbci	r23, 0xFF	; 255
    484c:	8f 4f       	sbci	r24, 0xFF	; 255
    484e:	9f 4f       	sbci	r25, 0xFF	; 255
    4850:	99 23       	and	r25, r25
    4852:	a9 f0       	breq	.+42     	; 0x487e <__floatsisf+0x40>
    4854:	f9 2f       	mov	r31, r25
    4856:	96 e9       	ldi	r25, 0x96	; 150
    4858:	bb 27       	eor	r27, r27
    485a:	93 95       	inc	r25
    485c:	f6 95       	lsr	r31
    485e:	87 95       	ror	r24
    4860:	77 95       	ror	r23
    4862:	67 95       	ror	r22
    4864:	b7 95       	ror	r27
    4866:	f1 11       	cpse	r31, r1
    4868:	f8 cf       	rjmp	.-16     	; 0x485a <__floatsisf+0x1c>
    486a:	fa f4       	brpl	.+62     	; 0x48aa <__floatsisf+0x6c>
    486c:	bb 0f       	add	r27, r27
    486e:	11 f4       	brne	.+4      	; 0x4874 <__floatsisf+0x36>
    4870:	60 ff       	sbrs	r22, 0
    4872:	1b c0       	rjmp	.+54     	; 0x48aa <__floatsisf+0x6c>
    4874:	6f 5f       	subi	r22, 0xFF	; 255
    4876:	7f 4f       	sbci	r23, 0xFF	; 255
    4878:	8f 4f       	sbci	r24, 0xFF	; 255
    487a:	9f 4f       	sbci	r25, 0xFF	; 255
    487c:	16 c0       	rjmp	.+44     	; 0x48aa <__floatsisf+0x6c>
    487e:	88 23       	and	r24, r24
    4880:	11 f0       	breq	.+4      	; 0x4886 <__floatsisf+0x48>
    4882:	96 e9       	ldi	r25, 0x96	; 150
    4884:	11 c0       	rjmp	.+34     	; 0x48a8 <__floatsisf+0x6a>
    4886:	77 23       	and	r23, r23
    4888:	21 f0       	breq	.+8      	; 0x4892 <__floatsisf+0x54>
    488a:	9e e8       	ldi	r25, 0x8E	; 142
    488c:	87 2f       	mov	r24, r23
    488e:	76 2f       	mov	r23, r22
    4890:	05 c0       	rjmp	.+10     	; 0x489c <__floatsisf+0x5e>
    4892:	66 23       	and	r22, r22
    4894:	71 f0       	breq	.+28     	; 0x48b2 <__floatsisf+0x74>
    4896:	96 e8       	ldi	r25, 0x86	; 134
    4898:	86 2f       	mov	r24, r22
    489a:	70 e0       	ldi	r23, 0x00	; 0
    489c:	60 e0       	ldi	r22, 0x00	; 0
    489e:	2a f0       	brmi	.+10     	; 0x48aa <__floatsisf+0x6c>
    48a0:	9a 95       	dec	r25
    48a2:	66 0f       	add	r22, r22
    48a4:	77 1f       	adc	r23, r23
    48a6:	88 1f       	adc	r24, r24
    48a8:	da f7       	brpl	.-10     	; 0x48a0 <__floatsisf+0x62>
    48aa:	88 0f       	add	r24, r24
    48ac:	96 95       	lsr	r25
    48ae:	87 95       	ror	r24
    48b0:	97 f9       	bld	r25, 7
    48b2:	08 95       	ret

000048b4 <__fp_cmp>:
    48b4:	99 0f       	add	r25, r25
    48b6:	00 08       	sbc	r0, r0
    48b8:	55 0f       	add	r21, r21
    48ba:	aa 0b       	sbc	r26, r26
    48bc:	e0 e8       	ldi	r30, 0x80	; 128
    48be:	fe ef       	ldi	r31, 0xFE	; 254
    48c0:	16 16       	cp	r1, r22
    48c2:	17 06       	cpc	r1, r23
    48c4:	e8 07       	cpc	r30, r24
    48c6:	f9 07       	cpc	r31, r25
    48c8:	c0 f0       	brcs	.+48     	; 0x48fa <__fp_cmp+0x46>
    48ca:	12 16       	cp	r1, r18
    48cc:	13 06       	cpc	r1, r19
    48ce:	e4 07       	cpc	r30, r20
    48d0:	f5 07       	cpc	r31, r21
    48d2:	98 f0       	brcs	.+38     	; 0x48fa <__fp_cmp+0x46>
    48d4:	62 1b       	sub	r22, r18
    48d6:	73 0b       	sbc	r23, r19
    48d8:	84 0b       	sbc	r24, r20
    48da:	95 0b       	sbc	r25, r21
    48dc:	39 f4       	brne	.+14     	; 0x48ec <__fp_cmp+0x38>
    48de:	0a 26       	eor	r0, r26
    48e0:	61 f0       	breq	.+24     	; 0x48fa <__fp_cmp+0x46>
    48e2:	23 2b       	or	r18, r19
    48e4:	24 2b       	or	r18, r20
    48e6:	25 2b       	or	r18, r21
    48e8:	21 f4       	brne	.+8      	; 0x48f2 <__fp_cmp+0x3e>
    48ea:	08 95       	ret
    48ec:	0a 26       	eor	r0, r26
    48ee:	09 f4       	brne	.+2      	; 0x48f2 <__fp_cmp+0x3e>
    48f0:	a1 40       	sbci	r26, 0x01	; 1
    48f2:	a6 95       	lsr	r26
    48f4:	8f ef       	ldi	r24, 0xFF	; 255
    48f6:	81 1d       	adc	r24, r1
    48f8:	81 1d       	adc	r24, r1
    48fa:	08 95       	ret

000048fc <__fp_inf>:
    48fc:	97 f9       	bld	r25, 7
    48fe:	9f 67       	ori	r25, 0x7F	; 127
    4900:	80 e8       	ldi	r24, 0x80	; 128
    4902:	70 e0       	ldi	r23, 0x00	; 0
    4904:	60 e0       	ldi	r22, 0x00	; 0
    4906:	08 95       	ret

00004908 <__fp_nan>:
    4908:	9f ef       	ldi	r25, 0xFF	; 255
    490a:	80 ec       	ldi	r24, 0xC0	; 192
    490c:	08 95       	ret

0000490e <__fp_pscA>:
    490e:	00 24       	eor	r0, r0
    4910:	0a 94       	dec	r0
    4912:	16 16       	cp	r1, r22
    4914:	17 06       	cpc	r1, r23
    4916:	18 06       	cpc	r1, r24
    4918:	09 06       	cpc	r0, r25
    491a:	08 95       	ret

0000491c <__fp_pscB>:
    491c:	00 24       	eor	r0, r0
    491e:	0a 94       	dec	r0
    4920:	12 16       	cp	r1, r18
    4922:	13 06       	cpc	r1, r19
    4924:	14 06       	cpc	r1, r20
    4926:	05 06       	cpc	r0, r21
    4928:	08 95       	ret

0000492a <__fp_round>:
    492a:	09 2e       	mov	r0, r25
    492c:	03 94       	inc	r0
    492e:	00 0c       	add	r0, r0
    4930:	11 f4       	brne	.+4      	; 0x4936 <__fp_round+0xc>
    4932:	88 23       	and	r24, r24
    4934:	52 f0       	brmi	.+20     	; 0x494a <__fp_round+0x20>
    4936:	bb 0f       	add	r27, r27
    4938:	40 f4       	brcc	.+16     	; 0x494a <__fp_round+0x20>
    493a:	bf 2b       	or	r27, r31
    493c:	11 f4       	brne	.+4      	; 0x4942 <__fp_round+0x18>
    493e:	60 ff       	sbrs	r22, 0
    4940:	04 c0       	rjmp	.+8      	; 0x494a <__fp_round+0x20>
    4942:	6f 5f       	subi	r22, 0xFF	; 255
    4944:	7f 4f       	sbci	r23, 0xFF	; 255
    4946:	8f 4f       	sbci	r24, 0xFF	; 255
    4948:	9f 4f       	sbci	r25, 0xFF	; 255
    494a:	08 95       	ret

0000494c <__fp_split3>:
    494c:	57 fd       	sbrc	r21, 7
    494e:	90 58       	subi	r25, 0x80	; 128
    4950:	44 0f       	add	r20, r20
    4952:	55 1f       	adc	r21, r21
    4954:	59 f0       	breq	.+22     	; 0x496c <__fp_splitA+0x10>
    4956:	5f 3f       	cpi	r21, 0xFF	; 255
    4958:	71 f0       	breq	.+28     	; 0x4976 <__fp_splitA+0x1a>
    495a:	47 95       	ror	r20

0000495c <__fp_splitA>:
    495c:	88 0f       	add	r24, r24
    495e:	97 fb       	bst	r25, 7
    4960:	99 1f       	adc	r25, r25
    4962:	61 f0       	breq	.+24     	; 0x497c <__fp_splitA+0x20>
    4964:	9f 3f       	cpi	r25, 0xFF	; 255
    4966:	79 f0       	breq	.+30     	; 0x4986 <__fp_splitA+0x2a>
    4968:	87 95       	ror	r24
    496a:	08 95       	ret
    496c:	12 16       	cp	r1, r18
    496e:	13 06       	cpc	r1, r19
    4970:	14 06       	cpc	r1, r20
    4972:	55 1f       	adc	r21, r21
    4974:	f2 cf       	rjmp	.-28     	; 0x495a <__fp_split3+0xe>
    4976:	46 95       	lsr	r20
    4978:	f1 df       	rcall	.-30     	; 0x495c <__fp_splitA>
    497a:	08 c0       	rjmp	.+16     	; 0x498c <__fp_splitA+0x30>
    497c:	16 16       	cp	r1, r22
    497e:	17 06       	cpc	r1, r23
    4980:	18 06       	cpc	r1, r24
    4982:	99 1f       	adc	r25, r25
    4984:	f1 cf       	rjmp	.-30     	; 0x4968 <__fp_splitA+0xc>
    4986:	86 95       	lsr	r24
    4988:	71 05       	cpc	r23, r1
    498a:	61 05       	cpc	r22, r1
    498c:	08 94       	sec
    498e:	08 95       	ret

00004990 <__fp_zero>:
    4990:	e8 94       	clt

00004992 <__fp_szero>:
    4992:	bb 27       	eor	r27, r27
    4994:	66 27       	eor	r22, r22
    4996:	77 27       	eor	r23, r23
    4998:	cb 01       	movw	r24, r22
    499a:	97 f9       	bld	r25, 7
    499c:	08 95       	ret

0000499e <__mulsf3>:
    499e:	0b d0       	rcall	.+22     	; 0x49b6 <__mulsf3x>
    49a0:	c4 cf       	rjmp	.-120    	; 0x492a <__fp_round>
    49a2:	b5 df       	rcall	.-150    	; 0x490e <__fp_pscA>
    49a4:	28 f0       	brcs	.+10     	; 0x49b0 <__mulsf3+0x12>
    49a6:	ba df       	rcall	.-140    	; 0x491c <__fp_pscB>
    49a8:	18 f0       	brcs	.+6      	; 0x49b0 <__mulsf3+0x12>
    49aa:	95 23       	and	r25, r21
    49ac:	09 f0       	breq	.+2      	; 0x49b0 <__mulsf3+0x12>
    49ae:	a6 cf       	rjmp	.-180    	; 0x48fc <__fp_inf>
    49b0:	ab cf       	rjmp	.-170    	; 0x4908 <__fp_nan>
    49b2:	11 24       	eor	r1, r1
    49b4:	ee cf       	rjmp	.-36     	; 0x4992 <__fp_szero>

000049b6 <__mulsf3x>:
    49b6:	ca df       	rcall	.-108    	; 0x494c <__fp_split3>
    49b8:	a0 f3       	brcs	.-24     	; 0x49a2 <__mulsf3+0x4>

000049ba <__mulsf3_pse>:
    49ba:	95 9f       	mul	r25, r21
    49bc:	d1 f3       	breq	.-12     	; 0x49b2 <__mulsf3+0x14>
    49be:	95 0f       	add	r25, r21
    49c0:	50 e0       	ldi	r21, 0x00	; 0
    49c2:	55 1f       	adc	r21, r21
    49c4:	62 9f       	mul	r22, r18
    49c6:	f0 01       	movw	r30, r0
    49c8:	72 9f       	mul	r23, r18
    49ca:	bb 27       	eor	r27, r27
    49cc:	f0 0d       	add	r31, r0
    49ce:	b1 1d       	adc	r27, r1
    49d0:	63 9f       	mul	r22, r19
    49d2:	aa 27       	eor	r26, r26
    49d4:	f0 0d       	add	r31, r0
    49d6:	b1 1d       	adc	r27, r1
    49d8:	aa 1f       	adc	r26, r26
    49da:	64 9f       	mul	r22, r20
    49dc:	66 27       	eor	r22, r22
    49de:	b0 0d       	add	r27, r0
    49e0:	a1 1d       	adc	r26, r1
    49e2:	66 1f       	adc	r22, r22
    49e4:	82 9f       	mul	r24, r18
    49e6:	22 27       	eor	r18, r18
    49e8:	b0 0d       	add	r27, r0
    49ea:	a1 1d       	adc	r26, r1
    49ec:	62 1f       	adc	r22, r18
    49ee:	73 9f       	mul	r23, r19
    49f0:	b0 0d       	add	r27, r0
    49f2:	a1 1d       	adc	r26, r1
    49f4:	62 1f       	adc	r22, r18
    49f6:	83 9f       	mul	r24, r19
    49f8:	a0 0d       	add	r26, r0
    49fa:	61 1d       	adc	r22, r1
    49fc:	22 1f       	adc	r18, r18
    49fe:	74 9f       	mul	r23, r20
    4a00:	33 27       	eor	r19, r19
    4a02:	a0 0d       	add	r26, r0
    4a04:	61 1d       	adc	r22, r1
    4a06:	23 1f       	adc	r18, r19
    4a08:	84 9f       	mul	r24, r20
    4a0a:	60 0d       	add	r22, r0
    4a0c:	21 1d       	adc	r18, r1
    4a0e:	82 2f       	mov	r24, r18
    4a10:	76 2f       	mov	r23, r22
    4a12:	6a 2f       	mov	r22, r26
    4a14:	11 24       	eor	r1, r1
    4a16:	9f 57       	subi	r25, 0x7F	; 127
    4a18:	50 40       	sbci	r21, 0x00	; 0
    4a1a:	8a f0       	brmi	.+34     	; 0x4a3e <__mulsf3_pse+0x84>
    4a1c:	e1 f0       	breq	.+56     	; 0x4a56 <__mulsf3_pse+0x9c>
    4a1e:	88 23       	and	r24, r24
    4a20:	4a f0       	brmi	.+18     	; 0x4a34 <__mulsf3_pse+0x7a>
    4a22:	ee 0f       	add	r30, r30
    4a24:	ff 1f       	adc	r31, r31
    4a26:	bb 1f       	adc	r27, r27
    4a28:	66 1f       	adc	r22, r22
    4a2a:	77 1f       	adc	r23, r23
    4a2c:	88 1f       	adc	r24, r24
    4a2e:	91 50       	subi	r25, 0x01	; 1
    4a30:	50 40       	sbci	r21, 0x00	; 0
    4a32:	a9 f7       	brne	.-22     	; 0x4a1e <__mulsf3_pse+0x64>
    4a34:	9e 3f       	cpi	r25, 0xFE	; 254
    4a36:	51 05       	cpc	r21, r1
    4a38:	70 f0       	brcs	.+28     	; 0x4a56 <__mulsf3_pse+0x9c>
    4a3a:	60 cf       	rjmp	.-320    	; 0x48fc <__fp_inf>
    4a3c:	aa cf       	rjmp	.-172    	; 0x4992 <__fp_szero>
    4a3e:	5f 3f       	cpi	r21, 0xFF	; 255
    4a40:	ec f3       	brlt	.-6      	; 0x4a3c <__mulsf3_pse+0x82>
    4a42:	98 3e       	cpi	r25, 0xE8	; 232
    4a44:	dc f3       	brlt	.-10     	; 0x4a3c <__mulsf3_pse+0x82>
    4a46:	86 95       	lsr	r24
    4a48:	77 95       	ror	r23
    4a4a:	67 95       	ror	r22
    4a4c:	b7 95       	ror	r27
    4a4e:	f7 95       	ror	r31
    4a50:	e7 95       	ror	r30
    4a52:	9f 5f       	subi	r25, 0xFF	; 255
    4a54:	c1 f7       	brne	.-16     	; 0x4a46 <__mulsf3_pse+0x8c>
    4a56:	fe 2b       	or	r31, r30
    4a58:	88 0f       	add	r24, r24
    4a5a:	91 1d       	adc	r25, r1
    4a5c:	96 95       	lsr	r25
    4a5e:	87 95       	ror	r24
    4a60:	97 f9       	bld	r25, 7
    4a62:	08 95       	ret

00004a64 <pow>:
    4a64:	fa 01       	movw	r30, r20
    4a66:	ee 0f       	add	r30, r30
    4a68:	ff 1f       	adc	r31, r31
    4a6a:	30 96       	adiw	r30, 0x00	; 0
    4a6c:	21 05       	cpc	r18, r1
    4a6e:	31 05       	cpc	r19, r1
    4a70:	99 f1       	breq	.+102    	; 0x4ad8 <pow+0x74>
    4a72:	61 15       	cp	r22, r1
    4a74:	71 05       	cpc	r23, r1
    4a76:	61 f4       	brne	.+24     	; 0x4a90 <pow+0x2c>
    4a78:	80 38       	cpi	r24, 0x80	; 128
    4a7a:	bf e3       	ldi	r27, 0x3F	; 63
    4a7c:	9b 07       	cpc	r25, r27
    4a7e:	49 f1       	breq	.+82     	; 0x4ad2 <pow+0x6e>
    4a80:	68 94       	set
    4a82:	90 38       	cpi	r25, 0x80	; 128
    4a84:	81 05       	cpc	r24, r1
    4a86:	61 f0       	breq	.+24     	; 0x4aa0 <pow+0x3c>
    4a88:	80 38       	cpi	r24, 0x80	; 128
    4a8a:	bf ef       	ldi	r27, 0xFF	; 255
    4a8c:	9b 07       	cpc	r25, r27
    4a8e:	41 f0       	breq	.+16     	; 0x4aa0 <pow+0x3c>
    4a90:	99 23       	and	r25, r25
    4a92:	42 f5       	brpl	.+80     	; 0x4ae4 <pow+0x80>
    4a94:	ff 3f       	cpi	r31, 0xFF	; 255
    4a96:	e1 05       	cpc	r30, r1
    4a98:	31 05       	cpc	r19, r1
    4a9a:	21 05       	cpc	r18, r1
    4a9c:	11 f1       	breq	.+68     	; 0x4ae2 <pow+0x7e>
    4a9e:	e8 94       	clt
    4aa0:	08 94       	sec
    4aa2:	e7 95       	ror	r30
    4aa4:	d9 01       	movw	r26, r18
    4aa6:	aa 23       	and	r26, r26
    4aa8:	29 f4       	brne	.+10     	; 0x4ab4 <pow+0x50>
    4aaa:	ab 2f       	mov	r26, r27
    4aac:	be 2f       	mov	r27, r30
    4aae:	f8 5f       	subi	r31, 0xF8	; 248
    4ab0:	d0 f3       	brcs	.-12     	; 0x4aa6 <pow+0x42>
    4ab2:	10 c0       	rjmp	.+32     	; 0x4ad4 <pow+0x70>
    4ab4:	ff 5f       	subi	r31, 0xFF	; 255
    4ab6:	70 f4       	brcc	.+28     	; 0x4ad4 <pow+0x70>
    4ab8:	a6 95       	lsr	r26
    4aba:	e0 f7       	brcc	.-8      	; 0x4ab4 <pow+0x50>
    4abc:	f7 39       	cpi	r31, 0x97	; 151
    4abe:	50 f0       	brcs	.+20     	; 0x4ad4 <pow+0x70>
    4ac0:	19 f0       	breq	.+6      	; 0x4ac8 <pow+0x64>
    4ac2:	ff 3a       	cpi	r31, 0xAF	; 175
    4ac4:	38 f4       	brcc	.+14     	; 0x4ad4 <pow+0x70>
    4ac6:	9f 77       	andi	r25, 0x7F	; 127
    4ac8:	9f 93       	push	r25
    4aca:	0c d0       	rcall	.+24     	; 0x4ae4 <pow+0x80>
    4acc:	0f 90       	pop	r0
    4ace:	07 fc       	sbrc	r0, 7
    4ad0:	90 58       	subi	r25, 0x80	; 128
    4ad2:	08 95       	ret
    4ad4:	3e f0       	brts	.+14     	; 0x4ae4 <pow+0x80>
    4ad6:	18 cf       	rjmp	.-464    	; 0x4908 <__fp_nan>
    4ad8:	60 e0       	ldi	r22, 0x00	; 0
    4ada:	70 e0       	ldi	r23, 0x00	; 0
    4adc:	80 e8       	ldi	r24, 0x80	; 128
    4ade:	9f e3       	ldi	r25, 0x3F	; 63
    4ae0:	08 95       	ret
    4ae2:	4f e7       	ldi	r20, 0x7F	; 127
    4ae4:	9f 77       	andi	r25, 0x7F	; 127
    4ae6:	5f 93       	push	r21
    4ae8:	4f 93       	push	r20
    4aea:	3f 93       	push	r19
    4aec:	2f 93       	push	r18
    4aee:	9e d0       	rcall	.+316    	; 0x4c2c <log>
    4af0:	2f 91       	pop	r18
    4af2:	3f 91       	pop	r19
    4af4:	4f 91       	pop	r20
    4af6:	5f 91       	pop	r21
    4af8:	52 df       	rcall	.-348    	; 0x499e <__mulsf3>
    4afa:	05 c0       	rjmp	.+10     	; 0x4b06 <exp>
    4afc:	19 f4       	brne	.+6      	; 0x4b04 <pow+0xa0>
    4afe:	0e f0       	brts	.+2      	; 0x4b02 <pow+0x9e>
    4b00:	fd ce       	rjmp	.-518    	; 0x48fc <__fp_inf>
    4b02:	46 cf       	rjmp	.-372    	; 0x4990 <__fp_zero>
    4b04:	01 cf       	rjmp	.-510    	; 0x4908 <__fp_nan>

00004b06 <exp>:
    4b06:	2a df       	rcall	.-428    	; 0x495c <__fp_splitA>
    4b08:	c8 f3       	brcs	.-14     	; 0x4afc <pow+0x98>
    4b0a:	96 38       	cpi	r25, 0x86	; 134
    4b0c:	c0 f7       	brcc	.-16     	; 0x4afe <pow+0x9a>
    4b0e:	07 f8       	bld	r0, 7
    4b10:	0f 92       	push	r0
    4b12:	e8 94       	clt
    4b14:	2b e3       	ldi	r18, 0x3B	; 59
    4b16:	3a ea       	ldi	r19, 0xAA	; 170
    4b18:	48 eb       	ldi	r20, 0xB8	; 184
    4b1a:	5f e7       	ldi	r21, 0x7F	; 127
    4b1c:	4e df       	rcall	.-356    	; 0x49ba <__mulsf3_pse>
    4b1e:	0f 92       	push	r0
    4b20:	0f 92       	push	r0
    4b22:	0f 92       	push	r0
    4b24:	4d b7       	in	r20, 0x3d	; 61
    4b26:	5e b7       	in	r21, 0x3e	; 62
    4b28:	0f 92       	push	r0
    4b2a:	c0 d0       	rcall	.+384    	; 0x4cac <modf>
    4b2c:	ee ef       	ldi	r30, 0xFE	; 254
    4b2e:	f1 e0       	ldi	r31, 0x01	; 1
    4b30:	16 d0       	rcall	.+44     	; 0x4b5e <__fp_powser>
    4b32:	4f 91       	pop	r20
    4b34:	5f 91       	pop	r21
    4b36:	ef 91       	pop	r30
    4b38:	ff 91       	pop	r31
    4b3a:	e5 95       	asr	r30
    4b3c:	ee 1f       	adc	r30, r30
    4b3e:	ff 1f       	adc	r31, r31
    4b40:	49 f0       	breq	.+18     	; 0x4b54 <exp+0x4e>
    4b42:	fe 57       	subi	r31, 0x7E	; 126
    4b44:	e0 68       	ori	r30, 0x80	; 128
    4b46:	44 27       	eor	r20, r20
    4b48:	ee 0f       	add	r30, r30
    4b4a:	44 1f       	adc	r20, r20
    4b4c:	fa 95       	dec	r31
    4b4e:	e1 f7       	brne	.-8      	; 0x4b48 <exp+0x42>
    4b50:	41 95       	neg	r20
    4b52:	55 0b       	sbc	r21, r21
    4b54:	32 d0       	rcall	.+100    	; 0x4bba <ldexp>
    4b56:	0f 90       	pop	r0
    4b58:	07 fe       	sbrs	r0, 7
    4b5a:	26 c0       	rjmp	.+76     	; 0x4ba8 <inverse>
    4b5c:	08 95       	ret

00004b5e <__fp_powser>:
    4b5e:	df 93       	push	r29
    4b60:	cf 93       	push	r28
    4b62:	1f 93       	push	r17
    4b64:	0f 93       	push	r16
    4b66:	ff 92       	push	r15
    4b68:	ef 92       	push	r14
    4b6a:	df 92       	push	r13
    4b6c:	7b 01       	movw	r14, r22
    4b6e:	8c 01       	movw	r16, r24
    4b70:	68 94       	set
    4b72:	05 c0       	rjmp	.+10     	; 0x4b7e <__fp_powser+0x20>
    4b74:	da 2e       	mov	r13, r26
    4b76:	ef 01       	movw	r28, r30
    4b78:	1e df       	rcall	.-452    	; 0x49b6 <__mulsf3x>
    4b7a:	fe 01       	movw	r30, r28
    4b7c:	e8 94       	clt
    4b7e:	a5 91       	lpm	r26, Z+
    4b80:	25 91       	lpm	r18, Z+
    4b82:	35 91       	lpm	r19, Z+
    4b84:	45 91       	lpm	r20, Z+
    4b86:	55 91       	lpm	r21, Z+
    4b88:	ae f3       	brts	.-22     	; 0x4b74 <__fp_powser+0x16>
    4b8a:	ef 01       	movw	r28, r30
    4b8c:	97 dd       	rcall	.-1234   	; 0x46bc <__addsf3x>
    4b8e:	fe 01       	movw	r30, r28
    4b90:	97 01       	movw	r18, r14
    4b92:	a8 01       	movw	r20, r16
    4b94:	da 94       	dec	r13
    4b96:	79 f7       	brne	.-34     	; 0x4b76 <__fp_powser+0x18>
    4b98:	df 90       	pop	r13
    4b9a:	ef 90       	pop	r14
    4b9c:	ff 90       	pop	r15
    4b9e:	0f 91       	pop	r16
    4ba0:	1f 91       	pop	r17
    4ba2:	cf 91       	pop	r28
    4ba4:	df 91       	pop	r29
    4ba6:	08 95       	ret

00004ba8 <inverse>:
    4ba8:	9b 01       	movw	r18, r22
    4baa:	ac 01       	movw	r20, r24
    4bac:	60 e0       	ldi	r22, 0x00	; 0
    4bae:	70 e0       	ldi	r23, 0x00	; 0
    4bb0:	80 e8       	ldi	r24, 0x80	; 128
    4bb2:	9f e3       	ldi	r25, 0x3F	; 63
    4bb4:	da cd       	rjmp	.-1100   	; 0x476a <__divsf3>
    4bb6:	a2 ce       	rjmp	.-700    	; 0x48fc <__fp_inf>
    4bb8:	ac c0       	rjmp	.+344    	; 0x4d12 <__fp_mpack>

00004bba <ldexp>:
    4bba:	d0 de       	rcall	.-608    	; 0x495c <__fp_splitA>
    4bbc:	e8 f3       	brcs	.-6      	; 0x4bb8 <inverse+0x10>
    4bbe:	99 23       	and	r25, r25
    4bc0:	d9 f3       	breq	.-10     	; 0x4bb8 <inverse+0x10>
    4bc2:	94 0f       	add	r25, r20
    4bc4:	51 1d       	adc	r21, r1
    4bc6:	bb f3       	brvs	.-18     	; 0x4bb6 <inverse+0xe>
    4bc8:	91 50       	subi	r25, 0x01	; 1
    4bca:	50 40       	sbci	r21, 0x00	; 0
    4bcc:	94 f0       	brlt	.+36     	; 0x4bf2 <ldexp+0x38>
    4bce:	59 f0       	breq	.+22     	; 0x4be6 <ldexp+0x2c>
    4bd0:	88 23       	and	r24, r24
    4bd2:	32 f0       	brmi	.+12     	; 0x4be0 <ldexp+0x26>
    4bd4:	66 0f       	add	r22, r22
    4bd6:	77 1f       	adc	r23, r23
    4bd8:	88 1f       	adc	r24, r24
    4bda:	91 50       	subi	r25, 0x01	; 1
    4bdc:	50 40       	sbci	r21, 0x00	; 0
    4bde:	c1 f7       	brne	.-16     	; 0x4bd0 <ldexp+0x16>
    4be0:	9e 3f       	cpi	r25, 0xFE	; 254
    4be2:	51 05       	cpc	r21, r1
    4be4:	44 f7       	brge	.-48     	; 0x4bb6 <inverse+0xe>
    4be6:	88 0f       	add	r24, r24
    4be8:	91 1d       	adc	r25, r1
    4bea:	96 95       	lsr	r25
    4bec:	87 95       	ror	r24
    4bee:	97 f9       	bld	r25, 7
    4bf0:	08 95       	ret
    4bf2:	5f 3f       	cpi	r21, 0xFF	; 255
    4bf4:	ac f0       	brlt	.+42     	; 0x4c20 <ldexp+0x66>
    4bf6:	98 3e       	cpi	r25, 0xE8	; 232
    4bf8:	9c f0       	brlt	.+38     	; 0x4c20 <ldexp+0x66>
    4bfa:	bb 27       	eor	r27, r27
    4bfc:	86 95       	lsr	r24
    4bfe:	77 95       	ror	r23
    4c00:	67 95       	ror	r22
    4c02:	b7 95       	ror	r27
    4c04:	08 f4       	brcc	.+2      	; 0x4c08 <ldexp+0x4e>
    4c06:	b1 60       	ori	r27, 0x01	; 1
    4c08:	93 95       	inc	r25
    4c0a:	c1 f7       	brne	.-16     	; 0x4bfc <ldexp+0x42>
    4c0c:	bb 0f       	add	r27, r27
    4c0e:	58 f7       	brcc	.-42     	; 0x4be6 <ldexp+0x2c>
    4c10:	11 f4       	brne	.+4      	; 0x4c16 <ldexp+0x5c>
    4c12:	60 ff       	sbrs	r22, 0
    4c14:	e8 cf       	rjmp	.-48     	; 0x4be6 <ldexp+0x2c>
    4c16:	6f 5f       	subi	r22, 0xFF	; 255
    4c18:	7f 4f       	sbci	r23, 0xFF	; 255
    4c1a:	8f 4f       	sbci	r24, 0xFF	; 255
    4c1c:	9f 4f       	sbci	r25, 0xFF	; 255
    4c1e:	e3 cf       	rjmp	.-58     	; 0x4be6 <ldexp+0x2c>
    4c20:	b8 ce       	rjmp	.-656    	; 0x4992 <__fp_szero>
    4c22:	0e f0       	brts	.+2      	; 0x4c26 <ldexp+0x6c>
    4c24:	76 c0       	rjmp	.+236    	; 0x4d12 <__fp_mpack>
    4c26:	70 ce       	rjmp	.-800    	; 0x4908 <__fp_nan>
    4c28:	68 94       	set
    4c2a:	68 ce       	rjmp	.-816    	; 0x48fc <__fp_inf>

00004c2c <log>:
    4c2c:	97 de       	rcall	.-722    	; 0x495c <__fp_splitA>
    4c2e:	c8 f3       	brcs	.-14     	; 0x4c22 <ldexp+0x68>
    4c30:	99 23       	and	r25, r25
    4c32:	d1 f3       	breq	.-12     	; 0x4c28 <ldexp+0x6e>
    4c34:	c6 f3       	brts	.-16     	; 0x4c26 <ldexp+0x6c>
    4c36:	df 93       	push	r29
    4c38:	cf 93       	push	r28
    4c3a:	1f 93       	push	r17
    4c3c:	0f 93       	push	r16
    4c3e:	ff 92       	push	r15
    4c40:	c9 2f       	mov	r28, r25
    4c42:	dd 27       	eor	r29, r29
    4c44:	88 23       	and	r24, r24
    4c46:	2a f0       	brmi	.+10     	; 0x4c52 <log+0x26>
    4c48:	21 97       	sbiw	r28, 0x01	; 1
    4c4a:	66 0f       	add	r22, r22
    4c4c:	77 1f       	adc	r23, r23
    4c4e:	88 1f       	adc	r24, r24
    4c50:	da f7       	brpl	.-10     	; 0x4c48 <log+0x1c>
    4c52:	20 e0       	ldi	r18, 0x00	; 0
    4c54:	30 e0       	ldi	r19, 0x00	; 0
    4c56:	40 e8       	ldi	r20, 0x80	; 128
    4c58:	5f eb       	ldi	r21, 0xBF	; 191
    4c5a:	9f e3       	ldi	r25, 0x3F	; 63
    4c5c:	88 39       	cpi	r24, 0x98	; 152
    4c5e:	20 f0       	brcs	.+8      	; 0x4c68 <log+0x3c>
    4c60:	80 3e       	cpi	r24, 0xE0	; 224
    4c62:	30 f0       	brcs	.+12     	; 0x4c70 <log+0x44>
    4c64:	21 96       	adiw	r28, 0x01	; 1
    4c66:	8f 77       	andi	r24, 0x7F	; 127
    4c68:	18 dd       	rcall	.-1488   	; 0x469a <__addsf3>
    4c6a:	e6 e2       	ldi	r30, 0x26	; 38
    4c6c:	f2 e0       	ldi	r31, 0x02	; 2
    4c6e:	03 c0       	rjmp	.+6      	; 0x4c76 <log+0x4a>
    4c70:	14 dd       	rcall	.-1496   	; 0x469a <__addsf3>
    4c72:	e3 e5       	ldi	r30, 0x53	; 83
    4c74:	f2 e0       	ldi	r31, 0x02	; 2
    4c76:	73 df       	rcall	.-282    	; 0x4b5e <__fp_powser>
    4c78:	8b 01       	movw	r16, r22
    4c7a:	be 01       	movw	r22, r28
    4c7c:	ec 01       	movw	r28, r24
    4c7e:	fb 2e       	mov	r15, r27
    4c80:	6f 57       	subi	r22, 0x7F	; 127
    4c82:	71 09       	sbc	r23, r1
    4c84:	75 95       	asr	r23
    4c86:	77 1f       	adc	r23, r23
    4c88:	88 0b       	sbc	r24, r24
    4c8a:	99 0b       	sbc	r25, r25
    4c8c:	d8 dd       	rcall	.-1104   	; 0x483e <__floatsisf>
    4c8e:	28 e1       	ldi	r18, 0x18	; 24
    4c90:	32 e7       	ldi	r19, 0x72	; 114
    4c92:	41 e3       	ldi	r20, 0x31	; 49
    4c94:	5f e3       	ldi	r21, 0x3F	; 63
    4c96:	8f de       	rcall	.-738    	; 0x49b6 <__mulsf3x>
    4c98:	af 2d       	mov	r26, r15
    4c9a:	98 01       	movw	r18, r16
    4c9c:	ae 01       	movw	r20, r28
    4c9e:	ff 90       	pop	r15
    4ca0:	0f 91       	pop	r16
    4ca2:	1f 91       	pop	r17
    4ca4:	cf 91       	pop	r28
    4ca6:	df 91       	pop	r29
    4ca8:	09 dd       	rcall	.-1518   	; 0x46bc <__addsf3x>
    4caa:	3f ce       	rjmp	.-898    	; 0x492a <__fp_round>

00004cac <modf>:
    4cac:	fa 01       	movw	r30, r20
    4cae:	dc 01       	movw	r26, r24
    4cb0:	aa 0f       	add	r26, r26
    4cb2:	bb 1f       	adc	r27, r27
    4cb4:	9b 01       	movw	r18, r22
    4cb6:	ac 01       	movw	r20, r24
    4cb8:	bf 57       	subi	r27, 0x7F	; 127
    4cba:	28 f4       	brcc	.+10     	; 0x4cc6 <modf+0x1a>
    4cbc:	22 27       	eor	r18, r18
    4cbe:	33 27       	eor	r19, r19
    4cc0:	44 27       	eor	r20, r20
    4cc2:	50 78       	andi	r21, 0x80	; 128
    4cc4:	1f c0       	rjmp	.+62     	; 0x4d04 <modf+0x58>
    4cc6:	b7 51       	subi	r27, 0x17	; 23
    4cc8:	88 f4       	brcc	.+34     	; 0x4cec <modf+0x40>
    4cca:	ab 2f       	mov	r26, r27
    4ccc:	00 24       	eor	r0, r0
    4cce:	46 95       	lsr	r20
    4cd0:	37 95       	ror	r19
    4cd2:	27 95       	ror	r18
    4cd4:	01 1c       	adc	r0, r1
    4cd6:	a3 95       	inc	r26
    4cd8:	d2 f3       	brmi	.-12     	; 0x4cce <modf+0x22>
    4cda:	00 20       	and	r0, r0
    4cdc:	69 f0       	breq	.+26     	; 0x4cf8 <modf+0x4c>
    4cde:	22 0f       	add	r18, r18
    4ce0:	33 1f       	adc	r19, r19
    4ce2:	44 1f       	adc	r20, r20
    4ce4:	b3 95       	inc	r27
    4ce6:	da f3       	brmi	.-10     	; 0x4cde <modf+0x32>
    4ce8:	0d d0       	rcall	.+26     	; 0x4d04 <modf+0x58>
    4cea:	d6 cc       	rjmp	.-1620   	; 0x4698 <__subsf3>
    4cec:	61 30       	cpi	r22, 0x01	; 1
    4cee:	71 05       	cpc	r23, r1
    4cf0:	a0 e8       	ldi	r26, 0x80	; 128
    4cf2:	8a 07       	cpc	r24, r26
    4cf4:	b9 46       	sbci	r27, 0x69	; 105
    4cf6:	30 f4       	brcc	.+12     	; 0x4d04 <modf+0x58>
    4cf8:	9b 01       	movw	r18, r22
    4cfa:	ac 01       	movw	r20, r24
    4cfc:	66 27       	eor	r22, r22
    4cfe:	77 27       	eor	r23, r23
    4d00:	88 27       	eor	r24, r24
    4d02:	90 78       	andi	r25, 0x80	; 128
    4d04:	30 96       	adiw	r30, 0x00	; 0
    4d06:	21 f0       	breq	.+8      	; 0x4d10 <modf+0x64>
    4d08:	20 83       	st	Z, r18
    4d0a:	31 83       	std	Z+1, r19	; 0x01
    4d0c:	42 83       	std	Z+2, r20	; 0x02
    4d0e:	53 83       	std	Z+3, r21	; 0x03
    4d10:	08 95       	ret

00004d12 <__fp_mpack>:
    4d12:	9f 3f       	cpi	r25, 0xFF	; 255
    4d14:	31 f0       	breq	.+12     	; 0x4d22 <__fp_mpack_finite+0xc>

00004d16 <__fp_mpack_finite>:
    4d16:	91 50       	subi	r25, 0x01	; 1
    4d18:	20 f4       	brcc	.+8      	; 0x4d22 <__fp_mpack_finite+0xc>
    4d1a:	87 95       	ror	r24
    4d1c:	77 95       	ror	r23
    4d1e:	67 95       	ror	r22
    4d20:	b7 95       	ror	r27
    4d22:	88 0f       	add	r24, r24
    4d24:	91 1d       	adc	r25, r1
    4d26:	96 95       	lsr	r25
    4d28:	87 95       	ror	r24
    4d2a:	97 f9       	bld	r25, 7
    4d2c:	08 95       	ret

00004d2e <__udivmodsi4>:
    4d2e:	a1 e2       	ldi	r26, 0x21	; 33
    4d30:	1a 2e       	mov	r1, r26
    4d32:	aa 1b       	sub	r26, r26
    4d34:	bb 1b       	sub	r27, r27
    4d36:	fd 01       	movw	r30, r26
    4d38:	0d c0       	rjmp	.+26     	; 0x4d54 <__udivmodsi4_ep>

00004d3a <__udivmodsi4_loop>:
    4d3a:	aa 1f       	adc	r26, r26
    4d3c:	bb 1f       	adc	r27, r27
    4d3e:	ee 1f       	adc	r30, r30
    4d40:	ff 1f       	adc	r31, r31
    4d42:	a2 17       	cp	r26, r18
    4d44:	b3 07       	cpc	r27, r19
    4d46:	e4 07       	cpc	r30, r20
    4d48:	f5 07       	cpc	r31, r21
    4d4a:	20 f0       	brcs	.+8      	; 0x4d54 <__udivmodsi4_ep>
    4d4c:	a2 1b       	sub	r26, r18
    4d4e:	b3 0b       	sbc	r27, r19
    4d50:	e4 0b       	sbc	r30, r20
    4d52:	f5 0b       	sbc	r31, r21

00004d54 <__udivmodsi4_ep>:
    4d54:	66 1f       	adc	r22, r22
    4d56:	77 1f       	adc	r23, r23
    4d58:	88 1f       	adc	r24, r24
    4d5a:	99 1f       	adc	r25, r25
    4d5c:	1a 94       	dec	r1
    4d5e:	69 f7       	brne	.-38     	; 0x4d3a <__udivmodsi4_loop>
    4d60:	60 95       	com	r22
    4d62:	70 95       	com	r23
    4d64:	80 95       	com	r24
    4d66:	90 95       	com	r25
    4d68:	9b 01       	movw	r18, r22
    4d6a:	ac 01       	movw	r20, r24
    4d6c:	bd 01       	movw	r22, r26
    4d6e:	cf 01       	movw	r24, r30
    4d70:	08 95       	ret

00004d72 <__tablejump2__>:
    4d72:	ee 0f       	add	r30, r30
    4d74:	ff 1f       	adc	r31, r31
    4d76:	88 1f       	adc	r24, r24
    4d78:	8b bf       	out	0x3b, r24	; 59
    4d7a:	07 90       	elpm	r0, Z+
    4d7c:	f6 91       	elpm	r31, Z
    4d7e:	e0 2d       	mov	r30, r0
    4d80:	19 94       	eijmp

00004d82 <__muluhisi3>:
    4d82:	09 d0       	rcall	.+18     	; 0x4d96 <__umulhisi3>
    4d84:	a5 9f       	mul	r26, r21
    4d86:	90 0d       	add	r25, r0
    4d88:	b4 9f       	mul	r27, r20
    4d8a:	90 0d       	add	r25, r0
    4d8c:	a4 9f       	mul	r26, r20
    4d8e:	80 0d       	add	r24, r0
    4d90:	91 1d       	adc	r25, r1
    4d92:	11 24       	eor	r1, r1
    4d94:	08 95       	ret

00004d96 <__umulhisi3>:
    4d96:	a2 9f       	mul	r26, r18
    4d98:	b0 01       	movw	r22, r0
    4d9a:	b3 9f       	mul	r27, r19
    4d9c:	c0 01       	movw	r24, r0
    4d9e:	a3 9f       	mul	r26, r19
    4da0:	70 0d       	add	r23, r0
    4da2:	81 1d       	adc	r24, r1
    4da4:	11 24       	eor	r1, r1
    4da6:	91 1d       	adc	r25, r1
    4da8:	b2 9f       	mul	r27, r18
    4daa:	70 0d       	add	r23, r0
    4dac:	81 1d       	adc	r24, r1
    4dae:	11 24       	eor	r1, r1
    4db0:	91 1d       	adc	r25, r1
    4db2:	08 95       	ret

00004db4 <dtostrf>:
    4db4:	ef 92       	push	r14
    4db6:	0f 93       	push	r16
    4db8:	1f 93       	push	r17
    4dba:	cf 93       	push	r28
    4dbc:	df 93       	push	r29
    4dbe:	e8 01       	movw	r28, r16
    4dc0:	47 fd       	sbrc	r20, 7
    4dc2:	02 c0       	rjmp	.+4      	; 0x4dc8 <dtostrf+0x14>
    4dc4:	34 e0       	ldi	r19, 0x04	; 4
    4dc6:	01 c0       	rjmp	.+2      	; 0x4dca <dtostrf+0x16>
    4dc8:	34 e1       	ldi	r19, 0x14	; 20
    4dca:	04 2e       	mov	r0, r20
    4dcc:	00 0c       	add	r0, r0
    4dce:	55 0b       	sbc	r21, r21
    4dd0:	57 ff       	sbrs	r21, 7
    4dd2:	03 c0       	rjmp	.+6      	; 0x4dda <dtostrf+0x26>
    4dd4:	51 95       	neg	r21
    4dd6:	41 95       	neg	r20
    4dd8:	51 09       	sbc	r21, r1
    4dda:	e3 2e       	mov	r14, r19
    4ddc:	02 2f       	mov	r16, r18
    4dde:	24 2f       	mov	r18, r20
    4de0:	ae 01       	movw	r20, r28
    4de2:	39 d2       	rcall	.+1138   	; 0x5256 <dtoa_prf>
    4de4:	ce 01       	movw	r24, r28
    4de6:	df 91       	pop	r29
    4de8:	cf 91       	pop	r28
    4dea:	1f 91       	pop	r17
    4dec:	0f 91       	pop	r16
    4dee:	ef 90       	pop	r14
    4df0:	08 95       	ret

00004df2 <memset>:
    4df2:	dc 01       	movw	r26, r24
    4df4:	01 c0       	rjmp	.+2      	; 0x4df8 <memset+0x6>
    4df6:	6d 93       	st	X+, r22
    4df8:	41 50       	subi	r20, 0x01	; 1
    4dfa:	50 40       	sbci	r21, 0x00	; 0
    4dfc:	e0 f7       	brcc	.-8      	; 0x4df6 <memset+0x4>
    4dfe:	08 95       	ret

00004e00 <sprintf>:
    4e00:	0f 93       	push	r16
    4e02:	1f 93       	push	r17
    4e04:	cf 93       	push	r28
    4e06:	df 93       	push	r29
    4e08:	cd b7       	in	r28, 0x3d	; 61
    4e0a:	de b7       	in	r29, 0x3e	; 62
    4e0c:	2e 97       	sbiw	r28, 0x0e	; 14
    4e0e:	0f b6       	in	r0, 0x3f	; 63
    4e10:	f8 94       	cli
    4e12:	de bf       	out	0x3e, r29	; 62
    4e14:	0f be       	out	0x3f, r0	; 63
    4e16:	cd bf       	out	0x3d, r28	; 61
    4e18:	0e 89       	ldd	r16, Y+22	; 0x16
    4e1a:	1f 89       	ldd	r17, Y+23	; 0x17
    4e1c:	86 e0       	ldi	r24, 0x06	; 6
    4e1e:	8c 83       	std	Y+4, r24	; 0x04
    4e20:	1a 83       	std	Y+2, r17	; 0x02
    4e22:	09 83       	std	Y+1, r16	; 0x01
    4e24:	8f ef       	ldi	r24, 0xFF	; 255
    4e26:	9f e7       	ldi	r25, 0x7F	; 127
    4e28:	9e 83       	std	Y+6, r25	; 0x06
    4e2a:	8d 83       	std	Y+5, r24	; 0x05
    4e2c:	ae 01       	movw	r20, r28
    4e2e:	46 5e       	subi	r20, 0xE6	; 230
    4e30:	5f 4f       	sbci	r21, 0xFF	; 255
    4e32:	68 8d       	ldd	r22, Y+24	; 0x18
    4e34:	79 8d       	ldd	r23, Y+25	; 0x19
    4e36:	ce 01       	movw	r24, r28
    4e38:	01 96       	adiw	r24, 0x01	; 1
    4e3a:	10 d0       	rcall	.+32     	; 0x4e5c <vfprintf>
    4e3c:	ef 81       	ldd	r30, Y+7	; 0x07
    4e3e:	f8 85       	ldd	r31, Y+8	; 0x08
    4e40:	e0 0f       	add	r30, r16
    4e42:	f1 1f       	adc	r31, r17
    4e44:	10 82       	st	Z, r1
    4e46:	2e 96       	adiw	r28, 0x0e	; 14
    4e48:	0f b6       	in	r0, 0x3f	; 63
    4e4a:	f8 94       	cli
    4e4c:	de bf       	out	0x3e, r29	; 62
    4e4e:	0f be       	out	0x3f, r0	; 63
    4e50:	cd bf       	out	0x3d, r28	; 61
    4e52:	df 91       	pop	r29
    4e54:	cf 91       	pop	r28
    4e56:	1f 91       	pop	r17
    4e58:	0f 91       	pop	r16
    4e5a:	08 95       	ret

00004e5c <vfprintf>:
    4e5c:	2f 92       	push	r2
    4e5e:	3f 92       	push	r3
    4e60:	4f 92       	push	r4
    4e62:	5f 92       	push	r5
    4e64:	6f 92       	push	r6
    4e66:	7f 92       	push	r7
    4e68:	8f 92       	push	r8
    4e6a:	9f 92       	push	r9
    4e6c:	af 92       	push	r10
    4e6e:	bf 92       	push	r11
    4e70:	cf 92       	push	r12
    4e72:	df 92       	push	r13
    4e74:	ef 92       	push	r14
    4e76:	ff 92       	push	r15
    4e78:	0f 93       	push	r16
    4e7a:	1f 93       	push	r17
    4e7c:	cf 93       	push	r28
    4e7e:	df 93       	push	r29
    4e80:	cd b7       	in	r28, 0x3d	; 61
    4e82:	de b7       	in	r29, 0x3e	; 62
    4e84:	2b 97       	sbiw	r28, 0x0b	; 11
    4e86:	0f b6       	in	r0, 0x3f	; 63
    4e88:	f8 94       	cli
    4e8a:	de bf       	out	0x3e, r29	; 62
    4e8c:	0f be       	out	0x3f, r0	; 63
    4e8e:	cd bf       	out	0x3d, r28	; 61
    4e90:	6c 01       	movw	r12, r24
    4e92:	7b 01       	movw	r14, r22
    4e94:	8a 01       	movw	r16, r20
    4e96:	fc 01       	movw	r30, r24
    4e98:	17 82       	std	Z+7, r1	; 0x07
    4e9a:	16 82       	std	Z+6, r1	; 0x06
    4e9c:	83 81       	ldd	r24, Z+3	; 0x03
    4e9e:	81 ff       	sbrs	r24, 1
    4ea0:	bf c1       	rjmp	.+894    	; 0x5220 <vfprintf+0x3c4>
    4ea2:	ce 01       	movw	r24, r28
    4ea4:	01 96       	adiw	r24, 0x01	; 1
    4ea6:	3c 01       	movw	r6, r24
    4ea8:	f6 01       	movw	r30, r12
    4eaa:	93 81       	ldd	r25, Z+3	; 0x03
    4eac:	f7 01       	movw	r30, r14
    4eae:	93 fd       	sbrc	r25, 3
    4eb0:	85 91       	lpm	r24, Z+
    4eb2:	93 ff       	sbrs	r25, 3
    4eb4:	81 91       	ld	r24, Z+
    4eb6:	7f 01       	movw	r14, r30
    4eb8:	88 23       	and	r24, r24
    4eba:	09 f4       	brne	.+2      	; 0x4ebe <vfprintf+0x62>
    4ebc:	ad c1       	rjmp	.+858    	; 0x5218 <vfprintf+0x3bc>
    4ebe:	85 32       	cpi	r24, 0x25	; 37
    4ec0:	39 f4       	brne	.+14     	; 0x4ed0 <vfprintf+0x74>
    4ec2:	93 fd       	sbrc	r25, 3
    4ec4:	85 91       	lpm	r24, Z+
    4ec6:	93 ff       	sbrs	r25, 3
    4ec8:	81 91       	ld	r24, Z+
    4eca:	7f 01       	movw	r14, r30
    4ecc:	85 32       	cpi	r24, 0x25	; 37
    4ece:	21 f4       	brne	.+8      	; 0x4ed8 <vfprintf+0x7c>
    4ed0:	b6 01       	movw	r22, r12
    4ed2:	90 e0       	ldi	r25, 0x00	; 0
    4ed4:	24 d4       	rcall	.+2120   	; 0x571e <fputc>
    4ed6:	e8 cf       	rjmp	.-48     	; 0x4ea8 <vfprintf+0x4c>
    4ed8:	91 2c       	mov	r9, r1
    4eda:	21 2c       	mov	r2, r1
    4edc:	31 2c       	mov	r3, r1
    4ede:	ff e1       	ldi	r31, 0x1F	; 31
    4ee0:	f3 15       	cp	r31, r3
    4ee2:	d8 f0       	brcs	.+54     	; 0x4f1a <vfprintf+0xbe>
    4ee4:	8b 32       	cpi	r24, 0x2B	; 43
    4ee6:	79 f0       	breq	.+30     	; 0x4f06 <vfprintf+0xaa>
    4ee8:	38 f4       	brcc	.+14     	; 0x4ef8 <vfprintf+0x9c>
    4eea:	80 32       	cpi	r24, 0x20	; 32
    4eec:	79 f0       	breq	.+30     	; 0x4f0c <vfprintf+0xb0>
    4eee:	83 32       	cpi	r24, 0x23	; 35
    4ef0:	a1 f4       	brne	.+40     	; 0x4f1a <vfprintf+0xbe>
    4ef2:	23 2d       	mov	r18, r3
    4ef4:	20 61       	ori	r18, 0x10	; 16
    4ef6:	1d c0       	rjmp	.+58     	; 0x4f32 <vfprintf+0xd6>
    4ef8:	8d 32       	cpi	r24, 0x2D	; 45
    4efa:	61 f0       	breq	.+24     	; 0x4f14 <vfprintf+0xb8>
    4efc:	80 33       	cpi	r24, 0x30	; 48
    4efe:	69 f4       	brne	.+26     	; 0x4f1a <vfprintf+0xbe>
    4f00:	23 2d       	mov	r18, r3
    4f02:	21 60       	ori	r18, 0x01	; 1
    4f04:	16 c0       	rjmp	.+44     	; 0x4f32 <vfprintf+0xd6>
    4f06:	83 2d       	mov	r24, r3
    4f08:	82 60       	ori	r24, 0x02	; 2
    4f0a:	38 2e       	mov	r3, r24
    4f0c:	e3 2d       	mov	r30, r3
    4f0e:	e4 60       	ori	r30, 0x04	; 4
    4f10:	3e 2e       	mov	r3, r30
    4f12:	2a c0       	rjmp	.+84     	; 0x4f68 <vfprintf+0x10c>
    4f14:	f3 2d       	mov	r31, r3
    4f16:	f8 60       	ori	r31, 0x08	; 8
    4f18:	1d c0       	rjmp	.+58     	; 0x4f54 <vfprintf+0xf8>
    4f1a:	37 fc       	sbrc	r3, 7
    4f1c:	2d c0       	rjmp	.+90     	; 0x4f78 <vfprintf+0x11c>
    4f1e:	20 ed       	ldi	r18, 0xD0	; 208
    4f20:	28 0f       	add	r18, r24
    4f22:	2a 30       	cpi	r18, 0x0A	; 10
    4f24:	40 f0       	brcs	.+16     	; 0x4f36 <vfprintf+0xda>
    4f26:	8e 32       	cpi	r24, 0x2E	; 46
    4f28:	b9 f4       	brne	.+46     	; 0x4f58 <vfprintf+0xfc>
    4f2a:	36 fc       	sbrc	r3, 6
    4f2c:	75 c1       	rjmp	.+746    	; 0x5218 <vfprintf+0x3bc>
    4f2e:	23 2d       	mov	r18, r3
    4f30:	20 64       	ori	r18, 0x40	; 64
    4f32:	32 2e       	mov	r3, r18
    4f34:	19 c0       	rjmp	.+50     	; 0x4f68 <vfprintf+0x10c>
    4f36:	36 fe       	sbrs	r3, 6
    4f38:	06 c0       	rjmp	.+12     	; 0x4f46 <vfprintf+0xea>
    4f3a:	8a e0       	ldi	r24, 0x0A	; 10
    4f3c:	98 9e       	mul	r9, r24
    4f3e:	20 0d       	add	r18, r0
    4f40:	11 24       	eor	r1, r1
    4f42:	92 2e       	mov	r9, r18
    4f44:	11 c0       	rjmp	.+34     	; 0x4f68 <vfprintf+0x10c>
    4f46:	ea e0       	ldi	r30, 0x0A	; 10
    4f48:	2e 9e       	mul	r2, r30
    4f4a:	20 0d       	add	r18, r0
    4f4c:	11 24       	eor	r1, r1
    4f4e:	22 2e       	mov	r2, r18
    4f50:	f3 2d       	mov	r31, r3
    4f52:	f0 62       	ori	r31, 0x20	; 32
    4f54:	3f 2e       	mov	r3, r31
    4f56:	08 c0       	rjmp	.+16     	; 0x4f68 <vfprintf+0x10c>
    4f58:	8c 36       	cpi	r24, 0x6C	; 108
    4f5a:	21 f4       	brne	.+8      	; 0x4f64 <vfprintf+0x108>
    4f5c:	83 2d       	mov	r24, r3
    4f5e:	80 68       	ori	r24, 0x80	; 128
    4f60:	38 2e       	mov	r3, r24
    4f62:	02 c0       	rjmp	.+4      	; 0x4f68 <vfprintf+0x10c>
    4f64:	88 36       	cpi	r24, 0x68	; 104
    4f66:	41 f4       	brne	.+16     	; 0x4f78 <vfprintf+0x11c>
    4f68:	f7 01       	movw	r30, r14
    4f6a:	93 fd       	sbrc	r25, 3
    4f6c:	85 91       	lpm	r24, Z+
    4f6e:	93 ff       	sbrs	r25, 3
    4f70:	81 91       	ld	r24, Z+
    4f72:	7f 01       	movw	r14, r30
    4f74:	81 11       	cpse	r24, r1
    4f76:	b3 cf       	rjmp	.-154    	; 0x4ede <vfprintf+0x82>
    4f78:	98 2f       	mov	r25, r24
    4f7a:	9f 7d       	andi	r25, 0xDF	; 223
    4f7c:	95 54       	subi	r25, 0x45	; 69
    4f7e:	93 30       	cpi	r25, 0x03	; 3
    4f80:	28 f4       	brcc	.+10     	; 0x4f8c <vfprintf+0x130>
    4f82:	0c 5f       	subi	r16, 0xFC	; 252
    4f84:	1f 4f       	sbci	r17, 0xFF	; 255
    4f86:	9f e3       	ldi	r25, 0x3F	; 63
    4f88:	99 83       	std	Y+1, r25	; 0x01
    4f8a:	0d c0       	rjmp	.+26     	; 0x4fa6 <vfprintf+0x14a>
    4f8c:	83 36       	cpi	r24, 0x63	; 99
    4f8e:	31 f0       	breq	.+12     	; 0x4f9c <vfprintf+0x140>
    4f90:	83 37       	cpi	r24, 0x73	; 115
    4f92:	71 f0       	breq	.+28     	; 0x4fb0 <vfprintf+0x154>
    4f94:	83 35       	cpi	r24, 0x53	; 83
    4f96:	09 f0       	breq	.+2      	; 0x4f9a <vfprintf+0x13e>
    4f98:	55 c0       	rjmp	.+170    	; 0x5044 <vfprintf+0x1e8>
    4f9a:	20 c0       	rjmp	.+64     	; 0x4fdc <vfprintf+0x180>
    4f9c:	f8 01       	movw	r30, r16
    4f9e:	80 81       	ld	r24, Z
    4fa0:	89 83       	std	Y+1, r24	; 0x01
    4fa2:	0e 5f       	subi	r16, 0xFE	; 254
    4fa4:	1f 4f       	sbci	r17, 0xFF	; 255
    4fa6:	88 24       	eor	r8, r8
    4fa8:	83 94       	inc	r8
    4faa:	91 2c       	mov	r9, r1
    4fac:	53 01       	movw	r10, r6
    4fae:	12 c0       	rjmp	.+36     	; 0x4fd4 <vfprintf+0x178>
    4fb0:	28 01       	movw	r4, r16
    4fb2:	f2 e0       	ldi	r31, 0x02	; 2
    4fb4:	4f 0e       	add	r4, r31
    4fb6:	51 1c       	adc	r5, r1
    4fb8:	f8 01       	movw	r30, r16
    4fba:	a0 80       	ld	r10, Z
    4fbc:	b1 80       	ldd	r11, Z+1	; 0x01
    4fbe:	36 fe       	sbrs	r3, 6
    4fc0:	03 c0       	rjmp	.+6      	; 0x4fc8 <vfprintf+0x16c>
    4fc2:	69 2d       	mov	r22, r9
    4fc4:	70 e0       	ldi	r23, 0x00	; 0
    4fc6:	02 c0       	rjmp	.+4      	; 0x4fcc <vfprintf+0x170>
    4fc8:	6f ef       	ldi	r22, 0xFF	; 255
    4fca:	7f ef       	ldi	r23, 0xFF	; 255
    4fcc:	c5 01       	movw	r24, r10
    4fce:	9c d3       	rcall	.+1848   	; 0x5708 <strnlen>
    4fd0:	4c 01       	movw	r8, r24
    4fd2:	82 01       	movw	r16, r4
    4fd4:	f3 2d       	mov	r31, r3
    4fd6:	ff 77       	andi	r31, 0x7F	; 127
    4fd8:	3f 2e       	mov	r3, r31
    4fda:	15 c0       	rjmp	.+42     	; 0x5006 <vfprintf+0x1aa>
    4fdc:	28 01       	movw	r4, r16
    4fde:	22 e0       	ldi	r18, 0x02	; 2
    4fe0:	42 0e       	add	r4, r18
    4fe2:	51 1c       	adc	r5, r1
    4fe4:	f8 01       	movw	r30, r16
    4fe6:	a0 80       	ld	r10, Z
    4fe8:	b1 80       	ldd	r11, Z+1	; 0x01
    4fea:	36 fe       	sbrs	r3, 6
    4fec:	03 c0       	rjmp	.+6      	; 0x4ff4 <vfprintf+0x198>
    4fee:	69 2d       	mov	r22, r9
    4ff0:	70 e0       	ldi	r23, 0x00	; 0
    4ff2:	02 c0       	rjmp	.+4      	; 0x4ff8 <vfprintf+0x19c>
    4ff4:	6f ef       	ldi	r22, 0xFF	; 255
    4ff6:	7f ef       	ldi	r23, 0xFF	; 255
    4ff8:	c5 01       	movw	r24, r10
    4ffa:	7b d3       	rcall	.+1782   	; 0x56f2 <strnlen_P>
    4ffc:	4c 01       	movw	r8, r24
    4ffe:	f3 2d       	mov	r31, r3
    5000:	f0 68       	ori	r31, 0x80	; 128
    5002:	3f 2e       	mov	r3, r31
    5004:	82 01       	movw	r16, r4
    5006:	33 fc       	sbrc	r3, 3
    5008:	19 c0       	rjmp	.+50     	; 0x503c <vfprintf+0x1e0>
    500a:	82 2d       	mov	r24, r2
    500c:	90 e0       	ldi	r25, 0x00	; 0
    500e:	88 16       	cp	r8, r24
    5010:	99 06       	cpc	r9, r25
    5012:	a0 f4       	brcc	.+40     	; 0x503c <vfprintf+0x1e0>
    5014:	b6 01       	movw	r22, r12
    5016:	80 e2       	ldi	r24, 0x20	; 32
    5018:	90 e0       	ldi	r25, 0x00	; 0
    501a:	81 d3       	rcall	.+1794   	; 0x571e <fputc>
    501c:	2a 94       	dec	r2
    501e:	f5 cf       	rjmp	.-22     	; 0x500a <vfprintf+0x1ae>
    5020:	f5 01       	movw	r30, r10
    5022:	37 fc       	sbrc	r3, 7
    5024:	85 91       	lpm	r24, Z+
    5026:	37 fe       	sbrs	r3, 7
    5028:	81 91       	ld	r24, Z+
    502a:	5f 01       	movw	r10, r30
    502c:	b6 01       	movw	r22, r12
    502e:	90 e0       	ldi	r25, 0x00	; 0
    5030:	76 d3       	rcall	.+1772   	; 0x571e <fputc>
    5032:	21 10       	cpse	r2, r1
    5034:	2a 94       	dec	r2
    5036:	21 e0       	ldi	r18, 0x01	; 1
    5038:	82 1a       	sub	r8, r18
    503a:	91 08       	sbc	r9, r1
    503c:	81 14       	cp	r8, r1
    503e:	91 04       	cpc	r9, r1
    5040:	79 f7       	brne	.-34     	; 0x5020 <vfprintf+0x1c4>
    5042:	e1 c0       	rjmp	.+450    	; 0x5206 <vfprintf+0x3aa>
    5044:	84 36       	cpi	r24, 0x64	; 100
    5046:	11 f0       	breq	.+4      	; 0x504c <vfprintf+0x1f0>
    5048:	89 36       	cpi	r24, 0x69	; 105
    504a:	39 f5       	brne	.+78     	; 0x509a <vfprintf+0x23e>
    504c:	f8 01       	movw	r30, r16
    504e:	37 fe       	sbrs	r3, 7
    5050:	07 c0       	rjmp	.+14     	; 0x5060 <vfprintf+0x204>
    5052:	60 81       	ld	r22, Z
    5054:	71 81       	ldd	r23, Z+1	; 0x01
    5056:	82 81       	ldd	r24, Z+2	; 0x02
    5058:	93 81       	ldd	r25, Z+3	; 0x03
    505a:	0c 5f       	subi	r16, 0xFC	; 252
    505c:	1f 4f       	sbci	r17, 0xFF	; 255
    505e:	08 c0       	rjmp	.+16     	; 0x5070 <vfprintf+0x214>
    5060:	60 81       	ld	r22, Z
    5062:	71 81       	ldd	r23, Z+1	; 0x01
    5064:	07 2e       	mov	r0, r23
    5066:	00 0c       	add	r0, r0
    5068:	88 0b       	sbc	r24, r24
    506a:	99 0b       	sbc	r25, r25
    506c:	0e 5f       	subi	r16, 0xFE	; 254
    506e:	1f 4f       	sbci	r17, 0xFF	; 255
    5070:	f3 2d       	mov	r31, r3
    5072:	ff 76       	andi	r31, 0x6F	; 111
    5074:	3f 2e       	mov	r3, r31
    5076:	97 ff       	sbrs	r25, 7
    5078:	09 c0       	rjmp	.+18     	; 0x508c <vfprintf+0x230>
    507a:	90 95       	com	r25
    507c:	80 95       	com	r24
    507e:	70 95       	com	r23
    5080:	61 95       	neg	r22
    5082:	7f 4f       	sbci	r23, 0xFF	; 255
    5084:	8f 4f       	sbci	r24, 0xFF	; 255
    5086:	9f 4f       	sbci	r25, 0xFF	; 255
    5088:	f0 68       	ori	r31, 0x80	; 128
    508a:	3f 2e       	mov	r3, r31
    508c:	2a e0       	ldi	r18, 0x0A	; 10
    508e:	30 e0       	ldi	r19, 0x00	; 0
    5090:	a3 01       	movw	r20, r6
    5092:	81 d3       	rcall	.+1794   	; 0x5796 <__ultoa_invert>
    5094:	88 2e       	mov	r8, r24
    5096:	86 18       	sub	r8, r6
    5098:	44 c0       	rjmp	.+136    	; 0x5122 <vfprintf+0x2c6>
    509a:	85 37       	cpi	r24, 0x75	; 117
    509c:	31 f4       	brne	.+12     	; 0x50aa <vfprintf+0x24e>
    509e:	23 2d       	mov	r18, r3
    50a0:	2f 7e       	andi	r18, 0xEF	; 239
    50a2:	b2 2e       	mov	r11, r18
    50a4:	2a e0       	ldi	r18, 0x0A	; 10
    50a6:	30 e0       	ldi	r19, 0x00	; 0
    50a8:	25 c0       	rjmp	.+74     	; 0x50f4 <vfprintf+0x298>
    50aa:	93 2d       	mov	r25, r3
    50ac:	99 7f       	andi	r25, 0xF9	; 249
    50ae:	b9 2e       	mov	r11, r25
    50b0:	8f 36       	cpi	r24, 0x6F	; 111
    50b2:	c1 f0       	breq	.+48     	; 0x50e4 <vfprintf+0x288>
    50b4:	18 f4       	brcc	.+6      	; 0x50bc <vfprintf+0x260>
    50b6:	88 35       	cpi	r24, 0x58	; 88
    50b8:	79 f0       	breq	.+30     	; 0x50d8 <vfprintf+0x27c>
    50ba:	ae c0       	rjmp	.+348    	; 0x5218 <vfprintf+0x3bc>
    50bc:	80 37       	cpi	r24, 0x70	; 112
    50be:	19 f0       	breq	.+6      	; 0x50c6 <vfprintf+0x26a>
    50c0:	88 37       	cpi	r24, 0x78	; 120
    50c2:	21 f0       	breq	.+8      	; 0x50cc <vfprintf+0x270>
    50c4:	a9 c0       	rjmp	.+338    	; 0x5218 <vfprintf+0x3bc>
    50c6:	e9 2f       	mov	r30, r25
    50c8:	e0 61       	ori	r30, 0x10	; 16
    50ca:	be 2e       	mov	r11, r30
    50cc:	b4 fe       	sbrs	r11, 4
    50ce:	0d c0       	rjmp	.+26     	; 0x50ea <vfprintf+0x28e>
    50d0:	fb 2d       	mov	r31, r11
    50d2:	f4 60       	ori	r31, 0x04	; 4
    50d4:	bf 2e       	mov	r11, r31
    50d6:	09 c0       	rjmp	.+18     	; 0x50ea <vfprintf+0x28e>
    50d8:	34 fe       	sbrs	r3, 4
    50da:	0a c0       	rjmp	.+20     	; 0x50f0 <vfprintf+0x294>
    50dc:	29 2f       	mov	r18, r25
    50de:	26 60       	ori	r18, 0x06	; 6
    50e0:	b2 2e       	mov	r11, r18
    50e2:	06 c0       	rjmp	.+12     	; 0x50f0 <vfprintf+0x294>
    50e4:	28 e0       	ldi	r18, 0x08	; 8
    50e6:	30 e0       	ldi	r19, 0x00	; 0
    50e8:	05 c0       	rjmp	.+10     	; 0x50f4 <vfprintf+0x298>
    50ea:	20 e1       	ldi	r18, 0x10	; 16
    50ec:	30 e0       	ldi	r19, 0x00	; 0
    50ee:	02 c0       	rjmp	.+4      	; 0x50f4 <vfprintf+0x298>
    50f0:	20 e1       	ldi	r18, 0x10	; 16
    50f2:	32 e0       	ldi	r19, 0x02	; 2
    50f4:	f8 01       	movw	r30, r16
    50f6:	b7 fe       	sbrs	r11, 7
    50f8:	07 c0       	rjmp	.+14     	; 0x5108 <vfprintf+0x2ac>
    50fa:	60 81       	ld	r22, Z
    50fc:	71 81       	ldd	r23, Z+1	; 0x01
    50fe:	82 81       	ldd	r24, Z+2	; 0x02
    5100:	93 81       	ldd	r25, Z+3	; 0x03
    5102:	0c 5f       	subi	r16, 0xFC	; 252
    5104:	1f 4f       	sbci	r17, 0xFF	; 255
    5106:	06 c0       	rjmp	.+12     	; 0x5114 <vfprintf+0x2b8>
    5108:	60 81       	ld	r22, Z
    510a:	71 81       	ldd	r23, Z+1	; 0x01
    510c:	80 e0       	ldi	r24, 0x00	; 0
    510e:	90 e0       	ldi	r25, 0x00	; 0
    5110:	0e 5f       	subi	r16, 0xFE	; 254
    5112:	1f 4f       	sbci	r17, 0xFF	; 255
    5114:	a3 01       	movw	r20, r6
    5116:	3f d3       	rcall	.+1662   	; 0x5796 <__ultoa_invert>
    5118:	88 2e       	mov	r8, r24
    511a:	86 18       	sub	r8, r6
    511c:	fb 2d       	mov	r31, r11
    511e:	ff 77       	andi	r31, 0x7F	; 127
    5120:	3f 2e       	mov	r3, r31
    5122:	36 fe       	sbrs	r3, 6
    5124:	0d c0       	rjmp	.+26     	; 0x5140 <vfprintf+0x2e4>
    5126:	23 2d       	mov	r18, r3
    5128:	2e 7f       	andi	r18, 0xFE	; 254
    512a:	a2 2e       	mov	r10, r18
    512c:	89 14       	cp	r8, r9
    512e:	58 f4       	brcc	.+22     	; 0x5146 <vfprintf+0x2ea>
    5130:	34 fe       	sbrs	r3, 4
    5132:	0b c0       	rjmp	.+22     	; 0x514a <vfprintf+0x2ee>
    5134:	32 fc       	sbrc	r3, 2
    5136:	09 c0       	rjmp	.+18     	; 0x514a <vfprintf+0x2ee>
    5138:	83 2d       	mov	r24, r3
    513a:	8e 7e       	andi	r24, 0xEE	; 238
    513c:	a8 2e       	mov	r10, r24
    513e:	05 c0       	rjmp	.+10     	; 0x514a <vfprintf+0x2ee>
    5140:	b8 2c       	mov	r11, r8
    5142:	a3 2c       	mov	r10, r3
    5144:	03 c0       	rjmp	.+6      	; 0x514c <vfprintf+0x2f0>
    5146:	b8 2c       	mov	r11, r8
    5148:	01 c0       	rjmp	.+2      	; 0x514c <vfprintf+0x2f0>
    514a:	b9 2c       	mov	r11, r9
    514c:	a4 fe       	sbrs	r10, 4
    514e:	0f c0       	rjmp	.+30     	; 0x516e <vfprintf+0x312>
    5150:	fe 01       	movw	r30, r28
    5152:	e8 0d       	add	r30, r8
    5154:	f1 1d       	adc	r31, r1
    5156:	80 81       	ld	r24, Z
    5158:	80 33       	cpi	r24, 0x30	; 48
    515a:	21 f4       	brne	.+8      	; 0x5164 <vfprintf+0x308>
    515c:	9a 2d       	mov	r25, r10
    515e:	99 7e       	andi	r25, 0xE9	; 233
    5160:	a9 2e       	mov	r10, r25
    5162:	09 c0       	rjmp	.+18     	; 0x5176 <vfprintf+0x31a>
    5164:	a2 fe       	sbrs	r10, 2
    5166:	06 c0       	rjmp	.+12     	; 0x5174 <vfprintf+0x318>
    5168:	b3 94       	inc	r11
    516a:	b3 94       	inc	r11
    516c:	04 c0       	rjmp	.+8      	; 0x5176 <vfprintf+0x31a>
    516e:	8a 2d       	mov	r24, r10
    5170:	86 78       	andi	r24, 0x86	; 134
    5172:	09 f0       	breq	.+2      	; 0x5176 <vfprintf+0x31a>
    5174:	b3 94       	inc	r11
    5176:	a3 fc       	sbrc	r10, 3
    5178:	10 c0       	rjmp	.+32     	; 0x519a <vfprintf+0x33e>
    517a:	a0 fe       	sbrs	r10, 0
    517c:	06 c0       	rjmp	.+12     	; 0x518a <vfprintf+0x32e>
    517e:	b2 14       	cp	r11, r2
    5180:	80 f4       	brcc	.+32     	; 0x51a2 <vfprintf+0x346>
    5182:	28 0c       	add	r2, r8
    5184:	92 2c       	mov	r9, r2
    5186:	9b 18       	sub	r9, r11
    5188:	0d c0       	rjmp	.+26     	; 0x51a4 <vfprintf+0x348>
    518a:	b2 14       	cp	r11, r2
    518c:	58 f4       	brcc	.+22     	; 0x51a4 <vfprintf+0x348>
    518e:	b6 01       	movw	r22, r12
    5190:	80 e2       	ldi	r24, 0x20	; 32
    5192:	90 e0       	ldi	r25, 0x00	; 0
    5194:	c4 d2       	rcall	.+1416   	; 0x571e <fputc>
    5196:	b3 94       	inc	r11
    5198:	f8 cf       	rjmp	.-16     	; 0x518a <vfprintf+0x32e>
    519a:	b2 14       	cp	r11, r2
    519c:	18 f4       	brcc	.+6      	; 0x51a4 <vfprintf+0x348>
    519e:	2b 18       	sub	r2, r11
    51a0:	02 c0       	rjmp	.+4      	; 0x51a6 <vfprintf+0x34a>
    51a2:	98 2c       	mov	r9, r8
    51a4:	21 2c       	mov	r2, r1
    51a6:	a4 fe       	sbrs	r10, 4
    51a8:	0f c0       	rjmp	.+30     	; 0x51c8 <vfprintf+0x36c>
    51aa:	b6 01       	movw	r22, r12
    51ac:	80 e3       	ldi	r24, 0x30	; 48
    51ae:	90 e0       	ldi	r25, 0x00	; 0
    51b0:	b6 d2       	rcall	.+1388   	; 0x571e <fputc>
    51b2:	a2 fe       	sbrs	r10, 2
    51b4:	16 c0       	rjmp	.+44     	; 0x51e2 <vfprintf+0x386>
    51b6:	a1 fc       	sbrc	r10, 1
    51b8:	03 c0       	rjmp	.+6      	; 0x51c0 <vfprintf+0x364>
    51ba:	88 e7       	ldi	r24, 0x78	; 120
    51bc:	90 e0       	ldi	r25, 0x00	; 0
    51be:	02 c0       	rjmp	.+4      	; 0x51c4 <vfprintf+0x368>
    51c0:	88 e5       	ldi	r24, 0x58	; 88
    51c2:	90 e0       	ldi	r25, 0x00	; 0
    51c4:	b6 01       	movw	r22, r12
    51c6:	0c c0       	rjmp	.+24     	; 0x51e0 <vfprintf+0x384>
    51c8:	8a 2d       	mov	r24, r10
    51ca:	86 78       	andi	r24, 0x86	; 134
    51cc:	51 f0       	breq	.+20     	; 0x51e2 <vfprintf+0x386>
    51ce:	a1 fe       	sbrs	r10, 1
    51d0:	02 c0       	rjmp	.+4      	; 0x51d6 <vfprintf+0x37a>
    51d2:	8b e2       	ldi	r24, 0x2B	; 43
    51d4:	01 c0       	rjmp	.+2      	; 0x51d8 <vfprintf+0x37c>
    51d6:	80 e2       	ldi	r24, 0x20	; 32
    51d8:	a7 fc       	sbrc	r10, 7
    51da:	8d e2       	ldi	r24, 0x2D	; 45
    51dc:	b6 01       	movw	r22, r12
    51de:	90 e0       	ldi	r25, 0x00	; 0
    51e0:	9e d2       	rcall	.+1340   	; 0x571e <fputc>
    51e2:	89 14       	cp	r8, r9
    51e4:	30 f4       	brcc	.+12     	; 0x51f2 <vfprintf+0x396>
    51e6:	b6 01       	movw	r22, r12
    51e8:	80 e3       	ldi	r24, 0x30	; 48
    51ea:	90 e0       	ldi	r25, 0x00	; 0
    51ec:	98 d2       	rcall	.+1328   	; 0x571e <fputc>
    51ee:	9a 94       	dec	r9
    51f0:	f8 cf       	rjmp	.-16     	; 0x51e2 <vfprintf+0x386>
    51f2:	8a 94       	dec	r8
    51f4:	f3 01       	movw	r30, r6
    51f6:	e8 0d       	add	r30, r8
    51f8:	f1 1d       	adc	r31, r1
    51fa:	80 81       	ld	r24, Z
    51fc:	b6 01       	movw	r22, r12
    51fe:	90 e0       	ldi	r25, 0x00	; 0
    5200:	8e d2       	rcall	.+1308   	; 0x571e <fputc>
    5202:	81 10       	cpse	r8, r1
    5204:	f6 cf       	rjmp	.-20     	; 0x51f2 <vfprintf+0x396>
    5206:	22 20       	and	r2, r2
    5208:	09 f4       	brne	.+2      	; 0x520c <vfprintf+0x3b0>
    520a:	4e ce       	rjmp	.-868    	; 0x4ea8 <vfprintf+0x4c>
    520c:	b6 01       	movw	r22, r12
    520e:	80 e2       	ldi	r24, 0x20	; 32
    5210:	90 e0       	ldi	r25, 0x00	; 0
    5212:	85 d2       	rcall	.+1290   	; 0x571e <fputc>
    5214:	2a 94       	dec	r2
    5216:	f7 cf       	rjmp	.-18     	; 0x5206 <vfprintf+0x3aa>
    5218:	f6 01       	movw	r30, r12
    521a:	86 81       	ldd	r24, Z+6	; 0x06
    521c:	97 81       	ldd	r25, Z+7	; 0x07
    521e:	02 c0       	rjmp	.+4      	; 0x5224 <vfprintf+0x3c8>
    5220:	8f ef       	ldi	r24, 0xFF	; 255
    5222:	9f ef       	ldi	r25, 0xFF	; 255
    5224:	2b 96       	adiw	r28, 0x0b	; 11
    5226:	0f b6       	in	r0, 0x3f	; 63
    5228:	f8 94       	cli
    522a:	de bf       	out	0x3e, r29	; 62
    522c:	0f be       	out	0x3f, r0	; 63
    522e:	cd bf       	out	0x3d, r28	; 61
    5230:	df 91       	pop	r29
    5232:	cf 91       	pop	r28
    5234:	1f 91       	pop	r17
    5236:	0f 91       	pop	r16
    5238:	ff 90       	pop	r15
    523a:	ef 90       	pop	r14
    523c:	df 90       	pop	r13
    523e:	cf 90       	pop	r12
    5240:	bf 90       	pop	r11
    5242:	af 90       	pop	r10
    5244:	9f 90       	pop	r9
    5246:	8f 90       	pop	r8
    5248:	7f 90       	pop	r7
    524a:	6f 90       	pop	r6
    524c:	5f 90       	pop	r5
    524e:	4f 90       	pop	r4
    5250:	3f 90       	pop	r3
    5252:	2f 90       	pop	r2
    5254:	08 95       	ret

00005256 <dtoa_prf>:
    5256:	8f 92       	push	r8
    5258:	9f 92       	push	r9
    525a:	af 92       	push	r10
    525c:	bf 92       	push	r11
    525e:	cf 92       	push	r12
    5260:	df 92       	push	r13
    5262:	ef 92       	push	r14
    5264:	ff 92       	push	r15
    5266:	0f 93       	push	r16
    5268:	1f 93       	push	r17
    526a:	cf 93       	push	r28
    526c:	df 93       	push	r29
    526e:	cd b7       	in	r28, 0x3d	; 61
    5270:	de b7       	in	r29, 0x3e	; 62
    5272:	29 97       	sbiw	r28, 0x09	; 9
    5274:	0f b6       	in	r0, 0x3f	; 63
    5276:	f8 94       	cli
    5278:	de bf       	out	0x3e, r29	; 62
    527a:	0f be       	out	0x3f, r0	; 63
    527c:	cd bf       	out	0x3d, r28	; 61
    527e:	6a 01       	movw	r12, r20
    5280:	12 2f       	mov	r17, r18
    5282:	b0 2e       	mov	r11, r16
    5284:	2b e3       	ldi	r18, 0x3B	; 59
    5286:	20 17       	cp	r18, r16
    5288:	20 f0       	brcs	.+8      	; 0x5292 <dtoa_prf+0x3c>
    528a:	ff 24       	eor	r15, r15
    528c:	f3 94       	inc	r15
    528e:	f0 0e       	add	r15, r16
    5290:	02 c0       	rjmp	.+4      	; 0x5296 <dtoa_prf+0x40>
    5292:	2c e3       	ldi	r18, 0x3C	; 60
    5294:	f2 2e       	mov	r15, r18
    5296:	0f 2d       	mov	r16, r15
    5298:	27 e0       	ldi	r18, 0x07	; 7
    529a:	ae 01       	movw	r20, r28
    529c:	4f 5f       	subi	r20, 0xFF	; 255
    529e:	5f 4f       	sbci	r21, 0xFF	; 255
    52a0:	50 d1       	rcall	.+672    	; 0x5542 <__ftoa_engine>
    52a2:	bc 01       	movw	r22, r24
    52a4:	49 81       	ldd	r20, Y+1	; 0x01
    52a6:	84 2f       	mov	r24, r20
    52a8:	89 70       	andi	r24, 0x09	; 9
    52aa:	81 30       	cpi	r24, 0x01	; 1
    52ac:	31 f0       	breq	.+12     	; 0x52ba <dtoa_prf+0x64>
    52ae:	e1 fc       	sbrc	r14, 1
    52b0:	06 c0       	rjmp	.+12     	; 0x52be <dtoa_prf+0x68>
    52b2:	e0 fe       	sbrs	r14, 0
    52b4:	06 c0       	rjmp	.+12     	; 0x52c2 <dtoa_prf+0x6c>
    52b6:	90 e2       	ldi	r25, 0x20	; 32
    52b8:	05 c0       	rjmp	.+10     	; 0x52c4 <dtoa_prf+0x6e>
    52ba:	9d e2       	ldi	r25, 0x2D	; 45
    52bc:	03 c0       	rjmp	.+6      	; 0x52c4 <dtoa_prf+0x6e>
    52be:	9b e2       	ldi	r25, 0x2B	; 43
    52c0:	01 c0       	rjmp	.+2      	; 0x52c4 <dtoa_prf+0x6e>
    52c2:	90 e0       	ldi	r25, 0x00	; 0
    52c4:	5e 2d       	mov	r21, r14
    52c6:	50 71       	andi	r21, 0x10	; 16
    52c8:	43 ff       	sbrs	r20, 3
    52ca:	3c c0       	rjmp	.+120    	; 0x5344 <dtoa_prf+0xee>
    52cc:	91 11       	cpse	r25, r1
    52ce:	02 c0       	rjmp	.+4      	; 0x52d4 <dtoa_prf+0x7e>
    52d0:	83 e0       	ldi	r24, 0x03	; 3
    52d2:	01 c0       	rjmp	.+2      	; 0x52d6 <dtoa_prf+0x80>
    52d4:	84 e0       	ldi	r24, 0x04	; 4
    52d6:	81 17       	cp	r24, r17
    52d8:	18 f4       	brcc	.+6      	; 0x52e0 <dtoa_prf+0x8a>
    52da:	21 2f       	mov	r18, r17
    52dc:	28 1b       	sub	r18, r24
    52de:	01 c0       	rjmp	.+2      	; 0x52e2 <dtoa_prf+0x8c>
    52e0:	20 e0       	ldi	r18, 0x00	; 0
    52e2:	51 11       	cpse	r21, r1
    52e4:	0b c0       	rjmp	.+22     	; 0x52fc <dtoa_prf+0xa6>
    52e6:	f6 01       	movw	r30, r12
    52e8:	82 2f       	mov	r24, r18
    52ea:	30 e2       	ldi	r19, 0x20	; 32
    52ec:	88 23       	and	r24, r24
    52ee:	19 f0       	breq	.+6      	; 0x52f6 <dtoa_prf+0xa0>
    52f0:	31 93       	st	Z+, r19
    52f2:	81 50       	subi	r24, 0x01	; 1
    52f4:	fb cf       	rjmp	.-10     	; 0x52ec <dtoa_prf+0x96>
    52f6:	c2 0e       	add	r12, r18
    52f8:	d1 1c       	adc	r13, r1
    52fa:	20 e0       	ldi	r18, 0x00	; 0
    52fc:	99 23       	and	r25, r25
    52fe:	29 f0       	breq	.+10     	; 0x530a <dtoa_prf+0xb4>
    5300:	d6 01       	movw	r26, r12
    5302:	9c 93       	st	X, r25
    5304:	f6 01       	movw	r30, r12
    5306:	31 96       	adiw	r30, 0x01	; 1
    5308:	6f 01       	movw	r12, r30
    530a:	c6 01       	movw	r24, r12
    530c:	03 96       	adiw	r24, 0x03	; 3
    530e:	e2 fe       	sbrs	r14, 2
    5310:	0a c0       	rjmp	.+20     	; 0x5326 <dtoa_prf+0xd0>
    5312:	3e e4       	ldi	r19, 0x4E	; 78
    5314:	d6 01       	movw	r26, r12
    5316:	3c 93       	st	X, r19
    5318:	41 e4       	ldi	r20, 0x41	; 65
    531a:	11 96       	adiw	r26, 0x01	; 1
    531c:	4c 93       	st	X, r20
    531e:	11 97       	sbiw	r26, 0x01	; 1
    5320:	12 96       	adiw	r26, 0x02	; 2
    5322:	3c 93       	st	X, r19
    5324:	06 c0       	rjmp	.+12     	; 0x5332 <dtoa_prf+0xdc>
    5326:	3e e6       	ldi	r19, 0x6E	; 110
    5328:	f6 01       	movw	r30, r12
    532a:	30 83       	st	Z, r19
    532c:	41 e6       	ldi	r20, 0x61	; 97
    532e:	41 83       	std	Z+1, r20	; 0x01
    5330:	32 83       	std	Z+2, r19	; 0x02
    5332:	fc 01       	movw	r30, r24
    5334:	32 2f       	mov	r19, r18
    5336:	40 e2       	ldi	r20, 0x20	; 32
    5338:	33 23       	and	r19, r19
    533a:	09 f4       	brne	.+2      	; 0x533e <dtoa_prf+0xe8>
    533c:	42 c0       	rjmp	.+132    	; 0x53c2 <dtoa_prf+0x16c>
    533e:	41 93       	st	Z+, r20
    5340:	31 50       	subi	r19, 0x01	; 1
    5342:	fa cf       	rjmp	.-12     	; 0x5338 <dtoa_prf+0xe2>
    5344:	42 ff       	sbrs	r20, 2
    5346:	44 c0       	rjmp	.+136    	; 0x53d0 <dtoa_prf+0x17a>
    5348:	91 11       	cpse	r25, r1
    534a:	02 c0       	rjmp	.+4      	; 0x5350 <dtoa_prf+0xfa>
    534c:	83 e0       	ldi	r24, 0x03	; 3
    534e:	01 c0       	rjmp	.+2      	; 0x5352 <dtoa_prf+0xfc>
    5350:	84 e0       	ldi	r24, 0x04	; 4
    5352:	81 17       	cp	r24, r17
    5354:	18 f4       	brcc	.+6      	; 0x535c <dtoa_prf+0x106>
    5356:	21 2f       	mov	r18, r17
    5358:	28 1b       	sub	r18, r24
    535a:	01 c0       	rjmp	.+2      	; 0x535e <dtoa_prf+0x108>
    535c:	20 e0       	ldi	r18, 0x00	; 0
    535e:	51 11       	cpse	r21, r1
    5360:	0b c0       	rjmp	.+22     	; 0x5378 <dtoa_prf+0x122>
    5362:	f6 01       	movw	r30, r12
    5364:	82 2f       	mov	r24, r18
    5366:	30 e2       	ldi	r19, 0x20	; 32
    5368:	88 23       	and	r24, r24
    536a:	19 f0       	breq	.+6      	; 0x5372 <dtoa_prf+0x11c>
    536c:	31 93       	st	Z+, r19
    536e:	81 50       	subi	r24, 0x01	; 1
    5370:	fb cf       	rjmp	.-10     	; 0x5368 <dtoa_prf+0x112>
    5372:	c2 0e       	add	r12, r18
    5374:	d1 1c       	adc	r13, r1
    5376:	20 e0       	ldi	r18, 0x00	; 0
    5378:	99 23       	and	r25, r25
    537a:	29 f0       	breq	.+10     	; 0x5386 <dtoa_prf+0x130>
    537c:	d6 01       	movw	r26, r12
    537e:	9c 93       	st	X, r25
    5380:	f6 01       	movw	r30, r12
    5382:	31 96       	adiw	r30, 0x01	; 1
    5384:	6f 01       	movw	r12, r30
    5386:	c6 01       	movw	r24, r12
    5388:	03 96       	adiw	r24, 0x03	; 3
    538a:	e2 fe       	sbrs	r14, 2
    538c:	0b c0       	rjmp	.+22     	; 0x53a4 <dtoa_prf+0x14e>
    538e:	39 e4       	ldi	r19, 0x49	; 73
    5390:	d6 01       	movw	r26, r12
    5392:	3c 93       	st	X, r19
    5394:	3e e4       	ldi	r19, 0x4E	; 78
    5396:	11 96       	adiw	r26, 0x01	; 1
    5398:	3c 93       	st	X, r19
    539a:	11 97       	sbiw	r26, 0x01	; 1
    539c:	36 e4       	ldi	r19, 0x46	; 70
    539e:	12 96       	adiw	r26, 0x02	; 2
    53a0:	3c 93       	st	X, r19
    53a2:	07 c0       	rjmp	.+14     	; 0x53b2 <dtoa_prf+0x15c>
    53a4:	39 e6       	ldi	r19, 0x69	; 105
    53a6:	f6 01       	movw	r30, r12
    53a8:	30 83       	st	Z, r19
    53aa:	3e e6       	ldi	r19, 0x6E	; 110
    53ac:	31 83       	std	Z+1, r19	; 0x01
    53ae:	36 e6       	ldi	r19, 0x66	; 102
    53b0:	32 83       	std	Z+2, r19	; 0x02
    53b2:	fc 01       	movw	r30, r24
    53b4:	32 2f       	mov	r19, r18
    53b6:	40 e2       	ldi	r20, 0x20	; 32
    53b8:	33 23       	and	r19, r19
    53ba:	19 f0       	breq	.+6      	; 0x53c2 <dtoa_prf+0x16c>
    53bc:	41 93       	st	Z+, r20
    53be:	31 50       	subi	r19, 0x01	; 1
    53c0:	fb cf       	rjmp	.-10     	; 0x53b8 <dtoa_prf+0x162>
    53c2:	fc 01       	movw	r30, r24
    53c4:	e2 0f       	add	r30, r18
    53c6:	f1 1d       	adc	r31, r1
    53c8:	10 82       	st	Z, r1
    53ca:	8e ef       	ldi	r24, 0xFE	; 254
    53cc:	9f ef       	ldi	r25, 0xFF	; 255
    53ce:	a6 c0       	rjmp	.+332    	; 0x551c <dtoa_prf+0x2c6>
    53d0:	21 e0       	ldi	r18, 0x01	; 1
    53d2:	30 e0       	ldi	r19, 0x00	; 0
    53d4:	91 11       	cpse	r25, r1
    53d6:	02 c0       	rjmp	.+4      	; 0x53dc <dtoa_prf+0x186>
    53d8:	20 e0       	ldi	r18, 0x00	; 0
    53da:	30 e0       	ldi	r19, 0x00	; 0
    53dc:	16 16       	cp	r1, r22
    53de:	17 06       	cpc	r1, r23
    53e0:	1c f4       	brge	.+6      	; 0x53e8 <dtoa_prf+0x192>
    53e2:	fb 01       	movw	r30, r22
    53e4:	31 96       	adiw	r30, 0x01	; 1
    53e6:	02 c0       	rjmp	.+4      	; 0x53ec <dtoa_prf+0x196>
    53e8:	e1 e0       	ldi	r30, 0x01	; 1
    53ea:	f0 e0       	ldi	r31, 0x00	; 0
    53ec:	2e 0f       	add	r18, r30
    53ee:	3f 1f       	adc	r19, r31
    53f0:	bb 20       	and	r11, r11
    53f2:	21 f0       	breq	.+8      	; 0x53fc <dtoa_prf+0x1a6>
    53f4:	eb 2d       	mov	r30, r11
    53f6:	f0 e0       	ldi	r31, 0x00	; 0
    53f8:	31 96       	adiw	r30, 0x01	; 1
    53fa:	02 c0       	rjmp	.+4      	; 0x5400 <dtoa_prf+0x1aa>
    53fc:	e0 e0       	ldi	r30, 0x00	; 0
    53fe:	f0 e0       	ldi	r31, 0x00	; 0
    5400:	2e 0f       	add	r18, r30
    5402:	3f 1f       	adc	r19, r31
    5404:	e1 2f       	mov	r30, r17
    5406:	f0 e0       	ldi	r31, 0x00	; 0
    5408:	2e 17       	cp	r18, r30
    540a:	3f 07       	cpc	r19, r31
    540c:	1c f4       	brge	.+6      	; 0x5414 <dtoa_prf+0x1be>
    540e:	12 1b       	sub	r17, r18
    5410:	21 2f       	mov	r18, r17
    5412:	01 c0       	rjmp	.+2      	; 0x5416 <dtoa_prf+0x1c0>
    5414:	20 e0       	ldi	r18, 0x00	; 0
    5416:	8e 2d       	mov	r24, r14
    5418:	88 71       	andi	r24, 0x18	; 24
    541a:	59 f4       	brne	.+22     	; 0x5432 <dtoa_prf+0x1dc>
    541c:	f6 01       	movw	r30, r12
    541e:	82 2f       	mov	r24, r18
    5420:	30 e2       	ldi	r19, 0x20	; 32
    5422:	88 23       	and	r24, r24
    5424:	19 f0       	breq	.+6      	; 0x542c <dtoa_prf+0x1d6>
    5426:	31 93       	st	Z+, r19
    5428:	81 50       	subi	r24, 0x01	; 1
    542a:	fb cf       	rjmp	.-10     	; 0x5422 <dtoa_prf+0x1cc>
    542c:	c2 0e       	add	r12, r18
    542e:	d1 1c       	adc	r13, r1
    5430:	20 e0       	ldi	r18, 0x00	; 0
    5432:	99 23       	and	r25, r25
    5434:	29 f0       	breq	.+10     	; 0x5440 <dtoa_prf+0x1ea>
    5436:	d6 01       	movw	r26, r12
    5438:	9c 93       	st	X, r25
    543a:	f6 01       	movw	r30, r12
    543c:	31 96       	adiw	r30, 0x01	; 1
    543e:	6f 01       	movw	r12, r30
    5440:	51 11       	cpse	r21, r1
    5442:	0b c0       	rjmp	.+22     	; 0x545a <dtoa_prf+0x204>
    5444:	f6 01       	movw	r30, r12
    5446:	82 2f       	mov	r24, r18
    5448:	90 e3       	ldi	r25, 0x30	; 48
    544a:	88 23       	and	r24, r24
    544c:	19 f0       	breq	.+6      	; 0x5454 <dtoa_prf+0x1fe>
    544e:	91 93       	st	Z+, r25
    5450:	81 50       	subi	r24, 0x01	; 1
    5452:	fb cf       	rjmp	.-10     	; 0x544a <dtoa_prf+0x1f4>
    5454:	c2 0e       	add	r12, r18
    5456:	d1 1c       	adc	r13, r1
    5458:	20 e0       	ldi	r18, 0x00	; 0
    545a:	0f 2d       	mov	r16, r15
    545c:	06 0f       	add	r16, r22
    545e:	9a 81       	ldd	r25, Y+2	; 0x02
    5460:	34 2f       	mov	r19, r20
    5462:	30 71       	andi	r19, 0x10	; 16
    5464:	44 ff       	sbrs	r20, 4
    5466:	03 c0       	rjmp	.+6      	; 0x546e <dtoa_prf+0x218>
    5468:	91 33       	cpi	r25, 0x31	; 49
    546a:	09 f4       	brne	.+2      	; 0x546e <dtoa_prf+0x218>
    546c:	01 50       	subi	r16, 0x01	; 1
    546e:	10 16       	cp	r1, r16
    5470:	24 f4       	brge	.+8      	; 0x547a <dtoa_prf+0x224>
    5472:	09 30       	cpi	r16, 0x09	; 9
    5474:	18 f0       	brcs	.+6      	; 0x547c <dtoa_prf+0x226>
    5476:	08 e0       	ldi	r16, 0x08	; 8
    5478:	01 c0       	rjmp	.+2      	; 0x547c <dtoa_prf+0x226>
    547a:	01 e0       	ldi	r16, 0x01	; 1
    547c:	ab 01       	movw	r20, r22
    547e:	77 ff       	sbrs	r23, 7
    5480:	02 c0       	rjmp	.+4      	; 0x5486 <dtoa_prf+0x230>
    5482:	40 e0       	ldi	r20, 0x00	; 0
    5484:	50 e0       	ldi	r21, 0x00	; 0
    5486:	fb 01       	movw	r30, r22
    5488:	e4 1b       	sub	r30, r20
    548a:	f5 0b       	sbc	r31, r21
    548c:	a1 e0       	ldi	r26, 0x01	; 1
    548e:	b0 e0       	ldi	r27, 0x00	; 0
    5490:	ac 0f       	add	r26, r28
    5492:	bd 1f       	adc	r27, r29
    5494:	ea 0f       	add	r30, r26
    5496:	fb 1f       	adc	r31, r27
    5498:	8e e2       	ldi	r24, 0x2E	; 46
    549a:	a8 2e       	mov	r10, r24
    549c:	4b 01       	movw	r8, r22
    549e:	80 1a       	sub	r8, r16
    54a0:	91 08       	sbc	r9, r1
    54a2:	0b 2d       	mov	r16, r11
    54a4:	10 e0       	ldi	r17, 0x00	; 0
    54a6:	11 95       	neg	r17
    54a8:	01 95       	neg	r16
    54aa:	11 09       	sbc	r17, r1
    54ac:	4f 3f       	cpi	r20, 0xFF	; 255
    54ae:	bf ef       	ldi	r27, 0xFF	; 255
    54b0:	5b 07       	cpc	r21, r27
    54b2:	21 f4       	brne	.+8      	; 0x54bc <dtoa_prf+0x266>
    54b4:	d6 01       	movw	r26, r12
    54b6:	ac 92       	st	X, r10
    54b8:	11 96       	adiw	r26, 0x01	; 1
    54ba:	6d 01       	movw	r12, r26
    54bc:	64 17       	cp	r22, r20
    54be:	75 07       	cpc	r23, r21
    54c0:	2c f0       	brlt	.+10     	; 0x54cc <dtoa_prf+0x276>
    54c2:	84 16       	cp	r8, r20
    54c4:	95 06       	cpc	r9, r21
    54c6:	14 f4       	brge	.+4      	; 0x54cc <dtoa_prf+0x276>
    54c8:	81 81       	ldd	r24, Z+1	; 0x01
    54ca:	01 c0       	rjmp	.+2      	; 0x54ce <dtoa_prf+0x278>
    54cc:	80 e3       	ldi	r24, 0x30	; 48
    54ce:	41 50       	subi	r20, 0x01	; 1
    54d0:	51 09       	sbc	r21, r1
    54d2:	31 96       	adiw	r30, 0x01	; 1
    54d4:	d6 01       	movw	r26, r12
    54d6:	11 96       	adiw	r26, 0x01	; 1
    54d8:	7d 01       	movw	r14, r26
    54da:	40 17       	cp	r20, r16
    54dc:	51 07       	cpc	r21, r17
    54de:	24 f0       	brlt	.+8      	; 0x54e8 <dtoa_prf+0x292>
    54e0:	d6 01       	movw	r26, r12
    54e2:	8c 93       	st	X, r24
    54e4:	67 01       	movw	r12, r14
    54e6:	e2 cf       	rjmp	.-60     	; 0x54ac <dtoa_prf+0x256>
    54e8:	64 17       	cp	r22, r20
    54ea:	75 07       	cpc	r23, r21
    54ec:	39 f4       	brne	.+14     	; 0x54fc <dtoa_prf+0x2a6>
    54ee:	96 33       	cpi	r25, 0x36	; 54
    54f0:	20 f4       	brcc	.+8      	; 0x54fa <dtoa_prf+0x2a4>
    54f2:	95 33       	cpi	r25, 0x35	; 53
    54f4:	19 f4       	brne	.+6      	; 0x54fc <dtoa_prf+0x2a6>
    54f6:	31 11       	cpse	r19, r1
    54f8:	01 c0       	rjmp	.+2      	; 0x54fc <dtoa_prf+0x2a6>
    54fa:	81 e3       	ldi	r24, 0x31	; 49
    54fc:	f6 01       	movw	r30, r12
    54fe:	80 83       	st	Z, r24
    5500:	f7 01       	movw	r30, r14
    5502:	82 2f       	mov	r24, r18
    5504:	90 e2       	ldi	r25, 0x20	; 32
    5506:	88 23       	and	r24, r24
    5508:	19 f0       	breq	.+6      	; 0x5510 <dtoa_prf+0x2ba>
    550a:	91 93       	st	Z+, r25
    550c:	81 50       	subi	r24, 0x01	; 1
    550e:	fb cf       	rjmp	.-10     	; 0x5506 <dtoa_prf+0x2b0>
    5510:	f7 01       	movw	r30, r14
    5512:	e2 0f       	add	r30, r18
    5514:	f1 1d       	adc	r31, r1
    5516:	10 82       	st	Z, r1
    5518:	80 e0       	ldi	r24, 0x00	; 0
    551a:	90 e0       	ldi	r25, 0x00	; 0
    551c:	29 96       	adiw	r28, 0x09	; 9
    551e:	0f b6       	in	r0, 0x3f	; 63
    5520:	f8 94       	cli
    5522:	de bf       	out	0x3e, r29	; 62
    5524:	0f be       	out	0x3f, r0	; 63
    5526:	cd bf       	out	0x3d, r28	; 61
    5528:	df 91       	pop	r29
    552a:	cf 91       	pop	r28
    552c:	1f 91       	pop	r17
    552e:	0f 91       	pop	r16
    5530:	ff 90       	pop	r15
    5532:	ef 90       	pop	r14
    5534:	df 90       	pop	r13
    5536:	cf 90       	pop	r12
    5538:	bf 90       	pop	r11
    553a:	af 90       	pop	r10
    553c:	9f 90       	pop	r9
    553e:	8f 90       	pop	r8
    5540:	08 95       	ret

00005542 <__ftoa_engine>:
    5542:	28 30       	cpi	r18, 0x08	; 8
    5544:	08 f0       	brcs	.+2      	; 0x5548 <__ftoa_engine+0x6>
    5546:	27 e0       	ldi	r18, 0x07	; 7
    5548:	33 27       	eor	r19, r19
    554a:	da 01       	movw	r26, r20
    554c:	99 0f       	add	r25, r25
    554e:	31 1d       	adc	r19, r1
    5550:	87 fd       	sbrc	r24, 7
    5552:	91 60       	ori	r25, 0x01	; 1
    5554:	00 96       	adiw	r24, 0x00	; 0
    5556:	61 05       	cpc	r22, r1
    5558:	71 05       	cpc	r23, r1
    555a:	39 f4       	brne	.+14     	; 0x556a <__ftoa_engine+0x28>
    555c:	32 60       	ori	r19, 0x02	; 2
    555e:	2e 5f       	subi	r18, 0xFE	; 254
    5560:	3d 93       	st	X+, r19
    5562:	30 e3       	ldi	r19, 0x30	; 48
    5564:	2a 95       	dec	r18
    5566:	e1 f7       	brne	.-8      	; 0x5560 <__ftoa_engine+0x1e>
    5568:	08 95       	ret
    556a:	9f 3f       	cpi	r25, 0xFF	; 255
    556c:	30 f0       	brcs	.+12     	; 0x557a <__ftoa_engine+0x38>
    556e:	80 38       	cpi	r24, 0x80	; 128
    5570:	71 05       	cpc	r23, r1
    5572:	61 05       	cpc	r22, r1
    5574:	09 f0       	breq	.+2      	; 0x5578 <__ftoa_engine+0x36>
    5576:	3c 5f       	subi	r19, 0xFC	; 252
    5578:	3c 5f       	subi	r19, 0xFC	; 252
    557a:	3d 93       	st	X+, r19
    557c:	91 30       	cpi	r25, 0x01	; 1
    557e:	08 f0       	brcs	.+2      	; 0x5582 <__ftoa_engine+0x40>
    5580:	80 68       	ori	r24, 0x80	; 128
    5582:	91 1d       	adc	r25, r1
    5584:	df 93       	push	r29
    5586:	cf 93       	push	r28
    5588:	1f 93       	push	r17
    558a:	0f 93       	push	r16
    558c:	ff 92       	push	r15
    558e:	ef 92       	push	r14
    5590:	19 2f       	mov	r17, r25
    5592:	98 7f       	andi	r25, 0xF8	; 248
    5594:	96 95       	lsr	r25
    5596:	e9 2f       	mov	r30, r25
    5598:	96 95       	lsr	r25
    559a:	96 95       	lsr	r25
    559c:	e9 0f       	add	r30, r25
    559e:	ff 27       	eor	r31, r31
    55a0:	e6 52       	subi	r30, 0x26	; 38
    55a2:	fd 4f       	sbci	r31, 0xFD	; 253
    55a4:	99 27       	eor	r25, r25
    55a6:	33 27       	eor	r19, r19
    55a8:	ee 24       	eor	r14, r14
    55aa:	ff 24       	eor	r15, r15
    55ac:	a7 01       	movw	r20, r14
    55ae:	e7 01       	movw	r28, r14
    55b0:	05 90       	lpm	r0, Z+
    55b2:	08 94       	sec
    55b4:	07 94       	ror	r0
    55b6:	28 f4       	brcc	.+10     	; 0x55c2 <__ftoa_engine+0x80>
    55b8:	36 0f       	add	r19, r22
    55ba:	e7 1e       	adc	r14, r23
    55bc:	f8 1e       	adc	r15, r24
    55be:	49 1f       	adc	r20, r25
    55c0:	51 1d       	adc	r21, r1
    55c2:	66 0f       	add	r22, r22
    55c4:	77 1f       	adc	r23, r23
    55c6:	88 1f       	adc	r24, r24
    55c8:	99 1f       	adc	r25, r25
    55ca:	06 94       	lsr	r0
    55cc:	a1 f7       	brne	.-24     	; 0x55b6 <__ftoa_engine+0x74>
    55ce:	05 90       	lpm	r0, Z+
    55d0:	07 94       	ror	r0
    55d2:	28 f4       	brcc	.+10     	; 0x55de <__ftoa_engine+0x9c>
    55d4:	e7 0e       	add	r14, r23
    55d6:	f8 1e       	adc	r15, r24
    55d8:	49 1f       	adc	r20, r25
    55da:	56 1f       	adc	r21, r22
    55dc:	c1 1d       	adc	r28, r1
    55de:	77 0f       	add	r23, r23
    55e0:	88 1f       	adc	r24, r24
    55e2:	99 1f       	adc	r25, r25
    55e4:	66 1f       	adc	r22, r22
    55e6:	06 94       	lsr	r0
    55e8:	a1 f7       	brne	.-24     	; 0x55d2 <__ftoa_engine+0x90>
    55ea:	05 90       	lpm	r0, Z+
    55ec:	07 94       	ror	r0
    55ee:	28 f4       	brcc	.+10     	; 0x55fa <__ftoa_engine+0xb8>
    55f0:	f8 0e       	add	r15, r24
    55f2:	49 1f       	adc	r20, r25
    55f4:	56 1f       	adc	r21, r22
    55f6:	c7 1f       	adc	r28, r23
    55f8:	d1 1d       	adc	r29, r1
    55fa:	88 0f       	add	r24, r24
    55fc:	99 1f       	adc	r25, r25
    55fe:	66 1f       	adc	r22, r22
    5600:	77 1f       	adc	r23, r23
    5602:	06 94       	lsr	r0
    5604:	a1 f7       	brne	.-24     	; 0x55ee <__ftoa_engine+0xac>
    5606:	05 90       	lpm	r0, Z+
    5608:	07 94       	ror	r0
    560a:	20 f4       	brcc	.+8      	; 0x5614 <__ftoa_engine+0xd2>
    560c:	49 0f       	add	r20, r25
    560e:	56 1f       	adc	r21, r22
    5610:	c7 1f       	adc	r28, r23
    5612:	d8 1f       	adc	r29, r24
    5614:	99 0f       	add	r25, r25
    5616:	66 1f       	adc	r22, r22
    5618:	77 1f       	adc	r23, r23
    561a:	88 1f       	adc	r24, r24
    561c:	06 94       	lsr	r0
    561e:	a9 f7       	brne	.-22     	; 0x560a <__ftoa_engine+0xc8>
    5620:	84 91       	lpm	r24, Z
    5622:	10 95       	com	r17
    5624:	17 70       	andi	r17, 0x07	; 7
    5626:	41 f0       	breq	.+16     	; 0x5638 <__ftoa_engine+0xf6>
    5628:	d6 95       	lsr	r29
    562a:	c7 95       	ror	r28
    562c:	57 95       	ror	r21
    562e:	47 95       	ror	r20
    5630:	f7 94       	ror	r15
    5632:	e7 94       	ror	r14
    5634:	1a 95       	dec	r17
    5636:	c1 f7       	brne	.-16     	; 0x5628 <__ftoa_engine+0xe6>
    5638:	e0 e8       	ldi	r30, 0x80	; 128
    563a:	f2 e0       	ldi	r31, 0x02	; 2
    563c:	68 94       	set
    563e:	15 90       	lpm	r1, Z+
    5640:	15 91       	lpm	r17, Z+
    5642:	35 91       	lpm	r19, Z+
    5644:	65 91       	lpm	r22, Z+
    5646:	95 91       	lpm	r25, Z+
    5648:	05 90       	lpm	r0, Z+
    564a:	7f e2       	ldi	r23, 0x2F	; 47
    564c:	73 95       	inc	r23
    564e:	e1 18       	sub	r14, r1
    5650:	f1 0a       	sbc	r15, r17
    5652:	43 0b       	sbc	r20, r19
    5654:	56 0b       	sbc	r21, r22
    5656:	c9 0b       	sbc	r28, r25
    5658:	d0 09       	sbc	r29, r0
    565a:	c0 f7       	brcc	.-16     	; 0x564c <__ftoa_engine+0x10a>
    565c:	e1 0c       	add	r14, r1
    565e:	f1 1e       	adc	r15, r17
    5660:	43 1f       	adc	r20, r19
    5662:	56 1f       	adc	r21, r22
    5664:	c9 1f       	adc	r28, r25
    5666:	d0 1d       	adc	r29, r0
    5668:	7e f4       	brtc	.+30     	; 0x5688 <__ftoa_engine+0x146>
    566a:	70 33       	cpi	r23, 0x30	; 48
    566c:	11 f4       	brne	.+4      	; 0x5672 <__ftoa_engine+0x130>
    566e:	8a 95       	dec	r24
    5670:	e6 cf       	rjmp	.-52     	; 0x563e <__ftoa_engine+0xfc>
    5672:	e8 94       	clt
    5674:	01 50       	subi	r16, 0x01	; 1
    5676:	30 f0       	brcs	.+12     	; 0x5684 <__ftoa_engine+0x142>
    5678:	08 0f       	add	r16, r24
    567a:	0a f4       	brpl	.+2      	; 0x567e <__ftoa_engine+0x13c>
    567c:	00 27       	eor	r16, r16
    567e:	02 17       	cp	r16, r18
    5680:	08 f4       	brcc	.+2      	; 0x5684 <__ftoa_engine+0x142>
    5682:	20 2f       	mov	r18, r16
    5684:	23 95       	inc	r18
    5686:	02 2f       	mov	r16, r18
    5688:	7a 33       	cpi	r23, 0x3A	; 58
    568a:	28 f0       	brcs	.+10     	; 0x5696 <__ftoa_engine+0x154>
    568c:	79 e3       	ldi	r23, 0x39	; 57
    568e:	7d 93       	st	X+, r23
    5690:	2a 95       	dec	r18
    5692:	e9 f7       	brne	.-6      	; 0x568e <__ftoa_engine+0x14c>
    5694:	10 c0       	rjmp	.+32     	; 0x56b6 <__ftoa_engine+0x174>
    5696:	7d 93       	st	X+, r23
    5698:	2a 95       	dec	r18
    569a:	89 f6       	brne	.-94     	; 0x563e <__ftoa_engine+0xfc>
    569c:	06 94       	lsr	r0
    569e:	97 95       	ror	r25
    56a0:	67 95       	ror	r22
    56a2:	37 95       	ror	r19
    56a4:	17 95       	ror	r17
    56a6:	17 94       	ror	r1
    56a8:	e1 18       	sub	r14, r1
    56aa:	f1 0a       	sbc	r15, r17
    56ac:	43 0b       	sbc	r20, r19
    56ae:	56 0b       	sbc	r21, r22
    56b0:	c9 0b       	sbc	r28, r25
    56b2:	d0 09       	sbc	r29, r0
    56b4:	98 f0       	brcs	.+38     	; 0x56dc <__ftoa_engine+0x19a>
    56b6:	23 95       	inc	r18
    56b8:	7e 91       	ld	r23, -X
    56ba:	73 95       	inc	r23
    56bc:	7a 33       	cpi	r23, 0x3A	; 58
    56be:	08 f0       	brcs	.+2      	; 0x56c2 <__ftoa_engine+0x180>
    56c0:	70 e3       	ldi	r23, 0x30	; 48
    56c2:	7c 93       	st	X, r23
    56c4:	20 13       	cpse	r18, r16
    56c6:	b8 f7       	brcc	.-18     	; 0x56b6 <__ftoa_engine+0x174>
    56c8:	7e 91       	ld	r23, -X
    56ca:	70 61       	ori	r23, 0x10	; 16
    56cc:	7d 93       	st	X+, r23
    56ce:	30 f0       	brcs	.+12     	; 0x56dc <__ftoa_engine+0x19a>
    56d0:	83 95       	inc	r24
    56d2:	71 e3       	ldi	r23, 0x31	; 49
    56d4:	7d 93       	st	X+, r23
    56d6:	70 e3       	ldi	r23, 0x30	; 48
    56d8:	2a 95       	dec	r18
    56da:	e1 f7       	brne	.-8      	; 0x56d4 <__ftoa_engine+0x192>
    56dc:	11 24       	eor	r1, r1
    56de:	ef 90       	pop	r14
    56e0:	ff 90       	pop	r15
    56e2:	0f 91       	pop	r16
    56e4:	1f 91       	pop	r17
    56e6:	cf 91       	pop	r28
    56e8:	df 91       	pop	r29
    56ea:	99 27       	eor	r25, r25
    56ec:	87 fd       	sbrc	r24, 7
    56ee:	90 95       	com	r25
    56f0:	08 95       	ret

000056f2 <strnlen_P>:
    56f2:	fc 01       	movw	r30, r24
    56f4:	05 90       	lpm	r0, Z+
    56f6:	61 50       	subi	r22, 0x01	; 1
    56f8:	70 40       	sbci	r23, 0x00	; 0
    56fa:	01 10       	cpse	r0, r1
    56fc:	d8 f7       	brcc	.-10     	; 0x56f4 <strnlen_P+0x2>
    56fe:	80 95       	com	r24
    5700:	90 95       	com	r25
    5702:	8e 0f       	add	r24, r30
    5704:	9f 1f       	adc	r25, r31
    5706:	08 95       	ret

00005708 <strnlen>:
    5708:	fc 01       	movw	r30, r24
    570a:	61 50       	subi	r22, 0x01	; 1
    570c:	70 40       	sbci	r23, 0x00	; 0
    570e:	01 90       	ld	r0, Z+
    5710:	01 10       	cpse	r0, r1
    5712:	d8 f7       	brcc	.-10     	; 0x570a <strnlen+0x2>
    5714:	80 95       	com	r24
    5716:	90 95       	com	r25
    5718:	8e 0f       	add	r24, r30
    571a:	9f 1f       	adc	r25, r31
    571c:	08 95       	ret

0000571e <fputc>:
    571e:	0f 93       	push	r16
    5720:	1f 93       	push	r17
    5722:	cf 93       	push	r28
    5724:	df 93       	push	r29
    5726:	fb 01       	movw	r30, r22
    5728:	23 81       	ldd	r18, Z+3	; 0x03
    572a:	21 fd       	sbrc	r18, 1
    572c:	03 c0       	rjmp	.+6      	; 0x5734 <fputc+0x16>
    572e:	8f ef       	ldi	r24, 0xFF	; 255
    5730:	9f ef       	ldi	r25, 0xFF	; 255
    5732:	2c c0       	rjmp	.+88     	; 0x578c <fputc+0x6e>
    5734:	22 ff       	sbrs	r18, 2
    5736:	16 c0       	rjmp	.+44     	; 0x5764 <fputc+0x46>
    5738:	46 81       	ldd	r20, Z+6	; 0x06
    573a:	57 81       	ldd	r21, Z+7	; 0x07
    573c:	24 81       	ldd	r18, Z+4	; 0x04
    573e:	35 81       	ldd	r19, Z+5	; 0x05
    5740:	42 17       	cp	r20, r18
    5742:	53 07       	cpc	r21, r19
    5744:	44 f4       	brge	.+16     	; 0x5756 <fputc+0x38>
    5746:	a0 81       	ld	r26, Z
    5748:	b1 81       	ldd	r27, Z+1	; 0x01
    574a:	9d 01       	movw	r18, r26
    574c:	2f 5f       	subi	r18, 0xFF	; 255
    574e:	3f 4f       	sbci	r19, 0xFF	; 255
    5750:	31 83       	std	Z+1, r19	; 0x01
    5752:	20 83       	st	Z, r18
    5754:	8c 93       	st	X, r24
    5756:	26 81       	ldd	r18, Z+6	; 0x06
    5758:	37 81       	ldd	r19, Z+7	; 0x07
    575a:	2f 5f       	subi	r18, 0xFF	; 255
    575c:	3f 4f       	sbci	r19, 0xFF	; 255
    575e:	37 83       	std	Z+7, r19	; 0x07
    5760:	26 83       	std	Z+6, r18	; 0x06
    5762:	14 c0       	rjmp	.+40     	; 0x578c <fputc+0x6e>
    5764:	8b 01       	movw	r16, r22
    5766:	ec 01       	movw	r28, r24
    5768:	fb 01       	movw	r30, r22
    576a:	00 84       	ldd	r0, Z+8	; 0x08
    576c:	f1 85       	ldd	r31, Z+9	; 0x09
    576e:	e0 2d       	mov	r30, r0
    5770:	19 95       	eicall
    5772:	89 2b       	or	r24, r25
    5774:	e1 f6       	brne	.-72     	; 0x572e <fputc+0x10>
    5776:	d8 01       	movw	r26, r16
    5778:	16 96       	adiw	r26, 0x06	; 6
    577a:	8d 91       	ld	r24, X+
    577c:	9c 91       	ld	r25, X
    577e:	17 97       	sbiw	r26, 0x07	; 7
    5780:	01 96       	adiw	r24, 0x01	; 1
    5782:	17 96       	adiw	r26, 0x07	; 7
    5784:	9c 93       	st	X, r25
    5786:	8e 93       	st	-X, r24
    5788:	16 97       	sbiw	r26, 0x06	; 6
    578a:	ce 01       	movw	r24, r28
    578c:	df 91       	pop	r29
    578e:	cf 91       	pop	r28
    5790:	1f 91       	pop	r17
    5792:	0f 91       	pop	r16
    5794:	08 95       	ret

00005796 <__ultoa_invert>:
    5796:	fa 01       	movw	r30, r20
    5798:	aa 27       	eor	r26, r26
    579a:	28 30       	cpi	r18, 0x08	; 8
    579c:	51 f1       	breq	.+84     	; 0x57f2 <__ultoa_invert+0x5c>
    579e:	20 31       	cpi	r18, 0x10	; 16
    57a0:	81 f1       	breq	.+96     	; 0x5802 <__ultoa_invert+0x6c>
    57a2:	e8 94       	clt
    57a4:	6f 93       	push	r22
    57a6:	6e 7f       	andi	r22, 0xFE	; 254
    57a8:	6e 5f       	subi	r22, 0xFE	; 254
    57aa:	7f 4f       	sbci	r23, 0xFF	; 255
    57ac:	8f 4f       	sbci	r24, 0xFF	; 255
    57ae:	9f 4f       	sbci	r25, 0xFF	; 255
    57b0:	af 4f       	sbci	r26, 0xFF	; 255
    57b2:	b1 e0       	ldi	r27, 0x01	; 1
    57b4:	3e d0       	rcall	.+124    	; 0x5832 <__ultoa_invert+0x9c>
    57b6:	b4 e0       	ldi	r27, 0x04	; 4
    57b8:	3c d0       	rcall	.+120    	; 0x5832 <__ultoa_invert+0x9c>
    57ba:	67 0f       	add	r22, r23
    57bc:	78 1f       	adc	r23, r24
    57be:	89 1f       	adc	r24, r25
    57c0:	9a 1f       	adc	r25, r26
    57c2:	a1 1d       	adc	r26, r1
    57c4:	68 0f       	add	r22, r24
    57c6:	79 1f       	adc	r23, r25
    57c8:	8a 1f       	adc	r24, r26
    57ca:	91 1d       	adc	r25, r1
    57cc:	a1 1d       	adc	r26, r1
    57ce:	6a 0f       	add	r22, r26
    57d0:	71 1d       	adc	r23, r1
    57d2:	81 1d       	adc	r24, r1
    57d4:	91 1d       	adc	r25, r1
    57d6:	a1 1d       	adc	r26, r1
    57d8:	20 d0       	rcall	.+64     	; 0x581a <__ultoa_invert+0x84>
    57da:	09 f4       	brne	.+2      	; 0x57de <__ultoa_invert+0x48>
    57dc:	68 94       	set
    57de:	3f 91       	pop	r19
    57e0:	2a e0       	ldi	r18, 0x0A	; 10
    57e2:	26 9f       	mul	r18, r22
    57e4:	11 24       	eor	r1, r1
    57e6:	30 19       	sub	r19, r0
    57e8:	30 5d       	subi	r19, 0xD0	; 208
    57ea:	31 93       	st	Z+, r19
    57ec:	de f6       	brtc	.-74     	; 0x57a4 <__ultoa_invert+0xe>
    57ee:	cf 01       	movw	r24, r30
    57f0:	08 95       	ret
    57f2:	46 2f       	mov	r20, r22
    57f4:	47 70       	andi	r20, 0x07	; 7
    57f6:	40 5d       	subi	r20, 0xD0	; 208
    57f8:	41 93       	st	Z+, r20
    57fa:	b3 e0       	ldi	r27, 0x03	; 3
    57fc:	0f d0       	rcall	.+30     	; 0x581c <__ultoa_invert+0x86>
    57fe:	c9 f7       	brne	.-14     	; 0x57f2 <__ultoa_invert+0x5c>
    5800:	f6 cf       	rjmp	.-20     	; 0x57ee <__ultoa_invert+0x58>
    5802:	46 2f       	mov	r20, r22
    5804:	4f 70       	andi	r20, 0x0F	; 15
    5806:	40 5d       	subi	r20, 0xD0	; 208
    5808:	4a 33       	cpi	r20, 0x3A	; 58
    580a:	18 f0       	brcs	.+6      	; 0x5812 <__ultoa_invert+0x7c>
    580c:	49 5d       	subi	r20, 0xD9	; 217
    580e:	31 fd       	sbrc	r19, 1
    5810:	40 52       	subi	r20, 0x20	; 32
    5812:	41 93       	st	Z+, r20
    5814:	02 d0       	rcall	.+4      	; 0x581a <__ultoa_invert+0x84>
    5816:	a9 f7       	brne	.-22     	; 0x5802 <__ultoa_invert+0x6c>
    5818:	ea cf       	rjmp	.-44     	; 0x57ee <__ultoa_invert+0x58>
    581a:	b4 e0       	ldi	r27, 0x04	; 4
    581c:	a6 95       	lsr	r26
    581e:	97 95       	ror	r25
    5820:	87 95       	ror	r24
    5822:	77 95       	ror	r23
    5824:	67 95       	ror	r22
    5826:	ba 95       	dec	r27
    5828:	c9 f7       	brne	.-14     	; 0x581c <__ultoa_invert+0x86>
    582a:	00 97       	sbiw	r24, 0x00	; 0
    582c:	61 05       	cpc	r22, r1
    582e:	71 05       	cpc	r23, r1
    5830:	08 95       	ret
    5832:	9b 01       	movw	r18, r22
    5834:	ac 01       	movw	r20, r24
    5836:	0a 2e       	mov	r0, r26
    5838:	06 94       	lsr	r0
    583a:	57 95       	ror	r21
    583c:	47 95       	ror	r20
    583e:	37 95       	ror	r19
    5840:	27 95       	ror	r18
    5842:	ba 95       	dec	r27
    5844:	c9 f7       	brne	.-14     	; 0x5838 <__ultoa_invert+0xa2>
    5846:	62 0f       	add	r22, r18
    5848:	73 1f       	adc	r23, r19
    584a:	84 1f       	adc	r24, r20
    584c:	95 1f       	adc	r25, r21
    584e:	a0 1d       	adc	r26, r0
    5850:	08 95       	ret

00005852 <_exit>:
    5852:	f8 94       	cli

00005854 <__stop_program>:
    5854:	ff cf       	rjmp	.-2      	; 0x5854 <__stop_program>
