
AMSProject.elf:     file format elf32-avr

Sections:
Idx Name          Size      VMA       LMA       File off  Algn
  0 .data         00000b6e  00800200  0000506e  00005102  2**0
                  CONTENTS, ALLOC, LOAD, DATA
  1 .text         0000506e  00000000  00000000  00000094  2**1
                  CONTENTS, ALLOC, LOAD, READONLY, CODE
  2 .bss          0000048c  00800d6e  00800d6e  00005c70  2**0
                  ALLOC
  3 .comment      0000005c  00000000  00000000  00005c70  2**0
                  CONTENTS, READONLY
  4 .note.gnu.avr.deviceinfo 00000040  00000000  00000000  00005ccc  2**2
                  CONTENTS, READONLY
  5 .debug_aranges 00000360  00000000  00000000  00005d0c  2**0
                  CONTENTS, READONLY, DEBUGGING
  6 .debug_info   00007e5d  00000000  00000000  0000606c  2**0
                  CONTENTS, READONLY, DEBUGGING
  7 .debug_abbrev 00001934  00000000  00000000  0000dec9  2**0
                  CONTENTS, READONLY, DEBUGGING
  8 .debug_line   0000396a  00000000  00000000  0000f7fd  2**0
                  CONTENTS, READONLY, DEBUGGING
  9 .debug_frame  00000fcc  00000000  00000000  00013168  2**2
                  CONTENTS, READONLY, DEBUGGING
 10 .debug_str    000010b0  00000000  00000000  00014134  2**0
                  CONTENTS, READONLY, DEBUGGING
 11 .debug_loc    000089fc  00000000  00000000  000151e4  2**0
                  CONTENTS, READONLY, DEBUGGING
 12 .debug_ranges 00000450  00000000  00000000  0001dbe0  2**0
                  CONTENTS, READONLY, DEBUGGING

Disassembly of section .text:

00000000 <__vectors>:
       0:	87 c1       	rjmp	.+782    	; 0x310 <__ctors_end>
       2:	00 00       	nop
       4:	a6 c1       	rjmp	.+844    	; 0x352 <__bad_interrupt>
       6:	00 00       	nop
       8:	a4 c1       	rjmp	.+840    	; 0x352 <__bad_interrupt>
       a:	00 00       	nop
       c:	a2 c1       	rjmp	.+836    	; 0x352 <__bad_interrupt>
       e:	00 00       	nop
      10:	a0 c1       	rjmp	.+832    	; 0x352 <__bad_interrupt>
      12:	00 00       	nop
      14:	9e c1       	rjmp	.+828    	; 0x352 <__bad_interrupt>
      16:	00 00       	nop
      18:	9c c1       	rjmp	.+824    	; 0x352 <__bad_interrupt>
      1a:	00 00       	nop
      1c:	9a c1       	rjmp	.+820    	; 0x352 <__bad_interrupt>
      1e:	00 00       	nop
      20:	98 c1       	rjmp	.+816    	; 0x352 <__bad_interrupt>
      22:	00 00       	nop
      24:	96 c1       	rjmp	.+812    	; 0x352 <__bad_interrupt>
      26:	00 00       	nop
      28:	94 c1       	rjmp	.+808    	; 0x352 <__bad_interrupt>
      2a:	00 00       	nop
      2c:	92 c1       	rjmp	.+804    	; 0x352 <__bad_interrupt>
      2e:	00 00       	nop
      30:	90 c1       	rjmp	.+800    	; 0x352 <__bad_interrupt>
      32:	00 00       	nop
      34:	8e c1       	rjmp	.+796    	; 0x352 <__bad_interrupt>
      36:	00 00       	nop
      38:	8c c1       	rjmp	.+792    	; 0x352 <__bad_interrupt>
      3a:	00 00       	nop
      3c:	8a c1       	rjmp	.+788    	; 0x352 <__bad_interrupt>
      3e:	00 00       	nop
      40:	88 c1       	rjmp	.+784    	; 0x352 <__bad_interrupt>
      42:	00 00       	nop
      44:	86 c1       	rjmp	.+780    	; 0x352 <__bad_interrupt>
      46:	00 00       	nop
      48:	84 c1       	rjmp	.+776    	; 0x352 <__bad_interrupt>
      4a:	00 00       	nop
      4c:	82 c1       	rjmp	.+772    	; 0x352 <__bad_interrupt>
      4e:	00 00       	nop
      50:	80 c1       	rjmp	.+768    	; 0x352 <__bad_interrupt>
      52:	00 00       	nop
      54:	7e c1       	rjmp	.+764    	; 0x352 <__bad_interrupt>
      56:	00 00       	nop
      58:	7c c1       	rjmp	.+760    	; 0x352 <__bad_interrupt>
      5a:	00 00       	nop
      5c:	7a c1       	rjmp	.+756    	; 0x352 <__bad_interrupt>
      5e:	00 00       	nop
      60:	78 c1       	rjmp	.+752    	; 0x352 <__bad_interrupt>
      62:	00 00       	nop
      64:	76 c1       	rjmp	.+748    	; 0x352 <__bad_interrupt>
      66:	00 00       	nop
      68:	74 c1       	rjmp	.+744    	; 0x352 <__bad_interrupt>
      6a:	00 00       	nop
      6c:	72 c1       	rjmp	.+740    	; 0x352 <__bad_interrupt>
      6e:	00 00       	nop
      70:	70 c1       	rjmp	.+736    	; 0x352 <__bad_interrupt>
      72:	00 00       	nop
      74:	6e c1       	rjmp	.+732    	; 0x352 <__bad_interrupt>
      76:	00 00       	nop
      78:	6c c1       	rjmp	.+728    	; 0x352 <__bad_interrupt>
      7a:	00 00       	nop
      7c:	6a c1       	rjmp	.+724    	; 0x352 <__bad_interrupt>
      7e:	00 00       	nop
      80:	68 c1       	rjmp	.+720    	; 0x352 <__bad_interrupt>
      82:	00 00       	nop
      84:	66 c1       	rjmp	.+716    	; 0x352 <__bad_interrupt>
      86:	00 00       	nop
      88:	64 c1       	rjmp	.+712    	; 0x352 <__bad_interrupt>
      8a:	00 00       	nop
      8c:	62 c1       	rjmp	.+708    	; 0x352 <__bad_interrupt>
      8e:	00 00       	nop
      90:	60 c1       	rjmp	.+704    	; 0x352 <__bad_interrupt>
      92:	00 00       	nop
      94:	5e c1       	rjmp	.+700    	; 0x352 <__bad_interrupt>
      96:	00 00       	nop
      98:	5c c1       	rjmp	.+696    	; 0x352 <__bad_interrupt>
      9a:	00 00       	nop
      9c:	5a c1       	rjmp	.+692    	; 0x352 <__bad_interrupt>
      9e:	00 00       	nop
      a0:	58 c1       	rjmp	.+688    	; 0x352 <__bad_interrupt>
      a2:	00 00       	nop
      a4:	56 c1       	rjmp	.+684    	; 0x352 <__bad_interrupt>
      a6:	00 00       	nop
      a8:	54 c1       	rjmp	.+680    	; 0x352 <__bad_interrupt>
      aa:	00 00       	nop
      ac:	52 c1       	rjmp	.+676    	; 0x352 <__bad_interrupt>
      ae:	00 00       	nop
      b0:	50 c1       	rjmp	.+672    	; 0x352 <__bad_interrupt>
      b2:	00 00       	nop
      b4:	4e c1       	rjmp	.+668    	; 0x352 <__bad_interrupt>
      b6:	00 00       	nop
      b8:	4c c1       	rjmp	.+664    	; 0x352 <__bad_interrupt>
      ba:	00 00       	nop
      bc:	4a c1       	rjmp	.+660    	; 0x352 <__bad_interrupt>
      be:	00 00       	nop
      c0:	48 c1       	rjmp	.+656    	; 0x352 <__bad_interrupt>
      c2:	00 00       	nop
      c4:	46 c1       	rjmp	.+652    	; 0x352 <__bad_interrupt>
      c6:	00 00       	nop
      c8:	44 c1       	rjmp	.+648    	; 0x352 <__bad_interrupt>
      ca:	00 00       	nop
      cc:	42 c1       	rjmp	.+644    	; 0x352 <__bad_interrupt>
      ce:	00 00       	nop
      d0:	40 c1       	rjmp	.+640    	; 0x352 <__bad_interrupt>
      d2:	00 00       	nop
      d4:	3e c1       	rjmp	.+636    	; 0x352 <__bad_interrupt>
      d6:	00 00       	nop
      d8:	3c c1       	rjmp	.+632    	; 0x352 <__bad_interrupt>
      da:	00 00       	nop
      dc:	3a c1       	rjmp	.+628    	; 0x352 <__bad_interrupt>
      de:	00 00       	nop
      e0:	38 c1       	rjmp	.+624    	; 0x352 <__bad_interrupt>
      e2:	00 00       	nop
      e4:	f8 17       	cp	r31, r24
      e6:	a7 19       	sub	r26, r7
      e8:	15 18       	sub	r1, r5
      ea:	32 18       	sub	r3, r2
      ec:	4f 18       	sub	r4, r15
      ee:	6c 18       	sub	r6, r12
      f0:	87 18       	sub	r8, r7
      f2:	a4 18       	sub	r10, r4
      f4:	c1 18       	sub	r12, r1
      f6:	de 18       	sub	r13, r14
      f8:	fb 18       	sub	r15, r11
      fa:	18 19       	sub	r17, r8
      fc:	35 19       	sub	r19, r5
      fe:	52 19       	sub	r21, r2
     100:	6f 19       	sub	r22, r15
     102:	8a 19       	sub	r24, r10
     104:	d9 19       	sub	r29, r9
     106:	59 1a       	sub	r5, r25
     108:	e0 19       	sub	r30, r0
     10a:	e8 19       	sub	r30, r8
     10c:	f1 19       	sub	r31, r1
     10e:	f9 19       	sub	r31, r9
     110:	01 1a       	sub	r0, r17
     112:	09 1a       	sub	r0, r25
     114:	12 1a       	sub	r1, r18
     116:	1a 1a       	sub	r1, r26
     118:	22 1a       	sub	r2, r18
     11a:	2a 1a       	sub	r2, r26
     11c:	33 1a       	sub	r3, r19
     11e:	3d 1a       	sub	r3, r29
     120:	45 1a       	sub	r4, r21
     122:	4f 1a       	sub	r4, r31
     124:	6d 1a       	sub	r6, r29
     126:	ed 1a       	sub	r14, r29
     128:	74 1a       	sub	r7, r20
     12a:	7c 1a       	sub	r7, r28
     12c:	85 1a       	sub	r8, r21
     12e:	8d 1a       	sub	r8, r29
     130:	95 1a       	sub	r9, r21
     132:	9d 1a       	sub	r9, r29
     134:	a6 1a       	sub	r10, r22
     136:	ae 1a       	sub	r10, r30
     138:	b6 1a       	sub	r11, r22
     13a:	be 1a       	sub	r11, r30
     13c:	c7 1a       	sub	r12, r23
     13e:	d1 1a       	sub	r13, r17
     140:	d9 1a       	sub	r13, r25
     142:	e3 1a       	sub	r14, r19
     144:	6d 1c       	adc	r6, r13
     146:	74 1c       	adc	r7, r4
     148:	7b 1c       	adc	r7, r11
     14a:	82 1c       	adc	r8, r2
     14c:	89 1c       	adc	r8, r9
     14e:	90 1c       	adc	r9, r0
     150:	97 1c       	adc	r9, r7
     152:	9e 1c       	adc	r9, r14
     154:	a5 1c       	adc	r10, r5
     156:	ac 1c       	adc	r10, r12
     158:	c8 1c       	adc	r12, r8
     15a:	d0 1c       	adc	r13, r0
     15c:	d8 1c       	adc	r13, r8
     15e:	e0 1c       	adc	r14, r0
     160:	e8 1c       	adc	r14, r8
     162:	f0 1c       	adc	r15, r0
     164:	f8 1c       	adc	r15, r8
     166:	00 1d       	adc	r16, r0
     168:	08 1d       	adc	r16, r8
     16a:	10 1d       	adc	r17, r0
     16c:	26 1d       	adc	r18, r6
     16e:	2e 1d       	adc	r18, r14
     170:	36 1d       	adc	r19, r6
     172:	3e 1d       	adc	r19, r14
     174:	46 1d       	adc	r20, r6
     176:	4e 1d       	adc	r20, r14
     178:	56 1d       	adc	r21, r6
     17a:	5e 1d       	adc	r21, r14
     17c:	66 1d       	adc	r22, r6
     17e:	6e 1d       	adc	r22, r14
     180:	84 1d       	adc	r24, r4
     182:	8e 1d       	adc	r24, r14
     184:	98 1d       	adc	r25, r8
     186:	a2 1d       	adc	r26, r2
     188:	ac 1d       	adc	r26, r12
     18a:	b6 1d       	adc	r27, r6
     18c:	c0 1d       	adc	r28, r0
     18e:	ca 1d       	adc	r28, r10
     190:	d4 1d       	adc	r29, r4
     192:	de 1d       	adc	r29, r14
     194:	07 63       	ori	r16, 0x37	; 55
     196:	42 36       	cpi	r20, 0x62	; 98
     198:	b7 9b       	sbis	0x16, 7	; 22
     19a:	d8 a7       	std	Y+40, r29	; 0x28
     19c:	1a 39       	cpi	r17, 0x9A	; 154
     19e:	68 56       	subi	r22, 0x68	; 104
     1a0:	18 ae       	std	Y+56, r1	; 0x38
     1a2:	ba ab       	std	Y+50, r27	; 0x32
     1a4:	55 8c       	ldd	r5, Z+29	; 0x1d
     1a6:	1d 3c       	cpi	r17, 0xCD	; 205
     1a8:	b7 cc       	rjmp	.-1682   	; 0xfffffb18 <__eeprom_end+0xff7efb18>
     1aa:	57 63       	ori	r21, 0x37	; 55
     1ac:	bd 6d       	ori	r27, 0xDD	; 221
     1ae:	ed fd       	.word	0xfded	; ????
     1b0:	75 3e       	cpi	r23, 0xE5	; 229
     1b2:	f6 17       	cp	r31, r22
     1b4:	72 31       	cpi	r23, 0x12	; 18
     1b6:	bf 00       	.word	0x00bf	; ????
     1b8:	00 00       	nop
     1ba:	80 3f       	cpi	r24, 0xF0	; 240
     1bc:	08 00       	.word	0x0008	; ????
     1be:	00 00       	nop
     1c0:	be 92       	st	-X, r11
     1c2:	24 49       	sbci	r18, 0x94	; 148
     1c4:	12 3e       	cpi	r17, 0xE2	; 226
     1c6:	ab aa       	std	Y+51, r10	; 0x33
     1c8:	aa 2a       	or	r10, r26
     1ca:	be cd       	rjmp	.-1156   	; 0xfffffd48 <__eeprom_end+0xff7efd48>
     1cc:	cc cc       	rjmp	.-1640   	; 0xfffffb66 <__eeprom_end+0xff7efb66>
     1ce:	4c 3e       	cpi	r20, 0xEC	; 236
     1d0:	00 00       	nop
     1d2:	00 80       	ld	r0, Z
     1d4:	be ab       	std	Y+54, r27	; 0x36
     1d6:	aa aa       	std	Y+50, r10	; 0x32
     1d8:	aa 3e       	cpi	r26, 0xEA	; 234
     1da:	00 00       	nop
     1dc:	00 00       	nop
     1de:	bf 00       	.word	0x00bf	; ????
     1e0:	00 00       	nop
     1e2:	80 3f       	cpi	r24, 0xF0	; 240
     1e4:	00 00       	nop
     1e6:	00 00       	nop
     1e8:	00 08       	sbc	r0, r0
     1ea:	41 78       	andi	r20, 0x81	; 129
     1ec:	d3 bb       	out	0x13, r29	; 19
     1ee:	43 87       	std	Z+11, r20	; 0x0b
     1f0:	d1 13       	cpse	r29, r17
     1f2:	3d 19       	sub	r19, r13
     1f4:	0e 3c       	cpi	r16, 0xCE	; 206
     1f6:	c3 bd       	out	0x23, r28	; 35
     1f8:	42 82       	std	Z+2, r4	; 0x02
     1fa:	ad 2b       	or	r26, r29
     1fc:	3e 68       	ori	r19, 0x8E	; 142
     1fe:	ec 82       	std	Y+4, r14	; 0x04
     200:	76 be       	out	0x36, r7	; 54
     202:	d9 8f       	std	Y+25, r29	; 0x19
     204:	e1 a9       	ldd	r30, Z+49	; 0x31
     206:	3e 4c       	sbci	r19, 0xCE	; 206
     208:	80 ef       	ldi	r24, 0xF0	; 240
     20a:	ff be       	out	0x3f, r15	; 63
     20c:	01 c4       	rjmp	.+2050   	; 0xa10 <sync_fs+0xc2>
     20e:	ff 7f       	andi	r31, 0xFF	; 255
     210:	3f 00       	.word	0x003f	; ????
     212:	00 00       	nop
	...

00000216 <__trampolines_end>:
     216:	00 40       	sbci	r16, 0x00	; 0
     218:	7a 10       	cpse	r7, r10
     21a:	f3 5a       	subi	r31, 0xA3	; 163
     21c:	00 a0       	ldd	r0, Z+32	; 0x20
     21e:	72 4e       	sbci	r23, 0xE2	; 226
     220:	18 09       	sbc	r17, r8
     222:	00 10       	cpse	r0, r0
     224:	a5 d4       	rcall	.+2378   	; 0xb70 <put_fat+0x146>
     226:	e8 00       	.word	0x00e8	; ????
     228:	00 e8       	ldi	r16, 0x80	; 128
     22a:	76 48       	sbci	r23, 0x86	; 134
     22c:	17 00       	.word	0x0017	; ????
     22e:	00 e4       	ldi	r16, 0x40	; 64
     230:	0b 54       	subi	r16, 0x4B	; 75
     232:	02 00       	.word	0x0002	; ????
     234:	00 ca       	rjmp	.-3072   	; 0xfffff636 <__eeprom_end+0xff7ef636>
     236:	9a 3b       	cpi	r25, 0xBA	; 186
     238:	00 00       	nop
     23a:	00 e1       	ldi	r16, 0x10	; 16
     23c:	f5 05       	cpc	r31, r5
     23e:	00 00       	nop
     240:	80 96       	adiw	r24, 0x20	; 32
     242:	98 00       	.word	0x0098	; ????
     244:	00 00       	nop
     246:	40 42       	sbci	r20, 0x20	; 32
     248:	0f 00       	.word	0x000f	; ????
     24a:	00 00       	nop
     24c:	a0 86       	std	Z+8, r10	; 0x08
     24e:	01 00       	.word	0x0001	; ????
     250:	00 00       	nop
     252:	10 27       	eor	r17, r16
     254:	00 00       	nop
     256:	00 00       	nop
     258:	e8 03       	fmulsu	r22, r16
     25a:	00 00       	nop
     25c:	00 00       	nop
     25e:	64 00       	.word	0x0064	; ????
     260:	00 00       	nop
     262:	00 00       	nop
     264:	0a 00       	.word	0x000a	; ????
     266:	00 00       	nop
     268:	00 00       	nop
     26a:	01 00       	.word	0x0001	; ????
     26c:	00 00       	nop
     26e:	00 00       	nop
     270:	2c 76       	andi	r18, 0x6C	; 108
     272:	d8 88       	ldd	r13, Y+16	; 0x10
     274:	dc 67       	ori	r29, 0x7C	; 124
     276:	4f 08       	sbc	r4, r15
     278:	23 df       	rcall	.-442    	; 0xc0 <__SREG__+0x81>
     27a:	c1 df       	rcall	.-126    	; 0x1fe <__SREG__+0x1bf>
     27c:	ae 59       	subi	r26, 0x9E	; 158
     27e:	e1 b1       	in	r30, 0x01	; 1
     280:	b7 96       	adiw	r30, 0x27	; 39
     282:	e5 e3       	ldi	r30, 0x35	; 53
     284:	e4 53       	subi	r30, 0x34	; 52
     286:	c6 3a       	cpi	r28, 0xA6	; 166
     288:	e6 51       	subi	r30, 0x16	; 22
     28a:	99 76       	andi	r25, 0x69	; 105
     28c:	96 e8       	ldi	r25, 0x86	; 134
     28e:	e6 c2       	rjmp	.+1484   	; 0x85c <move_window+0x46>
     290:	84 26       	eor	r8, r20
     292:	eb 89       	ldd	r30, Y+19	; 0x13
     294:	8c 9b       	sbis	0x11, 4	; 17
     296:	62 ed       	ldi	r22, 0xD2	; 210
     298:	40 7c       	andi	r20, 0xC0	; 192
     29a:	6f fc       	.word	0xfc6f	; ????
     29c:	ef bc       	out	0x2f, r14	; 47
     29e:	9c 9f       	mul	r25, r28
     2a0:	40 f2       	brcs	.-112    	; 0x232 <__trampolines_end+0x1c>
     2a2:	ba a5       	ldd	r27, Y+42	; 0x2a
     2a4:	6f a5       	ldd	r22, Y+47	; 0x2f
     2a6:	f4 90       	lpm	r15, Z
     2a8:	05 5a       	subi	r16, 0xA5	; 165
     2aa:	2a f7       	brpl	.-54     	; 0x276 <__trampolines_end+0x60>
     2ac:	5c 93       	st	X, r21
     2ae:	6b 6c       	ori	r22, 0xCB	; 203
     2b0:	f9 67       	ori	r31, 0x79	; 121
     2b2:	6d c1       	rjmp	.+730    	; 0x58e <disk_write+0x10>
     2b4:	1b fc       	.word	0xfc1b	; ????
     2b6:	e0 e4       	ldi	r30, 0x40	; 64
     2b8:	0d 47       	sbci	r16, 0x7D	; 125
     2ba:	fe f5       	brtc	.+126    	; 0x33a <__do_clear_bss>
     2bc:	20 e6       	ldi	r18, 0x60	; 96
     2be:	b5 00       	.word	0x00b5	; ????
     2c0:	d0 ed       	ldi	r29, 0xD0	; 208
     2c2:	90 2e       	mov	r9, r16
     2c4:	03 00       	.word	0x0003	; ????
     2c6:	94 35       	cpi	r25, 0x54	; 84
     2c8:	77 05       	cpc	r23, r7
     2ca:	00 80       	ld	r0, Z
     2cc:	84 1e       	adc	r8, r20
     2ce:	08 00       	.word	0x0008	; ????
     2d0:	00 20       	and	r0, r0
     2d2:	4e 0a       	sbc	r4, r30
     2d4:	00 00       	nop
     2d6:	00 c8       	rjmp	.-4096   	; 0xfffff2d8 <__eeprom_end+0xff7ef2d8>
     2d8:	0c 33       	cpi	r16, 0x3C	; 60
     2da:	33 33       	cpi	r19, 0x33	; 51
     2dc:	33 0f       	add	r19, r19
     2de:	98 6e       	ori	r25, 0xE8	; 232
     2e0:	12 83       	std	Z+2, r17	; 0x02
     2e2:	11 41       	sbci	r17, 0x11	; 17
     2e4:	ef 8d       	ldd	r30, Y+31	; 0x1f
     2e6:	21 14       	cp	r2, r1
     2e8:	89 3b       	cpi	r24, 0xB9	; 185
     2ea:	e6 55       	subi	r30, 0x56	; 86
     2ec:	16 cf       	rjmp	.-468    	; 0x11a <__SREG__+0xdb>
     2ee:	fe e6       	ldi	r31, 0x6E	; 110
     2f0:	db 18       	sub	r13, r11
     2f2:	d1 84       	ldd	r13, Z+9	; 0x09
     2f4:	4b 38       	cpi	r20, 0x8B	; 139
     2f6:	1b f7       	brvc	.-58     	; 0x2be <__trampolines_end+0xa8>
     2f8:	7c 1d       	adc	r23, r12
     2fa:	90 1d       	adc	r25, r0
     2fc:	a4 bb       	out	0x14, r26	; 20
     2fe:	e4 24       	eor	r14, r4
     300:	20 32       	cpi	r18, 0x20	; 32
     302:	84 72       	andi	r24, 0x24	; 36
     304:	5e 22       	and	r5, r30
     306:	81 00       	.word	0x0081	; ????
     308:	c9 f1       	breq	.+114    	; 0x37c <BacLevel+0x12>
     30a:	24 ec       	ldi	r18, 0xC4	; 196
     30c:	a1 e5       	ldi	r26, 0x51	; 81
     30e:	3d 27       	eor	r19, r29

00000310 <__ctors_end>:
     310:	11 24       	eor	r1, r1
     312:	1f be       	out	0x3f, r1	; 63
     314:	cf ef       	ldi	r28, 0xFF	; 255
     316:	d1 e2       	ldi	r29, 0x21	; 33
     318:	de bf       	out	0x3e, r29	; 62
     31a:	cd bf       	out	0x3d, r28	; 61
     31c:	00 e0       	ldi	r16, 0x00	; 0
     31e:	0c bf       	out	0x3c, r16	; 60

00000320 <__do_copy_data>:
     320:	1d e0       	ldi	r17, 0x0D	; 13
     322:	a0 e0       	ldi	r26, 0x00	; 0
     324:	b2 e0       	ldi	r27, 0x02	; 2
     326:	ee e6       	ldi	r30, 0x6E	; 110
     328:	f0 e5       	ldi	r31, 0x50	; 80
     32a:	00 e0       	ldi	r16, 0x00	; 0
     32c:	0b bf       	out	0x3b, r16	; 59
     32e:	02 c0       	rjmp	.+4      	; 0x334 <__do_copy_data+0x14>
     330:	07 90       	elpm	r0, Z+
     332:	0d 92       	st	X+, r0
     334:	ae 36       	cpi	r26, 0x6E	; 110
     336:	b1 07       	cpc	r27, r17
     338:	d9 f7       	brne	.-10     	; 0x330 <__do_copy_data+0x10>

0000033a <__do_clear_bss>:
     33a:	21 e1       	ldi	r18, 0x11	; 17
     33c:	ae e6       	ldi	r26, 0x6E	; 110
     33e:	bd e0       	ldi	r27, 0x0D	; 13
     340:	01 c0       	rjmp	.+2      	; 0x344 <.do_clear_bss_start>

00000342 <.do_clear_bss_loop>:
     342:	1d 92       	st	X+, r1

00000344 <.do_clear_bss_start>:
     344:	aa 3f       	cpi	r26, 0xFA	; 250
     346:	b2 07       	cpc	r27, r18
     348:	e1 f7       	brne	.-8      	; 0x342 <.do_clear_bss_loop>
     34a:	0e 94 13 1e 	call	0x3c26	; 0x3c26 <main>
     34e:	0c 94 35 28 	jmp	0x506a	; 0x506a <_exit>

00000352 <__bad_interrupt>:
     352:	56 ce       	rjmp	.-852    	; 0x0 <__vectors>

00000354 <ADC_Init>:
{
	sensorValue = ADCW;
	sensor_volt = (float)sensorValue/adcResolution*voltageRef; //Voltage range = 3.3V da det er fra vores controller board, Resolution = 1023
	rs_gas = ((5.0*R2)/sensor_volt) - R2; //5V da det er på sensor boardet
	R0 = rs_gas / 60;
}
     354:	87 e4       	ldi	r24, 0x47	; 71
     356:	80 93 7c 00 	sts	0x007C, r24	; 0x80007c <__TEXT_REGION_LENGTH__+0x7c007c>
     35a:	87 ee       	ldi	r24, 0xE7	; 231
     35c:	80 93 7a 00 	sts	0x007A, r24	; 0x80007a <__TEXT_REGION_LENGTH__+0x7c007a>
     360:	10 92 7b 00 	sts	0x007B, r1	; 0x80007b <__TEXT_REGION_LENGTH__+0x7c007b>
     364:	08 95       	ret

00000366 <breathalyzerInit>:
     366:	f6 cf       	rjmp	.-20     	; 0x354 <ADC_Init>
     368:	08 95       	ret

0000036a <BacLevel>:

float BacLevel(){
     36a:	cf 92       	push	r12
     36c:	df 92       	push	r13
     36e:	ef 92       	push	r14
     370:	ff 92       	push	r15
     372:	0f 93       	push	r16
     374:	1f 93       	push	r17
     376:	cf 93       	push	r28
     378:	df 93       	push	r29
     37a:	cd b7       	in	r28, 0x3d	; 61
     37c:	de b7       	in	r29, 0x3e	; 62
     37e:	c6 54       	subi	r28, 0x46	; 70
     380:	d1 09       	sbc	r29, r1
     382:	0f b6       	in	r0, 0x3f	; 63
     384:	f8 94       	cli
     386:	de bf       	out	0x3e, r29	; 62
     388:	0f be       	out	0x3f, r0	; 63
     38a:	cd bf       	out	0x3d, r28	; 61
	// Get ADC Value
	sensorValue = ADCW;
     38c:	60 91 78 00 	lds	r22, 0x0078	; 0x800078 <__TEXT_REGION_LENGTH__+0x7c0078>
     390:	70 91 79 00 	lds	r23, 0x0079	; 0x800079 <__TEXT_REGION_LENGTH__+0x7c0079>
     394:	80 e0       	ldi	r24, 0x00	; 0
     396:	90 e0       	ldi	r25, 0x00	; 0
     398:	0e 94 4d 20 	call	0x409a	; 0x409a <__floatunsisf>
     39c:	6b 01       	movw	r12, r22
     39e:	7c 01       	movw	r14, r24
     3a0:	60 93 87 0d 	sts	0x0D87, r22	; 0x800d87 <sensorValue>
     3a4:	70 93 88 0d 	sts	0x0D88, r23	; 0x800d88 <sensorValue+0x1>
     3a8:	80 93 89 0d 	sts	0x0D89, r24	; 0x800d89 <sensorValue+0x2>
     3ac:	90 93 8a 0d 	sts	0x0D8A, r25	; 0x800d8a <sensorValue+0x3>
		
	// Recalculate into BAC
	sensor_volt = (float)sensorValue/adcResolution*voltageRef; //Voltage range = 3.3V da det er fra vores controller board, Resolution = 1023
     3b0:	60 91 04 02 	lds	r22, 0x0204	; 0x800204 <adcResolution>
     3b4:	70 91 05 02 	lds	r23, 0x0205	; 0x800205 <adcResolution+0x1>
     3b8:	07 2e       	mov	r0, r23
     3ba:	00 0c       	add	r0, r0
     3bc:	88 0b       	sbc	r24, r24
     3be:	99 0b       	sbc	r25, r25
     3c0:	0e 94 4f 20 	call	0x409e	; 0x409e <__floatsisf>
     3c4:	9b 01       	movw	r18, r22
     3c6:	ac 01       	movw	r20, r24
     3c8:	c7 01       	movw	r24, r14
     3ca:	b6 01       	movw	r22, r12
     3cc:	0e 94 b9 1f 	call	0x3f72	; 0x3f72 <__divsf3>
     3d0:	20 91 00 02 	lds	r18, 0x0200	; 0x800200 <__DATA_REGION_ORIGIN__>
     3d4:	30 91 01 02 	lds	r19, 0x0201	; 0x800201 <__DATA_REGION_ORIGIN__+0x1>
     3d8:	40 91 02 02 	lds	r20, 0x0202	; 0x800202 <__DATA_REGION_ORIGIN__+0x2>
     3dc:	50 91 03 02 	lds	r21, 0x0203	; 0x800203 <__DATA_REGION_ORIGIN__+0x3>
     3e0:	0e 94 db 20 	call	0x41b6	; 0x41b6 <__mulsf3>
     3e4:	60 93 8f 0d 	sts	0x0D8F, r22	; 0x800d8f <sensor_volt>
     3e8:	70 93 90 0d 	sts	0x0D90, r23	; 0x800d90 <sensor_volt+0x1>
     3ec:	80 93 91 0d 	sts	0x0D91, r24	; 0x800d91 <sensor_volt+0x2>
     3f0:	90 93 92 0d 	sts	0x0D92, r25	; 0x800d92 <sensor_volt+0x3>
	
	// === FOR DEBUGGING === //
	char debugMsg[50];
	char debugString[20];
	
	dtostrf(sensor_volt, 3, 3, debugString);
     3f4:	7e 01       	movw	r14, r28
     3f6:	23 e3       	ldi	r18, 0x33	; 51
     3f8:	e2 0e       	add	r14, r18
     3fa:	f1 1c       	adc	r15, r1
     3fc:	87 01       	movw	r16, r14
     3fe:	23 e0       	ldi	r18, 0x03	; 3
     400:	43 e0       	ldi	r20, 0x03	; 3
     402:	0e 94 e6 22 	call	0x45cc	; 0x45cc <dtostrf>
	sprintf(debugMsg, "Sensor Volt is %6s\r\n", debugString);
     406:	ff 92       	push	r15
     408:	ef 92       	push	r14
     40a:	80 e1       	ldi	r24, 0x10	; 16
     40c:	92 e0       	ldi	r25, 0x02	; 2
     40e:	9f 93       	push	r25
     410:	8f 93       	push	r24
     412:	02 53       	subi	r16, 0x32	; 50
     414:	11 09       	sbc	r17, r1
     416:	1f 93       	push	r17
     418:	0f 93       	push	r16
     41a:	0e 94 0c 23 	call	0x4618	; 0x4618 <sprintf>
	SendString(UART0, debugMsg);
     41e:	b8 01       	movw	r22, r16
     420:	80 ec       	ldi	r24, 0xC0	; 192
     422:	90 e0       	ldi	r25, 0x00	; 0
     424:	0e 94 2a 17 	call	0x2e54	; 0x2e54 <SendString>
	// ===================== //
	
	rs_gas = ((5.0*R2)/sensor_volt) - R2; //5V da det er på sensor boardet
     428:	c0 90 06 02 	lds	r12, 0x0206	; 0x800206 <R2>
     42c:	d0 90 07 02 	lds	r13, 0x0207	; 0x800207 <R2+0x1>
     430:	e0 90 08 02 	lds	r14, 0x0208	; 0x800208 <R2+0x2>
     434:	f0 90 09 02 	lds	r15, 0x0209	; 0x800209 <R2+0x3>
     438:	20 e0       	ldi	r18, 0x00	; 0
     43a:	30 e0       	ldi	r19, 0x00	; 0
     43c:	40 ea       	ldi	r20, 0xA0	; 160
     43e:	50 e4       	ldi	r21, 0x40	; 64
     440:	c7 01       	movw	r24, r14
     442:	b6 01       	movw	r22, r12
     444:	0e 94 db 20 	call	0x41b6	; 0x41b6 <__mulsf3>
     448:	20 91 8f 0d 	lds	r18, 0x0D8F	; 0x800d8f <sensor_volt>
     44c:	30 91 90 0d 	lds	r19, 0x0D90	; 0x800d90 <sensor_volt+0x1>
     450:	40 91 91 0d 	lds	r20, 0x0D91	; 0x800d91 <sensor_volt+0x2>
     454:	50 91 92 0d 	lds	r21, 0x0D92	; 0x800d92 <sensor_volt+0x3>
     458:	0e 94 b9 1f 	call	0x3f72	; 0x3f72 <__divsf3>
     45c:	a7 01       	movw	r20, r14
     45e:	96 01       	movw	r18, r12
     460:	0e 94 54 1f 	call	0x3ea8	; 0x3ea8 <__subsf3>
     464:	60 93 8b 0d 	sts	0x0D8B, r22	; 0x800d8b <rs_gas>
     468:	70 93 8c 0d 	sts	0x0D8C, r23	; 0x800d8c <rs_gas+0x1>
     46c:	80 93 8d 0d 	sts	0x0D8D, r24	; 0x800d8d <rs_gas+0x2>
     470:	90 93 8e 0d 	sts	0x0D8E, r25	; 0x800d8e <rs_gas+0x3>
	ratio = rs_gas/R0;
     474:	20 91 0a 02 	lds	r18, 0x020A	; 0x80020a <R0>
     478:	30 91 0b 02 	lds	r19, 0x020B	; 0x80020b <R0+0x1>
     47c:	40 91 0c 02 	lds	r20, 0x020C	; 0x80020c <R0+0x2>
     480:	50 91 0d 02 	lds	r21, 0x020D	; 0x80020d <R0+0x3>
     484:	0e 94 b9 1f 	call	0x3f72	; 0x3f72 <__divsf3>
     488:	60 93 83 0d 	sts	0x0D83, r22	; 0x800d83 <ratio>
     48c:	70 93 84 0d 	sts	0x0D84, r23	; 0x800d84 <ratio+0x1>
     490:	80 93 85 0d 	sts	0x0D85, r24	; 0x800d85 <ratio+0x2>
     494:	90 93 86 0d 	sts	0x0D86, r25	; 0x800d86 <ratio+0x3>
	double x = 0.4*ratio;
	BAC = pow(x,-1.431); // g/ml
     498:	2d ec       	ldi	r18, 0xCD	; 205
     49a:	3c ec       	ldi	r19, 0xCC	; 204
     49c:	4c ec       	ldi	r20, 0xCC	; 204
     49e:	5e e3       	ldi	r21, 0x3E	; 62
     4a0:	0e 94 db 20 	call	0x41b6	; 0x41b6 <__mulsf3>
     4a4:	22 e0       	ldi	r18, 0x02	; 2
     4a6:	3b e2       	ldi	r19, 0x2B	; 43
     4a8:	47 eb       	ldi	r20, 0xB7	; 183
     4aa:	5f eb       	ldi	r21, 0xBF	; 191
     4ac:	0e 94 3e 21 	call	0x427c	; 0x427c <pow>
     4b0:	60 93 7f 0d 	sts	0x0D7F, r22	; 0x800d7f <BAC>
     4b4:	70 93 80 0d 	sts	0x0D80, r23	; 0x800d80 <BAC+0x1>
     4b8:	80 93 81 0d 	sts	0x0D81, r24	; 0x800d81 <BAC+0x2>
     4bc:	90 93 82 0d 	sts	0x0D82, r25	; 0x800d82 <BAC+0x3>

	return BAC;
     4c0:	0f 90       	pop	r0
     4c2:	0f 90       	pop	r0
     4c4:	0f 90       	pop	r0
     4c6:	0f 90       	pop	r0
     4c8:	0f 90       	pop	r0
     4ca:	0f 90       	pop	r0
}
     4cc:	ca 5b       	subi	r28, 0xBA	; 186
     4ce:	df 4f       	sbci	r29, 0xFF	; 255
     4d0:	0f b6       	in	r0, 0x3f	; 63
     4d2:	f8 94       	cli
     4d4:	de bf       	out	0x3e, r29	; 62
     4d6:	0f be       	out	0x3f, r0	; 63
     4d8:	cd bf       	out	0x3d, r28	; 61
     4da:	df 91       	pop	r29
     4dc:	cf 91       	pop	r28
     4de:	1f 91       	pop	r17
     4e0:	0f 91       	pop	r16
     4e2:	ff 90       	pop	r15
     4e4:	ef 90       	pop	r14
     4e6:	df 90       	pop	r13
     4e8:	cf 90       	pop	r12
     4ea:	08 95       	ret

000004ec <disk_status>:
BYTE pdrv		/* Physical drive nmuber to identify the drive */
)
{
	DSTATUS stat;
	return stat;
}
     4ec:	80 e0       	ldi	r24, 0x00	; 0
     4ee:	08 95       	ret

000004f0 <disk_initialize>:
BYTE pdrv				/* Physical drive nmuber to identify the drive */
)
{
	unsigned char result;

	result = SD_init();
     4f0:	0e 94 b6 15 	call	0x2b6c	; 0x2b6c <SD_init>
     4f4:	91 e0       	ldi	r25, 0x01	; 1
     4f6:	81 11       	cpse	r24, r1
     4f8:	01 c0       	rjmp	.+2      	; 0x4fc <disk_initialize+0xc>
     4fa:	90 e0       	ldi	r25, 0x00	; 0
	} 
	else
	{
		return RES_OK;	
	}
}
     4fc:	89 2f       	mov	r24, r25
     4fe:	08 95       	ret

00000500 <disk_read>:
BYTE pdrv,		/* Physical drive nmuber to identify the drive */
BYTE *buff,		/* Data buffer to store read data */
LBA_t sector,	/* Start sector in LBA */
UINT count		/* Number of sectors to read */
)
{
     500:	8f 92       	push	r8
     502:	9f 92       	push	r9
     504:	af 92       	push	r10
     506:	bf 92       	push	r11
     508:	cf 92       	push	r12
     50a:	df 92       	push	r13
     50c:	ef 92       	push	r14
     50e:	ff 92       	push	r15
     510:	0f 93       	push	r16
     512:	1f 93       	push	r17
     514:	cf 93       	push	r28
     516:	df 93       	push	r29
     518:	eb 01       	movw	r28, r22
	unsigned char result;

	//		result = MMC_disk_read(buff, sector, count);
	for (unsigned long i = 0; i < count; i++)
     51a:	48 01       	movw	r8, r16
     51c:	a1 2c       	mov	r10, r1
     51e:	b1 2c       	mov	r11, r1
     520:	81 14       	cp	r8, r1
     522:	91 04       	cpc	r9, r1
     524:	a1 04       	cpc	r10, r1
     526:	b1 04       	cpc	r11, r1
     528:	d1 f0       	breq	.+52     	; 0x55e <disk_read+0x5e>
     52a:	82 0e       	add	r8, r18
     52c:	93 1e       	adc	r9, r19
     52e:	a4 1e       	adc	r10, r20
     530:	b5 1e       	adc	r11, r21
     532:	69 01       	movw	r12, r18
     534:	7a 01       	movw	r14, r20
	{
		result = SD_readSingleBlock(sector+i, buff);
     536:	ae 01       	movw	r20, r28
     538:	c7 01       	movw	r24, r14
     53a:	b6 01       	movw	r22, r12
     53c:	0e 94 48 16 	call	0x2c90	; 0x2c90 <SD_readSingleBlock>
		buff += 512;
     540:	de 5f       	subi	r29, 0xFE	; 254
		
		if (result != 0){
     542:	81 11       	cpse	r24, r1
     544:	0e c0       	rjmp	.+28     	; 0x562 <disk_read+0x62>
     546:	8f ef       	ldi	r24, 0xFF	; 255
     548:	c8 1a       	sub	r12, r24
     54a:	d8 0a       	sbc	r13, r24
     54c:	e8 0a       	sbc	r14, r24
     54e:	f8 0a       	sbc	r15, r24
)
{
	unsigned char result;

	//		result = MMC_disk_read(buff, sector, count);
	for (unsigned long i = 0; i < count; i++)
     550:	c8 14       	cp	r12, r8
     552:	d9 04       	cpc	r13, r9
     554:	ea 04       	cpc	r14, r10
     556:	fb 04       	cpc	r15, r11
     558:	71 f7       	brne	.-36     	; 0x536 <disk_read+0x36>
		
		if (result != 0){
			return RES_ERROR;	
		}		
	}
	return RES_OK;
     55a:	80 e0       	ldi	r24, 0x00	; 0
     55c:	03 c0       	rjmp	.+6      	; 0x564 <disk_read+0x64>
     55e:	80 e0       	ldi	r24, 0x00	; 0
     560:	01 c0       	rjmp	.+2      	; 0x564 <disk_read+0x64>
	{
		result = SD_readSingleBlock(sector+i, buff);
		buff += 512;
		
		if (result != 0){
			return RES_ERROR;	
     562:	81 e0       	ldi	r24, 0x01	; 1
		}		
	}
	return RES_OK;
}
     564:	df 91       	pop	r29
     566:	cf 91       	pop	r28
     568:	1f 91       	pop	r17
     56a:	0f 91       	pop	r16
     56c:	ff 90       	pop	r15
     56e:	ef 90       	pop	r14
     570:	df 90       	pop	r13
     572:	cf 90       	pop	r12
     574:	bf 90       	pop	r11
     576:	af 90       	pop	r10
     578:	9f 90       	pop	r9
     57a:	8f 90       	pop	r8
     57c:	08 95       	ret

0000057e <disk_write>:
BYTE pdrv,			/* Physical drive nmuber to identify the drive */
const BYTE *buff,	/* Data to be written */
LBA_t sector,		/* Start sector in LBA */
UINT count			/* Number of sectors to write */
)
{
     57e:	8f 92       	push	r8
     580:	9f 92       	push	r9
     582:	af 92       	push	r10
     584:	bf 92       	push	r11
     586:	cf 92       	push	r12
     588:	df 92       	push	r13
     58a:	ef 92       	push	r14
     58c:	ff 92       	push	r15
     58e:	0f 93       	push	r16
     590:	1f 93       	push	r17
     592:	cf 93       	push	r28
     594:	df 93       	push	r29
     596:	eb 01       	movw	r28, r22
	unsigned char result;

	//   	result = MMC_disk_write(buff, sector, count);
	for (unsigned long i = 0; i<count; i++)
     598:	48 01       	movw	r8, r16
     59a:	a1 2c       	mov	r10, r1
     59c:	b1 2c       	mov	r11, r1
     59e:	81 14       	cp	r8, r1
     5a0:	91 04       	cpc	r9, r1
     5a2:	a1 04       	cpc	r10, r1
     5a4:	b1 04       	cpc	r11, r1
     5a6:	d1 f0       	breq	.+52     	; 0x5dc <disk_write+0x5e>
     5a8:	82 0e       	add	r8, r18
     5aa:	93 1e       	adc	r9, r19
     5ac:	a4 1e       	adc	r10, r20
     5ae:	b5 1e       	adc	r11, r21
     5b0:	69 01       	movw	r12, r18
     5b2:	7a 01       	movw	r14, r20
	{
		result = SD_writeSingleBlock(sector+i, buff);
     5b4:	ae 01       	movw	r20, r28
     5b6:	c7 01       	movw	r24, r14
     5b8:	b6 01       	movw	r22, r12
     5ba:	0e 94 71 16 	call	0x2ce2	; 0x2ce2 <SD_writeSingleBlock>
		buff += 512;
     5be:	de 5f       	subi	r29, 0xFE	; 254
		
		if (result != 0) {
     5c0:	81 11       	cpse	r24, r1
     5c2:	0e c0       	rjmp	.+28     	; 0x5e0 <disk_write+0x62>
     5c4:	8f ef       	ldi	r24, 0xFF	; 255
     5c6:	c8 1a       	sub	r12, r24
     5c8:	d8 0a       	sbc	r13, r24
     5ca:	e8 0a       	sbc	r14, r24
     5cc:	f8 0a       	sbc	r15, r24
)
{
	unsigned char result;

	//   	result = MMC_disk_write(buff, sector, count);
	for (unsigned long i = 0; i<count; i++)
     5ce:	c8 14       	cp	r12, r8
     5d0:	d9 04       	cpc	r13, r9
     5d2:	ea 04       	cpc	r14, r10
     5d4:	fb 04       	cpc	r15, r11
     5d6:	71 f7       	brne	.-36     	; 0x5b4 <disk_write+0x36>
		if (result != 0) {
			return RES_ERROR;
		}
	}
	
	return RES_OK;
     5d8:	80 e0       	ldi	r24, 0x00	; 0
     5da:	03 c0       	rjmp	.+6      	; 0x5e2 <disk_write+0x64>
     5dc:	80 e0       	ldi	r24, 0x00	; 0
     5de:	01 c0       	rjmp	.+2      	; 0x5e2 <disk_write+0x64>
	{
		result = SD_writeSingleBlock(sector+i, buff);
		buff += 512;
		
		if (result != 0) {
			return RES_ERROR;
     5e0:	81 e0       	ldi	r24, 0x01	; 1
		}
	}
	
	return RES_OK;
}
     5e2:	df 91       	pop	r29
     5e4:	cf 91       	pop	r28
     5e6:	1f 91       	pop	r17
     5e8:	0f 91       	pop	r16
     5ea:	ff 90       	pop	r15
     5ec:	ef 90       	pop	r14
     5ee:	df 90       	pop	r13
     5f0:	cf 90       	pop	r12
     5f2:	bf 90       	pop	r11
     5f4:	af 90       	pop	r10
     5f6:	9f 90       	pop	r9
     5f8:	8f 90       	pop	r8
     5fa:	08 95       	ret

000005fc <disk_ioctl>:
void *buff		/* Buffer to send/receive control data */
)
{
	DRESULT res;
	return res;
     5fc:	80 e0       	ldi	r24, 0x00	; 0
     5fe:	08 95       	ret

00000600 <ld_dword>:
		mem_cpy(rbuff, fp->buf + fp->fptr % SS(fs), rcnt);	/* Extract partial sector */
#endif
	}

	LEAVE_FF(fs, FR_OK);
}
     600:	fc 01       	movw	r30, r24
     602:	63 81       	ldd	r22, Z+3	; 0x03
     604:	86 2f       	mov	r24, r22
     606:	90 e0       	ldi	r25, 0x00	; 0
     608:	a0 e0       	ldi	r26, 0x00	; 0
     60a:	b0 e0       	ldi	r27, 0x00	; 0
     60c:	ba 2f       	mov	r27, r26
     60e:	a9 2f       	mov	r26, r25
     610:	98 2f       	mov	r25, r24
     612:	88 27       	eor	r24, r24
     614:	22 81       	ldd	r18, Z+2	; 0x02
     616:	82 2b       	or	r24, r18
     618:	ba 2f       	mov	r27, r26
     61a:	a9 2f       	mov	r26, r25
     61c:	98 2f       	mov	r25, r24
     61e:	88 27       	eor	r24, r24
     620:	21 81       	ldd	r18, Z+1	; 0x01
     622:	82 2b       	or	r24, r18
     624:	ba 2f       	mov	r27, r26
     626:	a9 2f       	mov	r26, r25
     628:	98 2f       	mov	r25, r24
     62a:	88 27       	eor	r24, r24
     62c:	20 81       	ld	r18, Z
     62e:	bc 01       	movw	r22, r24
     630:	cd 01       	movw	r24, r26
     632:	62 2b       	or	r22, r18
     634:	08 95       	ret

00000636 <mem_cpy>:
     636:	41 15       	cp	r20, r1
     638:	51 05       	cpc	r21, r1
     63a:	51 f0       	breq	.+20     	; 0x650 <mem_cpy+0x1a>
     63c:	a6 2f       	mov	r26, r22
     63e:	b7 2f       	mov	r27, r23
     640:	fc 01       	movw	r30, r24
     642:	48 0f       	add	r20, r24
     644:	59 1f       	adc	r21, r25
     646:	9d 91       	ld	r25, X+
     648:	91 93       	st	Z+, r25
     64a:	e4 17       	cp	r30, r20
     64c:	f5 07       	cpc	r31, r21
     64e:	d9 f7       	brne	.-10     	; 0x646 <mem_cpy+0x10>
     650:	08 95       	ret

00000652 <clst2sect>:
     652:	0f 93       	push	r16
     654:	1f 93       	push	r17
     656:	fc 01       	movw	r30, r24
     658:	9a 01       	movw	r18, r20
     65a:	ab 01       	movw	r20, r22
     65c:	22 50       	subi	r18, 0x02	; 2
     65e:	31 09       	sbc	r19, r1
     660:	41 09       	sbc	r20, r1
     662:	51 09       	sbc	r21, r1
     664:	83 89       	ldd	r24, Z+19	; 0x13
     666:	94 89       	ldd	r25, Z+20	; 0x14
     668:	a5 89       	ldd	r26, Z+21	; 0x15
     66a:	b6 89       	ldd	r27, Z+22	; 0x16
     66c:	02 97       	sbiw	r24, 0x02	; 2
     66e:	a1 09       	sbc	r26, r1
     670:	b1 09       	sbc	r27, r1
     672:	28 17       	cp	r18, r24
     674:	39 07       	cpc	r19, r25
     676:	4a 07       	cpc	r20, r26
     678:	5b 07       	cpc	r21, r27
     67a:	68 f4       	brcc	.+26     	; 0x696 <clst2sect+0x44>
     67c:	a1 85       	ldd	r26, Z+9	; 0x09
     67e:	b2 85       	ldd	r27, Z+10	; 0x0a
     680:	0e 94 cd 22 	call	0x459a	; 0x459a <__muluhisi3>
     684:	07 a1       	ldd	r16, Z+39	; 0x27
     686:	10 a5       	ldd	r17, Z+40	; 0x28
     688:	21 a5       	ldd	r18, Z+41	; 0x29
     68a:	32 a5       	ldd	r19, Z+42	; 0x2a
     68c:	60 0f       	add	r22, r16
     68e:	71 1f       	adc	r23, r17
     690:	82 1f       	adc	r24, r18
     692:	93 1f       	adc	r25, r19
     694:	03 c0       	rjmp	.+6      	; 0x69c <clst2sect+0x4a>
     696:	60 e0       	ldi	r22, 0x00	; 0
     698:	70 e0       	ldi	r23, 0x00	; 0
     69a:	cb 01       	movw	r24, r22
     69c:	1f 91       	pop	r17
     69e:	0f 91       	pop	r16
     6a0:	08 95       	ret

000006a2 <get_ldnumber>:
     6a2:	cf 93       	push	r28
     6a4:	df 93       	push	r29
     6a6:	ec 01       	movw	r28, r24
     6a8:	a8 81       	ld	r26, Y
     6aa:	b9 81       	ldd	r27, Y+1	; 0x01
     6ac:	10 97       	sbiw	r26, 0x00	; 0
     6ae:	f1 f0       	breq	.+60     	; 0x6ec <get_ldnumber+0x4a>
     6b0:	9d 01       	movw	r18, r26
     6b2:	2f 5f       	subi	r18, 0xFF	; 255
     6b4:	3f 4f       	sbci	r19, 0xFF	; 255
     6b6:	f9 01       	movw	r30, r18
     6b8:	31 97       	sbiw	r30, 0x01	; 1
     6ba:	90 81       	ld	r25, Z
     6bc:	91 32       	cpi	r25, 0x21	; 33
     6be:	18 f0       	brcs	.+6      	; 0x6c6 <get_ldnumber+0x24>
     6c0:	9a 33       	cpi	r25, 0x3A	; 58
     6c2:	b9 f7       	brne	.-18     	; 0x6b2 <get_ldnumber+0x10>
     6c4:	02 c0       	rjmp	.+4      	; 0x6ca <get_ldnumber+0x28>
     6c6:	9a 33       	cpi	r25, 0x3A	; 58
     6c8:	a1 f4       	brne	.+40     	; 0x6f2 <get_ldnumber+0x50>
     6ca:	8c 91       	ld	r24, X
     6cc:	90 ed       	ldi	r25, 0xD0	; 208
     6ce:	98 0f       	add	r25, r24
     6d0:	9a 30       	cpi	r25, 0x0A	; 10
     6d2:	90 f4       	brcc	.+36     	; 0x6f8 <get_ldnumber+0x56>
     6d4:	12 96       	adiw	r26, 0x02	; 2
     6d6:	2a 17       	cp	r18, r26
     6d8:	3b 07       	cpc	r19, r27
     6da:	89 f4       	brne	.+34     	; 0x6fe <get_ldnumber+0x5c>
     6dc:	90 e0       	ldi	r25, 0x00	; 0
     6de:	c0 97       	sbiw	r24, 0x30	; 48
     6e0:	18 16       	cp	r1, r24
     6e2:	19 06       	cpc	r1, r25
     6e4:	7c f0       	brlt	.+30     	; 0x704 <get_ldnumber+0x62>
     6e6:	39 83       	std	Y+1, r19	; 0x01
     6e8:	28 83       	st	Y, r18
     6ea:	0e c0       	rjmp	.+28     	; 0x708 <get_ldnumber+0x66>
     6ec:	8f ef       	ldi	r24, 0xFF	; 255
     6ee:	9f ef       	ldi	r25, 0xFF	; 255
     6f0:	0b c0       	rjmp	.+22     	; 0x708 <get_ldnumber+0x66>
     6f2:	80 e0       	ldi	r24, 0x00	; 0
     6f4:	90 e0       	ldi	r25, 0x00	; 0
     6f6:	08 c0       	rjmp	.+16     	; 0x708 <get_ldnumber+0x66>
     6f8:	8f ef       	ldi	r24, 0xFF	; 255
     6fa:	9f ef       	ldi	r25, 0xFF	; 255
     6fc:	05 c0       	rjmp	.+10     	; 0x708 <get_ldnumber+0x66>
     6fe:	8f ef       	ldi	r24, 0xFF	; 255
     700:	9f ef       	ldi	r25, 0xFF	; 255
     702:	02 c0       	rjmp	.+4      	; 0x708 <get_ldnumber+0x66>
     704:	8f ef       	ldi	r24, 0xFF	; 255
     706:	9f ef       	ldi	r25, 0xFF	; 255
     708:	df 91       	pop	r29
     70a:	cf 91       	pop	r28
     70c:	08 95       	ret

0000070e <validate>:
     70e:	0f 93       	push	r16
     710:	1f 93       	push	r17
     712:	cf 93       	push	r28
     714:	df 93       	push	r29
     716:	ec 01       	movw	r28, r24
     718:	8b 01       	movw	r16, r22
     71a:	89 2b       	or	r24, r25
     71c:	d9 f0       	breq	.+54     	; 0x754 <validate+0x46>
     71e:	e8 81       	ld	r30, Y
     720:	f9 81       	ldd	r31, Y+1	; 0x01
     722:	30 97       	sbiw	r30, 0x00	; 0
     724:	b9 f0       	breq	.+46     	; 0x754 <validate+0x46>
     726:	80 81       	ld	r24, Z
     728:	88 23       	and	r24, r24
     72a:	a1 f0       	breq	.+40     	; 0x754 <validate+0x46>
     72c:	2a 81       	ldd	r18, Y+2	; 0x02
     72e:	3b 81       	ldd	r19, Y+3	; 0x03
     730:	85 81       	ldd	r24, Z+5	; 0x05
     732:	96 81       	ldd	r25, Z+6	; 0x06
     734:	28 17       	cp	r18, r24
     736:	39 07       	cpc	r19, r25
     738:	69 f4       	brne	.+26     	; 0x754 <validate+0x46>
     73a:	81 81       	ldd	r24, Z+1	; 0x01
     73c:	d7 de       	rcall	.-594    	; 0x4ec <disk_status>
     73e:	80 fd       	sbrc	r24, 0
     740:	09 c0       	rjmp	.+18     	; 0x754 <validate+0x46>
     742:	04 c0       	rjmp	.+8      	; 0x74c <validate+0x3e>
     744:	f8 01       	movw	r30, r16
     746:	31 83       	std	Z+1, r19	; 0x01
     748:	20 83       	st	Z, r18
     74a:	08 c0       	rjmp	.+16     	; 0x75c <validate+0x4e>
     74c:	28 81       	ld	r18, Y
     74e:	39 81       	ldd	r19, Y+1	; 0x01
     750:	80 e0       	ldi	r24, 0x00	; 0
     752:	f8 cf       	rjmp	.-16     	; 0x744 <validate+0x36>
     754:	89 e0       	ldi	r24, 0x09	; 9
     756:	20 e0       	ldi	r18, 0x00	; 0
     758:	30 e0       	ldi	r19, 0x00	; 0
     75a:	f4 cf       	rjmp	.-24     	; 0x744 <validate+0x36>
     75c:	df 91       	pop	r29
     75e:	cf 91       	pop	r28
     760:	1f 91       	pop	r17
     762:	0f 91       	pop	r16
     764:	08 95       	ret

00000766 <sync_window>:
     766:	8f 92       	push	r8
     768:	9f 92       	push	r9
     76a:	af 92       	push	r10
     76c:	bf 92       	push	r11
     76e:	ef 92       	push	r14
     770:	ff 92       	push	r15
     772:	0f 93       	push	r16
     774:	1f 93       	push	r17
     776:	cf 93       	push	r28
     778:	df 93       	push	r29
     77a:	fc 01       	movw	r30, r24
     77c:	23 81       	ldd	r18, Z+3	; 0x03
     77e:	22 23       	and	r18, r18
     780:	c1 f1       	breq	.+112    	; 0x7f2 <sync_window+0x8c>
     782:	ec 01       	movw	r28, r24
     784:	7c 01       	movw	r14, r24
     786:	ff e2       	ldi	r31, 0x2F	; 47
     788:	ef 0e       	add	r14, r31
     78a:	f1 1c       	adc	r15, r1
     78c:	2b a5       	ldd	r18, Y+43	; 0x2b
     78e:	3c a5       	ldd	r19, Y+44	; 0x2c
     790:	4d a5       	ldd	r20, Y+45	; 0x2d
     792:	5e a5       	ldd	r21, Y+46	; 0x2e
     794:	01 e0       	ldi	r16, 0x01	; 1
     796:	10 e0       	ldi	r17, 0x00	; 0
     798:	b7 01       	movw	r22, r14
     79a:	89 81       	ldd	r24, Y+1	; 0x01
     79c:	f0 de       	rcall	.-544    	; 0x57e <disk_write>
     79e:	81 11       	cpse	r24, r1
     7a0:	2a c0       	rjmp	.+84     	; 0x7f6 <sync_window+0x90>
     7a2:	1b 82       	std	Y+3, r1	; 0x03
     7a4:	0b a5       	ldd	r16, Y+43	; 0x2b
     7a6:	1c a5       	ldd	r17, Y+44	; 0x2c
     7a8:	2d a5       	ldd	r18, Y+45	; 0x2d
     7aa:	3e a5       	ldd	r19, Y+46	; 0x2e
     7ac:	8f 89       	ldd	r24, Y+23	; 0x17
     7ae:	98 8d       	ldd	r25, Y+24	; 0x18
     7b0:	a9 8d       	ldd	r26, Y+25	; 0x19
     7b2:	ba 8d       	ldd	r27, Y+26	; 0x1a
     7b4:	8f 8c       	ldd	r8, Y+31	; 0x1f
     7b6:	98 a0       	ldd	r9, Y+32	; 0x20
     7b8:	a9 a0       	ldd	r10, Y+33	; 0x21
     7ba:	ba a0       	ldd	r11, Y+34	; 0x22
     7bc:	b9 01       	movw	r22, r18
     7be:	a8 01       	movw	r20, r16
     7c0:	48 19       	sub	r20, r8
     7c2:	59 09       	sbc	r21, r9
     7c4:	6a 09       	sbc	r22, r10
     7c6:	7b 09       	sbc	r23, r11
     7c8:	48 17       	cp	r20, r24
     7ca:	59 07       	cpc	r21, r25
     7cc:	6a 07       	cpc	r22, r26
     7ce:	7b 07       	cpc	r23, r27
     7d0:	a0 f4       	brcc	.+40     	; 0x7fa <sync_window+0x94>
     7d2:	6a 81       	ldd	r22, Y+2	; 0x02
     7d4:	62 30       	cpi	r22, 0x02	; 2
     7d6:	99 f4       	brne	.+38     	; 0x7fe <sync_window+0x98>
     7d8:	a9 01       	movw	r20, r18
     7da:	98 01       	movw	r18, r16
     7dc:	28 0f       	add	r18, r24
     7de:	39 1f       	adc	r19, r25
     7e0:	4a 1f       	adc	r20, r26
     7e2:	5b 1f       	adc	r21, r27
     7e4:	01 e0       	ldi	r16, 0x01	; 1
     7e6:	10 e0       	ldi	r17, 0x00	; 0
     7e8:	b7 01       	movw	r22, r14
     7ea:	89 81       	ldd	r24, Y+1	; 0x01
     7ec:	c8 de       	rcall	.-624    	; 0x57e <disk_write>
     7ee:	80 e0       	ldi	r24, 0x00	; 0
     7f0:	07 c0       	rjmp	.+14     	; 0x800 <sync_window+0x9a>
     7f2:	80 e0       	ldi	r24, 0x00	; 0
     7f4:	05 c0       	rjmp	.+10     	; 0x800 <sync_window+0x9a>
     7f6:	81 e0       	ldi	r24, 0x01	; 1
     7f8:	03 c0       	rjmp	.+6      	; 0x800 <sync_window+0x9a>
     7fa:	80 e0       	ldi	r24, 0x00	; 0
     7fc:	01 c0       	rjmp	.+2      	; 0x800 <sync_window+0x9a>
     7fe:	80 e0       	ldi	r24, 0x00	; 0
     800:	df 91       	pop	r29
     802:	cf 91       	pop	r28
     804:	1f 91       	pop	r17
     806:	0f 91       	pop	r16
     808:	ff 90       	pop	r15
     80a:	ef 90       	pop	r14
     80c:	bf 90       	pop	r11
     80e:	af 90       	pop	r10
     810:	9f 90       	pop	r9
     812:	8f 90       	pop	r8
     814:	08 95       	ret

00000816 <move_window>:
     816:	8f 92       	push	r8
     818:	9f 92       	push	r9
     81a:	af 92       	push	r10
     81c:	bf 92       	push	r11
     81e:	ff 92       	push	r15
     820:	0f 93       	push	r16
     822:	1f 93       	push	r17
     824:	cf 93       	push	r28
     826:	df 93       	push	r29
     828:	ec 01       	movw	r28, r24
     82a:	4a 01       	movw	r8, r20
     82c:	5b 01       	movw	r10, r22
     82e:	8b a5       	ldd	r24, Y+43	; 0x2b
     830:	9c a5       	ldd	r25, Y+44	; 0x2c
     832:	ad a5       	ldd	r26, Y+45	; 0x2d
     834:	be a5       	ldd	r27, Y+46	; 0x2e
     836:	84 17       	cp	r24, r20
     838:	95 07       	cpc	r25, r21
     83a:	a6 07       	cpc	r26, r22
     83c:	b7 07       	cpc	r27, r23
     83e:	d9 f0       	breq	.+54     	; 0x876 <move_window+0x60>
     840:	ce 01       	movw	r24, r28
     842:	91 df       	rcall	.-222    	; 0x766 <sync_window>
     844:	f8 2e       	mov	r15, r24
     846:	81 11       	cpse	r24, r1
     848:	17 c0       	rjmp	.+46     	; 0x878 <move_window+0x62>
     84a:	01 e0       	ldi	r16, 0x01	; 1
     84c:	10 e0       	ldi	r17, 0x00	; 0
     84e:	a5 01       	movw	r20, r10
     850:	94 01       	movw	r18, r8
     852:	be 01       	movw	r22, r28
     854:	61 5d       	subi	r22, 0xD1	; 209
     856:	7f 4f       	sbci	r23, 0xFF	; 255
     858:	89 81       	ldd	r24, Y+1	; 0x01
     85a:	52 de       	rcall	.-860    	; 0x500 <disk_read>
     85c:	88 23       	and	r24, r24
     85e:	31 f0       	breq	.+12     	; 0x86c <move_window+0x56>
     860:	ff 24       	eor	r15, r15
     862:	f3 94       	inc	r15
     864:	88 24       	eor	r8, r8
     866:	8a 94       	dec	r8
     868:	98 2c       	mov	r9, r8
     86a:	54 01       	movw	r10, r8
     86c:	8b a6       	std	Y+43, r8	; 0x2b
     86e:	9c a6       	std	Y+44, r9	; 0x2c
     870:	ad a6       	std	Y+45, r10	; 0x2d
     872:	be a6       	std	Y+46, r11	; 0x2e
     874:	01 c0       	rjmp	.+2      	; 0x878 <move_window+0x62>
     876:	f1 2c       	mov	r15, r1
     878:	8f 2d       	mov	r24, r15
     87a:	df 91       	pop	r29
     87c:	cf 91       	pop	r28
     87e:	1f 91       	pop	r17
     880:	0f 91       	pop	r16
     882:	ff 90       	pop	r15
     884:	bf 90       	pop	r11
     886:	af 90       	pop	r10
     888:	9f 90       	pop	r9
     88a:	8f 90       	pop	r8
     88c:	08 95       	ret

0000088e <dir_clear>:
     88e:	8f 92       	push	r8
     890:	9f 92       	push	r9
     892:	af 92       	push	r10
     894:	bf 92       	push	r11
     896:	cf 92       	push	r12
     898:	df 92       	push	r13
     89a:	ef 92       	push	r14
     89c:	ff 92       	push	r15
     89e:	0f 93       	push	r16
     8a0:	1f 93       	push	r17
     8a2:	cf 93       	push	r28
     8a4:	df 93       	push	r29
     8a6:	7c 01       	movw	r14, r24
     8a8:	4a 01       	movw	r8, r20
     8aa:	5b 01       	movw	r10, r22
     8ac:	5c df       	rcall	.-328    	; 0x766 <sync_window>
     8ae:	81 11       	cpse	r24, r1
     8b0:	40 c0       	rjmp	.+128    	; 0x932 <dir_clear+0xa4>
     8b2:	b5 01       	movw	r22, r10
     8b4:	a4 01       	movw	r20, r8
     8b6:	c7 01       	movw	r24, r14
     8b8:	cc de       	rcall	.-616    	; 0x652 <clst2sect>
     8ba:	4b 01       	movw	r8, r22
     8bc:	5c 01       	movw	r10, r24
     8be:	f7 01       	movw	r30, r14
     8c0:	63 a7       	std	Z+43, r22	; 0x2b
     8c2:	74 a7       	std	Z+44, r23	; 0x2c
     8c4:	85 a7       	std	Z+45, r24	; 0x2d
     8c6:	96 a7       	std	Z+46, r25	; 0x2e
     8c8:	67 01       	movw	r12, r14
     8ca:	ff e2       	ldi	r31, 0x2F	; 47
     8cc:	cf 0e       	add	r12, r31
     8ce:	d1 1c       	adc	r13, r1
     8d0:	f6 01       	movw	r30, r12
     8d2:	c7 01       	movw	r24, r14
     8d4:	81 5d       	subi	r24, 0xD1	; 209
     8d6:	9d 4f       	sbci	r25, 0xFD	; 253
     8d8:	11 92       	st	Z+, r1
     8da:	e8 17       	cp	r30, r24
     8dc:	f9 07       	cpc	r31, r25
     8de:	e1 f7       	brne	.-8      	; 0x8d8 <dir_clear+0x4a>
     8e0:	f7 01       	movw	r30, r14
     8e2:	81 85       	ldd	r24, Z+9	; 0x09
     8e4:	92 85       	ldd	r25, Z+10	; 0x0a
     8e6:	89 2b       	or	r24, r25
     8e8:	59 f4       	brne	.+22     	; 0x900 <dir_clear+0x72>
     8ea:	c0 e0       	ldi	r28, 0x00	; 0
     8ec:	d0 e0       	ldi	r29, 0x00	; 0
     8ee:	18 c0       	rjmp	.+48     	; 0x920 <dir_clear+0x92>
     8f0:	21 96       	adiw	r28, 0x01	; 1
     8f2:	f7 01       	movw	r30, r14
     8f4:	81 85       	ldd	r24, Z+9	; 0x09
     8f6:	92 85       	ldd	r25, Z+10	; 0x0a
     8f8:	c8 17       	cp	r28, r24
     8fa:	d9 07       	cpc	r29, r25
     8fc:	18 f0       	brcs	.+6      	; 0x904 <dir_clear+0x76>
     8fe:	10 c0       	rjmp	.+32     	; 0x920 <dir_clear+0x92>
     900:	c0 e0       	ldi	r28, 0x00	; 0
     902:	d0 e0       	ldi	r29, 0x00	; 0
     904:	01 e0       	ldi	r16, 0x01	; 1
     906:	10 e0       	ldi	r17, 0x00	; 0
     908:	a5 01       	movw	r20, r10
     90a:	94 01       	movw	r18, r8
     90c:	2c 0f       	add	r18, r28
     90e:	3d 1f       	adc	r19, r29
     910:	41 1d       	adc	r20, r1
     912:	51 1d       	adc	r21, r1
     914:	b6 01       	movw	r22, r12
     916:	f7 01       	movw	r30, r14
     918:	81 81       	ldd	r24, Z+1	; 0x01
     91a:	31 de       	rcall	.-926    	; 0x57e <disk_write>
     91c:	88 23       	and	r24, r24
     91e:	41 f3       	breq	.-48     	; 0x8f0 <dir_clear+0x62>
     920:	81 e0       	ldi	r24, 0x01	; 1
     922:	f7 01       	movw	r30, r14
     924:	21 85       	ldd	r18, Z+9	; 0x09
     926:	32 85       	ldd	r19, Z+10	; 0x0a
     928:	2c 17       	cp	r18, r28
     92a:	3d 07       	cpc	r19, r29
     92c:	19 f4       	brne	.+6      	; 0x934 <dir_clear+0xa6>
     92e:	80 e0       	ldi	r24, 0x00	; 0
     930:	01 c0       	rjmp	.+2      	; 0x934 <dir_clear+0xa6>
     932:	81 e0       	ldi	r24, 0x01	; 1
     934:	df 91       	pop	r29
     936:	cf 91       	pop	r28
     938:	1f 91       	pop	r17
     93a:	0f 91       	pop	r16
     93c:	ff 90       	pop	r15
     93e:	ef 90       	pop	r14
     940:	df 90       	pop	r13
     942:	cf 90       	pop	r12
     944:	bf 90       	pop	r11
     946:	af 90       	pop	r10
     948:	9f 90       	pop	r9
     94a:	8f 90       	pop	r8
     94c:	08 95       	ret

0000094e <sync_fs>:
     94e:	0f 93       	push	r16
     950:	1f 93       	push	r17
     952:	cf 93       	push	r28
     954:	df 93       	push	r29
     956:	ec 01       	movw	r28, r24
     958:	06 df       	rcall	.-500    	; 0x766 <sync_window>
     95a:	98 2f       	mov	r25, r24
     95c:	81 11       	cpse	r24, r1
     95e:	5f c0       	rjmp	.+190    	; 0xa1e <sync_fs+0xd0>
     960:	88 81       	ld	r24, Y
     962:	83 30       	cpi	r24, 0x03	; 3
     964:	09 f0       	breq	.+2      	; 0x968 <sync_fs+0x1a>
     966:	52 c0       	rjmp	.+164    	; 0xa0c <sync_fs+0xbe>
     968:	8c 81       	ldd	r24, Y+4	; 0x04
     96a:	81 30       	cpi	r24, 0x01	; 1
     96c:	09 f0       	breq	.+2      	; 0x970 <sync_fs+0x22>
     96e:	4e c0       	rjmp	.+156    	; 0xa0c <sync_fs+0xbe>
     970:	be 01       	movw	r22, r28
     972:	61 5d       	subi	r22, 0xD1	; 209
     974:	7f 4f       	sbci	r23, 0xFF	; 255
     976:	fb 01       	movw	r30, r22
     978:	ce 01       	movw	r24, r28
     97a:	81 5d       	subi	r24, 0xD1	; 209
     97c:	9d 4f       	sbci	r25, 0xFD	; 253
     97e:	11 92       	st	Z+, r1
     980:	e8 17       	cp	r30, r24
     982:	f9 07       	cpc	r31, r25
     984:	e1 f7       	brne	.-8      	; 0x97e <sync_fs+0x30>
     986:	85 e5       	ldi	r24, 0x55	; 85
     988:	fe 01       	movw	r30, r28
     98a:	e3 5d       	subi	r30, 0xD3	; 211
     98c:	fd 4f       	sbci	r31, 0xFD	; 253
     98e:	80 83       	st	Z, r24
     990:	8a ea       	ldi	r24, 0xAA	; 170
     992:	31 96       	adiw	r30, 0x01	; 1
     994:	80 83       	st	Z, r24
     996:	82 e5       	ldi	r24, 0x52	; 82
     998:	8f a7       	std	Y+47, r24	; 0x2f
     99a:	88 ab       	std	Y+48, r24	; 0x30
     99c:	81 e6       	ldi	r24, 0x61	; 97
     99e:	89 ab       	std	Y+49, r24	; 0x31
     9a0:	91 e4       	ldi	r25, 0x41	; 65
     9a2:	9a ab       	std	Y+50, r25	; 0x32
     9a4:	22 e7       	ldi	r18, 0x72	; 114
     9a6:	7b 97       	sbiw	r30, 0x1b	; 27
     9a8:	20 83       	st	Z, r18
     9aa:	31 96       	adiw	r30, 0x01	; 1
     9ac:	20 83       	st	Z, r18
     9ae:	31 96       	adiw	r30, 0x01	; 1
     9b0:	90 83       	st	Z, r25
     9b2:	31 96       	adiw	r30, 0x01	; 1
     9b4:	80 83       	st	Z, r24
     9b6:	3f 85       	ldd	r19, Y+15	; 0x0f
     9b8:	28 89       	ldd	r18, Y+16	; 0x10
     9ba:	99 89       	ldd	r25, Y+17	; 0x11
     9bc:	8a 89       	ldd	r24, Y+18	; 0x12
     9be:	31 96       	adiw	r30, 0x01	; 1
     9c0:	30 83       	st	Z, r19
     9c2:	31 96       	adiw	r30, 0x01	; 1
     9c4:	20 83       	st	Z, r18
     9c6:	31 96       	adiw	r30, 0x01	; 1
     9c8:	90 83       	st	Z, r25
     9ca:	31 96       	adiw	r30, 0x01	; 1
     9cc:	80 83       	st	Z, r24
     9ce:	3b 85       	ldd	r19, Y+11	; 0x0b
     9d0:	2c 85       	ldd	r18, Y+12	; 0x0c
     9d2:	9d 85       	ldd	r25, Y+13	; 0x0d
     9d4:	8e 85       	ldd	r24, Y+14	; 0x0e
     9d6:	31 96       	adiw	r30, 0x01	; 1
     9d8:	30 83       	st	Z, r19
     9da:	31 96       	adiw	r30, 0x01	; 1
     9dc:	20 83       	st	Z, r18
     9de:	31 96       	adiw	r30, 0x01	; 1
     9e0:	90 83       	st	Z, r25
     9e2:	31 96       	adiw	r30, 0x01	; 1
     9e4:	80 83       	st	Z, r24
     9e6:	8b 8d       	ldd	r24, Y+27	; 0x1b
     9e8:	9c 8d       	ldd	r25, Y+28	; 0x1c
     9ea:	ad 8d       	ldd	r26, Y+29	; 0x1d
     9ec:	be 8d       	ldd	r27, Y+30	; 0x1e
     9ee:	9c 01       	movw	r18, r24
     9f0:	ad 01       	movw	r20, r26
     9f2:	2f 5f       	subi	r18, 0xFF	; 255
     9f4:	3f 4f       	sbci	r19, 0xFF	; 255
     9f6:	4f 4f       	sbci	r20, 0xFF	; 255
     9f8:	5f 4f       	sbci	r21, 0xFF	; 255
     9fa:	2b a7       	std	Y+43, r18	; 0x2b
     9fc:	3c a7       	std	Y+44, r19	; 0x2c
     9fe:	4d a7       	std	Y+45, r20	; 0x2d
     a00:	5e a7       	std	Y+46, r21	; 0x2e
     a02:	01 e0       	ldi	r16, 0x01	; 1
     a04:	10 e0       	ldi	r17, 0x00	; 0
     a06:	89 81       	ldd	r24, Y+1	; 0x01
     a08:	ba dd       	rcall	.-1164   	; 0x57e <disk_write>
     a0a:	1c 82       	std	Y+4, r1	; 0x04
     a0c:	40 e0       	ldi	r20, 0x00	; 0
     a0e:	50 e0       	ldi	r21, 0x00	; 0
     a10:	60 e0       	ldi	r22, 0x00	; 0
     a12:	89 81       	ldd	r24, Y+1	; 0x01
     a14:	f3 dd       	rcall	.-1050   	; 0x5fc <disk_ioctl>
     a16:	91 e0       	ldi	r25, 0x01	; 1
     a18:	81 11       	cpse	r24, r1
     a1a:	01 c0       	rjmp	.+2      	; 0xa1e <sync_fs+0xd0>
     a1c:	90 e0       	ldi	r25, 0x00	; 0
     a1e:	89 2f       	mov	r24, r25
     a20:	df 91       	pop	r29
     a22:	cf 91       	pop	r28
     a24:	1f 91       	pop	r17
     a26:	0f 91       	pop	r16
     a28:	08 95       	ret

00000a2a <put_fat>:
     a2a:	2f 92       	push	r2
     a2c:	3f 92       	push	r3
     a2e:	4f 92       	push	r4
     a30:	5f 92       	push	r5
     a32:	6f 92       	push	r6
     a34:	7f 92       	push	r7
     a36:	8f 92       	push	r8
     a38:	9f 92       	push	r9
     a3a:	af 92       	push	r10
     a3c:	bf 92       	push	r11
     a3e:	cf 92       	push	r12
     a40:	df 92       	push	r13
     a42:	ef 92       	push	r14
     a44:	ff 92       	push	r15
     a46:	0f 93       	push	r16
     a48:	1f 93       	push	r17
     a4a:	cf 93       	push	r28
     a4c:	df 93       	push	r29
     a4e:	42 30       	cpi	r20, 0x02	; 2
     a50:	51 05       	cpc	r21, r1
     a52:	61 05       	cpc	r22, r1
     a54:	71 05       	cpc	r23, r1
     a56:	08 f4       	brcc	.+2      	; 0xa5a <put_fat+0x30>
     a58:	cc c0       	rjmp	.+408    	; 0xbf2 <put_fat+0x1c8>
     a5a:	fc 01       	movw	r30, r24
     a5c:	c3 88       	ldd	r12, Z+19	; 0x13
     a5e:	d4 88       	ldd	r13, Z+20	; 0x14
     a60:	e5 88       	ldd	r14, Z+21	; 0x15
     a62:	f6 88       	ldd	r15, Z+22	; 0x16
     a64:	4c 15       	cp	r20, r12
     a66:	5d 05       	cpc	r21, r13
     a68:	6e 05       	cpc	r22, r14
     a6a:	7f 05       	cpc	r23, r15
     a6c:	08 f0       	brcs	.+2      	; 0xa70 <put_fat+0x46>
     a6e:	c3 c0       	rjmp	.+390    	; 0xbf6 <put_fat+0x1cc>
     a70:	28 01       	movw	r4, r16
     a72:	39 01       	movw	r6, r18
     a74:	6a 01       	movw	r12, r20
     a76:	7b 01       	movw	r14, r22
     a78:	ec 01       	movw	r28, r24
     a7a:	80 81       	ld	r24, Z
     a7c:	82 30       	cpi	r24, 0x02	; 2
     a7e:	09 f4       	brne	.+2      	; 0xa82 <put_fat+0x58>
     a80:	61 c0       	rjmp	.+194    	; 0xb44 <put_fat+0x11a>
     a82:	83 30       	cpi	r24, 0x03	; 3
     a84:	09 f4       	brne	.+2      	; 0xa88 <put_fat+0x5e>
     a86:	7e c0       	rjmp	.+252    	; 0xb84 <put_fat+0x15a>
     a88:	81 30       	cpi	r24, 0x01	; 1
     a8a:	09 f0       	breq	.+2      	; 0xa8e <put_fat+0x64>
     a8c:	b6 c0       	rjmp	.+364    	; 0xbfa <put_fat+0x1d0>
     a8e:	5a 01       	movw	r10, r20
     a90:	b6 94       	lsr	r11
     a92:	a7 94       	ror	r10
     a94:	a4 0e       	add	r10, r20
     a96:	b5 1e       	adc	r11, r21
     a98:	c5 01       	movw	r24, r10
     a9a:	89 2f       	mov	r24, r25
     a9c:	99 27       	eor	r25, r25
     a9e:	86 95       	lsr	r24
     aa0:	47 8d       	ldd	r20, Z+31	; 0x1f
     aa2:	50 a1       	ldd	r21, Z+32	; 0x20
     aa4:	61 a1       	ldd	r22, Z+33	; 0x21
     aa6:	72 a1       	ldd	r23, Z+34	; 0x22
     aa8:	48 0f       	add	r20, r24
     aaa:	59 1f       	adc	r21, r25
     aac:	61 1d       	adc	r22, r1
     aae:	71 1d       	adc	r23, r1
     ab0:	cf 01       	movw	r24, r30
     ab2:	b1 de       	rcall	.-670    	; 0x816 <move_window>
     ab4:	18 2f       	mov	r17, r24
     ab6:	81 11       	cpse	r24, r1
     ab8:	c0 c0       	rjmp	.+384    	; 0xc3a <put_fat+0x210>
     aba:	1e 01       	movw	r2, r28
     abc:	ff e2       	ldi	r31, 0x2F	; 47
     abe:	2f 0e       	add	r2, r31
     ac0:	31 1c       	adc	r3, r1
     ac2:	45 01       	movw	r8, r10
     ac4:	2f ef       	ldi	r18, 0xFF	; 255
     ac6:	82 1a       	sub	r8, r18
     ac8:	92 0a       	sbc	r9, r18
     aca:	31 e0       	ldi	r19, 0x01	; 1
     acc:	b3 22       	and	r11, r19
     ace:	f1 01       	movw	r30, r2
     ad0:	ea 0d       	add	r30, r10
     ad2:	fb 1d       	adc	r31, r11
     ad4:	c0 fe       	sbrs	r12, 0
     ad6:	1d c0       	rjmp	.+58     	; 0xb12 <put_fat+0xe8>
     ad8:	80 81       	ld	r24, Z
     ada:	28 2f       	mov	r18, r24
     adc:	2f 70       	andi	r18, 0x0F	; 15
     ade:	30 e1       	ldi	r19, 0x10	; 16
     ae0:	43 9e       	mul	r4, r19
     ae2:	c0 01       	movw	r24, r0
     ae4:	11 24       	eor	r1, r1
     ae6:	82 2b       	or	r24, r18
     ae8:	80 83       	st	Z, r24
     aea:	81 e0       	ldi	r24, 0x01	; 1
     aec:	8b 83       	std	Y+3, r24	; 0x03
     aee:	4f 8d       	ldd	r20, Y+31	; 0x1f
     af0:	58 a1       	ldd	r21, Y+32	; 0x20
     af2:	69 a1       	ldd	r22, Y+33	; 0x21
     af4:	7a a1       	ldd	r23, Y+34	; 0x22
     af6:	c4 01       	movw	r24, r8
     af8:	89 2f       	mov	r24, r25
     afa:	99 27       	eor	r25, r25
     afc:	86 95       	lsr	r24
     afe:	48 0f       	add	r20, r24
     b00:	59 1f       	adc	r21, r25
     b02:	61 1d       	adc	r22, r1
     b04:	71 1d       	adc	r23, r1
     b06:	ce 01       	movw	r24, r28
     b08:	86 de       	rcall	.-756    	; 0x816 <move_window>
     b0a:	88 23       	and	r24, r24
     b0c:	09 f4       	brne	.+2      	; 0xb10 <put_fat+0xe6>
     b0e:	7b c0       	rjmp	.+246    	; 0xc06 <put_fat+0x1dc>
     b10:	76 c0       	rjmp	.+236    	; 0xbfe <put_fat+0x1d4>
     b12:	40 82       	st	Z, r4
     b14:	81 e0       	ldi	r24, 0x01	; 1
     b16:	8b 83       	std	Y+3, r24	; 0x03
     b18:	4f 8d       	ldd	r20, Y+31	; 0x1f
     b1a:	58 a1       	ldd	r21, Y+32	; 0x20
     b1c:	69 a1       	ldd	r22, Y+33	; 0x21
     b1e:	7a a1       	ldd	r23, Y+34	; 0x22
     b20:	c4 01       	movw	r24, r8
     b22:	89 2f       	mov	r24, r25
     b24:	99 27       	eor	r25, r25
     b26:	86 95       	lsr	r24
     b28:	48 0f       	add	r20, r24
     b2a:	59 1f       	adc	r21, r25
     b2c:	61 1d       	adc	r22, r1
     b2e:	71 1d       	adc	r23, r1
     b30:	ce 01       	movw	r24, r28
     b32:	71 de       	rcall	.-798    	; 0x816 <move_window>
     b34:	88 23       	and	r24, r24
     b36:	09 f4       	brne	.+2      	; 0xb3a <put_fat+0x110>
     b38:	74 c0       	rjmp	.+232    	; 0xc22 <put_fat+0x1f8>
     b3a:	63 c0       	rjmp	.+198    	; 0xc02 <put_fat+0x1d8>
     b3c:	40 82       	st	Z, r4
     b3e:	81 e0       	ldi	r24, 0x01	; 1
     b40:	8b 83       	std	Y+3, r24	; 0x03
     b42:	7b c0       	rjmp	.+246    	; 0xc3a <put_fat+0x210>
     b44:	45 2f       	mov	r20, r21
     b46:	56 2f       	mov	r21, r22
     b48:	67 2f       	mov	r22, r23
     b4a:	77 27       	eor	r23, r23
     b4c:	87 8d       	ldd	r24, Z+31	; 0x1f
     b4e:	90 a1       	ldd	r25, Z+32	; 0x20
     b50:	a1 a1       	ldd	r26, Z+33	; 0x21
     b52:	b2 a1       	ldd	r27, Z+34	; 0x22
     b54:	48 0f       	add	r20, r24
     b56:	59 1f       	adc	r21, r25
     b58:	6a 1f       	adc	r22, r26
     b5a:	7b 1f       	adc	r23, r27
     b5c:	cf 01       	movw	r24, r30
     b5e:	5b de       	rcall	.-842    	; 0x816 <move_window>
     b60:	18 2f       	mov	r17, r24
     b62:	81 11       	cpse	r24, r1
     b64:	6a c0       	rjmp	.+212    	; 0xc3a <put_fat+0x210>
     b66:	fe 01       	movw	r30, r28
     b68:	bf 96       	adiw	r30, 0x2f	; 47
     b6a:	cc 0c       	add	r12, r12
     b6c:	dd 1c       	adc	r13, r13
     b6e:	e8 94       	clt
     b70:	c0 f8       	bld	r12, 0
     b72:	81 e0       	ldi	r24, 0x01	; 1
     b74:	d8 22       	and	r13, r24
     b76:	ec 0d       	add	r30, r12
     b78:	fd 1d       	adc	r31, r13
     b7a:	40 82       	st	Z, r4
     b7c:	51 82       	std	Z+1, r5	; 0x01
     b7e:	81 e0       	ldi	r24, 0x01	; 1
     b80:	8b 83       	std	Y+3, r24	; 0x03
     b82:	5b c0       	rjmp	.+182    	; 0xc3a <put_fat+0x210>
     b84:	87 8d       	ldd	r24, Z+31	; 0x1f
     b86:	90 a1       	ldd	r25, Z+32	; 0x20
     b88:	a1 a1       	ldd	r26, Z+33	; 0x21
     b8a:	b2 a1       	ldd	r27, Z+34	; 0x22
     b8c:	68 94       	set
     b8e:	16 f8       	bld	r1, 6
     b90:	76 95       	lsr	r23
     b92:	67 95       	ror	r22
     b94:	57 95       	ror	r21
     b96:	47 95       	ror	r20
     b98:	16 94       	lsr	r1
     b9a:	d1 f7       	brne	.-12     	; 0xb90 <put_fat+0x166>
     b9c:	48 0f       	add	r20, r24
     b9e:	59 1f       	adc	r21, r25
     ba0:	6a 1f       	adc	r22, r26
     ba2:	7b 1f       	adc	r23, r27
     ba4:	cf 01       	movw	r24, r30
     ba6:	37 de       	rcall	.-914    	; 0x816 <move_window>
     ba8:	18 2f       	mov	r17, r24
     baa:	81 11       	cpse	r24, r1
     bac:	46 c0       	rjmp	.+140    	; 0xc3a <put_fat+0x210>
     bae:	ef e0       	ldi	r30, 0x0F	; 15
     bb0:	7e 22       	and	r7, r30
     bb2:	ce 01       	movw	r24, r28
     bb4:	8f 96       	adiw	r24, 0x2f	; 47
     bb6:	cc 0c       	add	r12, r12
     bb8:	dd 1c       	adc	r13, r13
     bba:	cc 0c       	add	r12, r12
     bbc:	dd 1c       	adc	r13, r13
     bbe:	fc ef       	ldi	r31, 0xFC	; 252
     bc0:	cf 22       	and	r12, r31
     bc2:	f1 e0       	ldi	r31, 0x01	; 1
     bc4:	df 22       	and	r13, r31
     bc6:	c8 0e       	add	r12, r24
     bc8:	d9 1e       	adc	r13, r25
     bca:	c6 01       	movw	r24, r12
     bcc:	19 dd       	rcall	.-1486   	; 0x600 <ld_dword>
     bce:	dc 01       	movw	r26, r24
     bd0:	cb 01       	movw	r24, r22
     bd2:	88 27       	eor	r24, r24
     bd4:	99 27       	eor	r25, r25
     bd6:	aa 27       	eor	r26, r26
     bd8:	b0 7f       	andi	r27, 0xF0	; 240
     bda:	48 2a       	or	r4, r24
     bdc:	59 2a       	or	r5, r25
     bde:	6a 2a       	or	r6, r26
     be0:	7b 2a       	or	r7, r27
     be2:	f6 01       	movw	r30, r12
     be4:	40 82       	st	Z, r4
     be6:	51 82       	std	Z+1, r5	; 0x01
     be8:	62 82       	std	Z+2, r6	; 0x02
     bea:	73 82       	std	Z+3, r7	; 0x03
     bec:	81 e0       	ldi	r24, 0x01	; 1
     bee:	8b 83       	std	Y+3, r24	; 0x03
     bf0:	24 c0       	rjmp	.+72     	; 0xc3a <put_fat+0x210>
     bf2:	12 e0       	ldi	r17, 0x02	; 2
     bf4:	22 c0       	rjmp	.+68     	; 0xc3a <put_fat+0x210>
     bf6:	12 e0       	ldi	r17, 0x02	; 2
     bf8:	20 c0       	rjmp	.+64     	; 0xc3a <put_fat+0x210>
     bfa:	12 e0       	ldi	r17, 0x02	; 2
     bfc:	1e c0       	rjmp	.+60     	; 0xc3a <put_fat+0x210>
     bfe:	18 2f       	mov	r17, r24
     c00:	1c c0       	rjmp	.+56     	; 0xc3a <put_fat+0x210>
     c02:	18 2f       	mov	r17, r24
     c04:	1a c0       	rjmp	.+52     	; 0xc3a <put_fat+0x210>
     c06:	f1 e0       	ldi	r31, 0x01	; 1
     c08:	9f 22       	and	r9, r31
     c0a:	f1 01       	movw	r30, r2
     c0c:	e8 0d       	add	r30, r8
     c0e:	f9 1d       	adc	r31, r9
     c10:	68 94       	set
     c12:	13 f8       	bld	r1, 3
     c14:	76 94       	lsr	r7
     c16:	67 94       	ror	r6
     c18:	57 94       	ror	r5
     c1a:	47 94       	ror	r4
     c1c:	16 94       	lsr	r1
     c1e:	d1 f7       	brne	.-12     	; 0xc14 <put_fat+0x1ea>
     c20:	8d cf       	rjmp	.-230    	; 0xb3c <put_fat+0x112>
     c22:	21 e0       	ldi	r18, 0x01	; 1
     c24:	92 22       	and	r9, r18
     c26:	f1 01       	movw	r30, r2
     c28:	e8 0d       	add	r30, r8
     c2a:	f9 1d       	adc	r31, r9
     c2c:	90 81       	ld	r25, Z
     c2e:	90 7f       	andi	r25, 0xF0	; 240
     c30:	85 2d       	mov	r24, r5
     c32:	8f 70       	andi	r24, 0x0F	; 15
     c34:	49 2e       	mov	r4, r25
     c36:	48 2a       	or	r4, r24
     c38:	81 cf       	rjmp	.-254    	; 0xb3c <put_fat+0x112>
     c3a:	81 2f       	mov	r24, r17
     c3c:	df 91       	pop	r29
     c3e:	cf 91       	pop	r28
     c40:	1f 91       	pop	r17
     c42:	0f 91       	pop	r16
     c44:	ff 90       	pop	r15
     c46:	ef 90       	pop	r14
     c48:	df 90       	pop	r13
     c4a:	cf 90       	pop	r12
     c4c:	bf 90       	pop	r11
     c4e:	af 90       	pop	r10
     c50:	9f 90       	pop	r9
     c52:	8f 90       	pop	r8
     c54:	7f 90       	pop	r7
     c56:	6f 90       	pop	r6
     c58:	5f 90       	pop	r5
     c5a:	4f 90       	pop	r4
     c5c:	3f 90       	pop	r3
     c5e:	2f 90       	pop	r2
     c60:	08 95       	ret

00000c62 <st_clust>:
     c62:	fb 01       	movw	r30, r22
     c64:	22 8f       	std	Z+26, r18	; 0x1a
     c66:	33 8f       	std	Z+27, r19	; 0x1b
     c68:	dc 01       	movw	r26, r24
     c6a:	8c 91       	ld	r24, X
     c6c:	83 30       	cpi	r24, 0x03	; 3
     c6e:	29 f4       	brne	.+10     	; 0xc7a <st_clust+0x18>
     c70:	ca 01       	movw	r24, r20
     c72:	aa 27       	eor	r26, r26
     c74:	bb 27       	eor	r27, r27
     c76:	84 8b       	std	Z+20, r24	; 0x14
     c78:	95 8b       	std	Z+21, r25	; 0x15
     c7a:	08 95       	ret

00000c7c <get_fat>:
     c7c:	af 92       	push	r10
     c7e:	bf 92       	push	r11
     c80:	cf 92       	push	r12
     c82:	df 92       	push	r13
     c84:	ef 92       	push	r14
     c86:	ff 92       	push	r15
     c88:	0f 93       	push	r16
     c8a:	1f 93       	push	r17
     c8c:	cf 93       	push	r28
     c8e:	df 93       	push	r29
     c90:	42 30       	cpi	r20, 0x02	; 2
     c92:	51 05       	cpc	r21, r1
     c94:	61 05       	cpc	r22, r1
     c96:	71 05       	cpc	r23, r1
     c98:	08 f4       	brcc	.+2      	; 0xc9c <get_fat+0x20>
     c9a:	a1 c0       	rjmp	.+322    	; 0xdde <get_fat+0x162>
     c9c:	fc 01       	movw	r30, r24
     c9e:	c0 81       	ld	r28, Z
     ca0:	d1 81       	ldd	r29, Z+1	; 0x01
     ca2:	8b 89       	ldd	r24, Y+19	; 0x13
     ca4:	9c 89       	ldd	r25, Y+20	; 0x14
     ca6:	ad 89       	ldd	r26, Y+21	; 0x15
     ca8:	be 89       	ldd	r27, Y+22	; 0x16
     caa:	48 17       	cp	r20, r24
     cac:	59 07       	cpc	r21, r25
     cae:	6a 07       	cpc	r22, r26
     cb0:	7b 07       	cpc	r23, r27
     cb2:	08 f0       	brcs	.+2      	; 0xcb6 <get_fat+0x3a>
     cb4:	99 c0       	rjmp	.+306    	; 0xde8 <get_fat+0x16c>
     cb6:	6a 01       	movw	r12, r20
     cb8:	7b 01       	movw	r14, r22
     cba:	88 81       	ld	r24, Y
     cbc:	82 30       	cpi	r24, 0x02	; 2
     cbe:	09 f4       	brne	.+2      	; 0xcc2 <get_fat+0x46>
     cc0:	4b c0       	rjmp	.+150    	; 0xd58 <get_fat+0xdc>
     cc2:	83 30       	cpi	r24, 0x03	; 3
     cc4:	09 f4       	brne	.+2      	; 0xcc8 <get_fat+0x4c>
     cc6:	69 c0       	rjmp	.+210    	; 0xd9a <get_fat+0x11e>
     cc8:	81 30       	cpi	r24, 0x01	; 1
     cca:	09 f0       	breq	.+2      	; 0xcce <get_fat+0x52>
     ccc:	92 c0       	rjmp	.+292    	; 0xdf2 <get_fat+0x176>
     cce:	8a 01       	movw	r16, r20
     cd0:	16 95       	lsr	r17
     cd2:	07 95       	ror	r16
     cd4:	04 0f       	add	r16, r20
     cd6:	15 1f       	adc	r17, r21
     cd8:	c8 01       	movw	r24, r16
     cda:	89 2f       	mov	r24, r25
     cdc:	99 27       	eor	r25, r25
     cde:	86 95       	lsr	r24
     ce0:	4f 8d       	ldd	r20, Y+31	; 0x1f
     ce2:	58 a1       	ldd	r21, Y+32	; 0x20
     ce4:	69 a1       	ldd	r22, Y+33	; 0x21
     ce6:	7a a1       	ldd	r23, Y+34	; 0x22
     ce8:	48 0f       	add	r20, r24
     cea:	59 1f       	adc	r21, r25
     cec:	61 1d       	adc	r22, r1
     cee:	71 1d       	adc	r23, r1
     cf0:	ce 01       	movw	r24, r28
     cf2:	91 dd       	rcall	.-1246   	; 0x816 <move_window>
     cf4:	81 11       	cpse	r24, r1
     cf6:	82 c0       	rjmp	.+260    	; 0xdfc <get_fat+0x180>
     cf8:	58 01       	movw	r10, r16
     cfa:	ff ef       	ldi	r31, 0xFF	; 255
     cfc:	af 1a       	sub	r10, r31
     cfe:	bf 0a       	sbc	r11, r31
     d00:	11 70       	andi	r17, 0x01	; 1
     d02:	fe 01       	movw	r30, r28
     d04:	e0 0f       	add	r30, r16
     d06:	f1 1f       	adc	r31, r17
     d08:	17 a5       	ldd	r17, Z+47	; 0x2f
     d0a:	c5 01       	movw	r24, r10
     d0c:	89 2f       	mov	r24, r25
     d0e:	99 27       	eor	r25, r25
     d10:	86 95       	lsr	r24
     d12:	4f 8d       	ldd	r20, Y+31	; 0x1f
     d14:	58 a1       	ldd	r21, Y+32	; 0x20
     d16:	69 a1       	ldd	r22, Y+33	; 0x21
     d18:	7a a1       	ldd	r23, Y+34	; 0x22
     d1a:	48 0f       	add	r20, r24
     d1c:	59 1f       	adc	r21, r25
     d1e:	61 1d       	adc	r22, r1
     d20:	71 1d       	adc	r23, r1
     d22:	ce 01       	movw	r24, r28
     d24:	78 dd       	rcall	.-1296   	; 0x816 <move_window>
     d26:	81 11       	cpse	r24, r1
     d28:	6d c0       	rjmp	.+218    	; 0xe04 <get_fat+0x188>
     d2a:	81 e0       	ldi	r24, 0x01	; 1
     d2c:	b8 22       	and	r11, r24
     d2e:	ca 0d       	add	r28, r10
     d30:	db 1d       	adc	r29, r11
     d32:	8f a5       	ldd	r24, Y+47	; 0x2f
     d34:	61 2f       	mov	r22, r17
     d36:	70 e0       	ldi	r23, 0x00	; 0
     d38:	78 2b       	or	r23, r24
     d3a:	c0 fe       	sbrs	r12, 0
     d3c:	09 c0       	rjmp	.+18     	; 0xd50 <get_fat+0xd4>
     d3e:	72 95       	swap	r23
     d40:	62 95       	swap	r22
     d42:	6f 70       	andi	r22, 0x0F	; 15
     d44:	67 27       	eor	r22, r23
     d46:	7f 70       	andi	r23, 0x0F	; 15
     d48:	67 27       	eor	r22, r23
     d4a:	80 e0       	ldi	r24, 0x00	; 0
     d4c:	90 e0       	ldi	r25, 0x00	; 0
     d4e:	65 c0       	rjmp	.+202    	; 0xe1a <get_fat+0x19e>
     d50:	7f 70       	andi	r23, 0x0F	; 15
     d52:	80 e0       	ldi	r24, 0x00	; 0
     d54:	90 e0       	ldi	r25, 0x00	; 0
     d56:	61 c0       	rjmp	.+194    	; 0xe1a <get_fat+0x19e>
     d58:	45 2f       	mov	r20, r21
     d5a:	56 2f       	mov	r21, r22
     d5c:	67 2f       	mov	r22, r23
     d5e:	77 27       	eor	r23, r23
     d60:	8f 8d       	ldd	r24, Y+31	; 0x1f
     d62:	98 a1       	ldd	r25, Y+32	; 0x20
     d64:	a9 a1       	ldd	r26, Y+33	; 0x21
     d66:	ba a1       	ldd	r27, Y+34	; 0x22
     d68:	48 0f       	add	r20, r24
     d6a:	59 1f       	adc	r21, r25
     d6c:	6a 1f       	adc	r22, r26
     d6e:	7b 1f       	adc	r23, r27
     d70:	ce 01       	movw	r24, r28
     d72:	51 dd       	rcall	.-1374   	; 0x816 <move_window>
     d74:	81 11       	cpse	r24, r1
     d76:	4a c0       	rjmp	.+148    	; 0xe0c <get_fat+0x190>
     d78:	af 96       	adiw	r28, 0x2f	; 47
     d7a:	a6 01       	movw	r20, r12
     d7c:	44 0f       	add	r20, r20
     d7e:	55 1f       	adc	r21, r21
     d80:	4e 7f       	andi	r20, 0xFE	; 254
     d82:	51 70       	andi	r21, 0x01	; 1
     d84:	c4 0f       	add	r28, r20
     d86:	d5 1f       	adc	r29, r21
     d88:	69 81       	ldd	r22, Y+1	; 0x01
     d8a:	70 e0       	ldi	r23, 0x00	; 0
     d8c:	76 2f       	mov	r23, r22
     d8e:	66 27       	eor	r22, r22
     d90:	88 81       	ld	r24, Y
     d92:	68 2b       	or	r22, r24
     d94:	80 e0       	ldi	r24, 0x00	; 0
     d96:	90 e0       	ldi	r25, 0x00	; 0
     d98:	40 c0       	rjmp	.+128    	; 0xe1a <get_fat+0x19e>
     d9a:	8f 8d       	ldd	r24, Y+31	; 0x1f
     d9c:	98 a1       	ldd	r25, Y+32	; 0x20
     d9e:	a9 a1       	ldd	r26, Y+33	; 0x21
     da0:	ba a1       	ldd	r27, Y+34	; 0x22
     da2:	68 94       	set
     da4:	16 f8       	bld	r1, 6
     da6:	76 95       	lsr	r23
     da8:	67 95       	ror	r22
     daa:	57 95       	ror	r21
     dac:	47 95       	ror	r20
     dae:	16 94       	lsr	r1
     db0:	d1 f7       	brne	.-12     	; 0xda6 <get_fat+0x12a>
     db2:	48 0f       	add	r20, r24
     db4:	59 1f       	adc	r21, r25
     db6:	6a 1f       	adc	r22, r26
     db8:	7b 1f       	adc	r23, r27
     dba:	ce 01       	movw	r24, r28
     dbc:	2c dd       	rcall	.-1448   	; 0x816 <move_window>
     dbe:	81 11       	cpse	r24, r1
     dc0:	29 c0       	rjmp	.+82     	; 0xe14 <get_fat+0x198>
     dc2:	af 96       	adiw	r28, 0x2f	; 47
     dc4:	a6 01       	movw	r20, r12
     dc6:	44 0f       	add	r20, r20
     dc8:	55 1f       	adc	r21, r21
     dca:	44 0f       	add	r20, r20
     dcc:	55 1f       	adc	r21, r21
     dce:	ca 01       	movw	r24, r20
     dd0:	8c 7f       	andi	r24, 0xFC	; 252
     dd2:	91 70       	andi	r25, 0x01	; 1
     dd4:	8c 0f       	add	r24, r28
     dd6:	9d 1f       	adc	r25, r29
     dd8:	13 dc       	rcall	.-2010   	; 0x600 <ld_dword>
     dda:	9f 70       	andi	r25, 0x0F	; 15
     ddc:	1e c0       	rjmp	.+60     	; 0xe1a <get_fat+0x19e>
     dde:	61 e0       	ldi	r22, 0x01	; 1
     de0:	70 e0       	ldi	r23, 0x00	; 0
     de2:	80 e0       	ldi	r24, 0x00	; 0
     de4:	90 e0       	ldi	r25, 0x00	; 0
     de6:	19 c0       	rjmp	.+50     	; 0xe1a <get_fat+0x19e>
     de8:	61 e0       	ldi	r22, 0x01	; 1
     dea:	70 e0       	ldi	r23, 0x00	; 0
     dec:	80 e0       	ldi	r24, 0x00	; 0
     dee:	90 e0       	ldi	r25, 0x00	; 0
     df0:	14 c0       	rjmp	.+40     	; 0xe1a <get_fat+0x19e>
     df2:	61 e0       	ldi	r22, 0x01	; 1
     df4:	70 e0       	ldi	r23, 0x00	; 0
     df6:	80 e0       	ldi	r24, 0x00	; 0
     df8:	90 e0       	ldi	r25, 0x00	; 0
     dfa:	0f c0       	rjmp	.+30     	; 0xe1a <get_fat+0x19e>
     dfc:	6f ef       	ldi	r22, 0xFF	; 255
     dfe:	7f ef       	ldi	r23, 0xFF	; 255
     e00:	cb 01       	movw	r24, r22
     e02:	0b c0       	rjmp	.+22     	; 0xe1a <get_fat+0x19e>
     e04:	6f ef       	ldi	r22, 0xFF	; 255
     e06:	7f ef       	ldi	r23, 0xFF	; 255
     e08:	cb 01       	movw	r24, r22
     e0a:	07 c0       	rjmp	.+14     	; 0xe1a <get_fat+0x19e>
     e0c:	6f ef       	ldi	r22, 0xFF	; 255
     e0e:	7f ef       	ldi	r23, 0xFF	; 255
     e10:	cb 01       	movw	r24, r22
     e12:	03 c0       	rjmp	.+6      	; 0xe1a <get_fat+0x19e>
     e14:	6f ef       	ldi	r22, 0xFF	; 255
     e16:	7f ef       	ldi	r23, 0xFF	; 255
     e18:	cb 01       	movw	r24, r22
     e1a:	df 91       	pop	r29
     e1c:	cf 91       	pop	r28
     e1e:	1f 91       	pop	r17
     e20:	0f 91       	pop	r16
     e22:	ff 90       	pop	r15
     e24:	ef 90       	pop	r14
     e26:	df 90       	pop	r13
     e28:	cf 90       	pop	r12
     e2a:	bf 90       	pop	r11
     e2c:	af 90       	pop	r10
     e2e:	08 95       	ret

00000e30 <dir_sdi>:
     e30:	4f 92       	push	r4
     e32:	5f 92       	push	r5
     e34:	6f 92       	push	r6
     e36:	7f 92       	push	r7
     e38:	8f 92       	push	r8
     e3a:	9f 92       	push	r9
     e3c:	af 92       	push	r10
     e3e:	bf 92       	push	r11
     e40:	cf 92       	push	r12
     e42:	df 92       	push	r13
     e44:	ef 92       	push	r14
     e46:	ff 92       	push	r15
     e48:	0f 93       	push	r16
     e4a:	1f 93       	push	r17
     e4c:	cf 93       	push	r28
     e4e:	df 93       	push	r29
     e50:	ec 01       	movw	r28, r24
     e52:	6a 01       	movw	r12, r20
     e54:	7b 01       	movw	r14, r22
     e56:	41 15       	cp	r20, r1
     e58:	51 05       	cpc	r21, r1
     e5a:	80 e2       	ldi	r24, 0x20	; 32
     e5c:	68 07       	cpc	r22, r24
     e5e:	71 05       	cpc	r23, r1
     e60:	08 f0       	brcs	.+2      	; 0xe64 <dir_sdi+0x34>
     e62:	b1 c0       	rjmp	.+354    	; 0xfc6 <dir_sdi+0x196>
     e64:	db 01       	movw	r26, r22
     e66:	ca 01       	movw	r24, r20
     e68:	8f 71       	andi	r24, 0x1F	; 31
     e6a:	99 27       	eor	r25, r25
     e6c:	aa 27       	eor	r26, r26
     e6e:	bb 27       	eor	r27, r27
     e70:	89 2b       	or	r24, r25
     e72:	8a 2b       	or	r24, r26
     e74:	8b 2b       	or	r24, r27
     e76:	09 f0       	breq	.+2      	; 0xe7a <dir_sdi+0x4a>
     e78:	a8 c0       	rjmp	.+336    	; 0xfca <dir_sdi+0x19a>
     e7a:	08 81       	ld	r16, Y
     e7c:	19 81       	ldd	r17, Y+1	; 0x01
     e7e:	4e 87       	std	Y+14, r20	; 0x0e
     e80:	5f 87       	std	Y+15, r21	; 0x0f
     e82:	68 8b       	std	Y+16, r22	; 0x10
     e84:	79 8b       	std	Y+17, r23	; 0x11
     e86:	8e 80       	ldd	r8, Y+6	; 0x06
     e88:	9f 80       	ldd	r9, Y+7	; 0x07
     e8a:	a8 84       	ldd	r10, Y+8	; 0x08
     e8c:	b9 84       	ldd	r11, Y+9	; 0x09
     e8e:	81 14       	cp	r8, r1
     e90:	91 04       	cpc	r9, r1
     e92:	a1 04       	cpc	r10, r1
     e94:	b1 04       	cpc	r11, r1
     e96:	61 f5       	brne	.+88     	; 0xef0 <dir_sdi+0xc0>
     e98:	f8 01       	movw	r30, r16
     e9a:	80 81       	ld	r24, Z
     e9c:	83 30       	cpi	r24, 0x03	; 3
     e9e:	40 f0       	brcs	.+16     	; 0xeb0 <dir_sdi+0x80>
     ea0:	83 a1       	ldd	r24, Z+35	; 0x23
     ea2:	94 a1       	ldd	r25, Z+36	; 0x24
     ea4:	a5 a1       	ldd	r26, Z+37	; 0x25
     ea6:	b6 a1       	ldd	r27, Z+38	; 0x26
     ea8:	00 97       	sbiw	r24, 0x00	; 0
     eaa:	a1 05       	cpc	r26, r1
     eac:	b1 05       	cpc	r27, r1
     eae:	f1 f4       	brne	.+60     	; 0xeec <dir_sdi+0xbc>
     eb0:	f8 01       	movw	r30, r16
     eb2:	87 81       	ldd	r24, Z+7	; 0x07
     eb4:	90 85       	ldd	r25, Z+8	; 0x08
     eb6:	a0 e0       	ldi	r26, 0x00	; 0
     eb8:	b0 e0       	ldi	r27, 0x00	; 0
     eba:	b7 01       	movw	r22, r14
     ebc:	a6 01       	movw	r20, r12
     ebe:	68 94       	set
     ec0:	14 f8       	bld	r1, 4
     ec2:	76 95       	lsr	r23
     ec4:	67 95       	ror	r22
     ec6:	57 95       	ror	r21
     ec8:	47 95       	ror	r20
     eca:	16 94       	lsr	r1
     ecc:	d1 f7       	brne	.-12     	; 0xec2 <dir_sdi+0x92>
     ece:	48 17       	cp	r20, r24
     ed0:	59 07       	cpc	r21, r25
     ed2:	6a 07       	cpc	r22, r26
     ed4:	7b 07       	cpc	r23, r27
     ed6:	08 f0       	brcs	.+2      	; 0xeda <dir_sdi+0xaa>
     ed8:	7a c0       	rjmp	.+244    	; 0xfce <dir_sdi+0x19e>
     eda:	83 a1       	ldd	r24, Z+35	; 0x23
     edc:	94 a1       	ldd	r25, Z+36	; 0x24
     ede:	a5 a1       	ldd	r26, Z+37	; 0x25
     ee0:	b6 a1       	ldd	r27, Z+38	; 0x26
     ee2:	8e 8b       	std	Y+22, r24	; 0x16
     ee4:	9f 8b       	std	Y+23, r25	; 0x17
     ee6:	a8 8f       	std	Y+24, r26	; 0x18
     ee8:	b9 8f       	std	Y+25, r27	; 0x19
     eea:	44 c0       	rjmp	.+136    	; 0xf74 <dir_sdi+0x144>
     eec:	4c 01       	movw	r8, r24
     eee:	5d 01       	movw	r10, r26
     ef0:	f8 01       	movw	r30, r16
     ef2:	41 84       	ldd	r4, Z+9	; 0x09
     ef4:	52 84       	ldd	r5, Z+10	; 0x0a
     ef6:	61 2c       	mov	r6, r1
     ef8:	71 2c       	mov	r7, r1
     efa:	03 2e       	mov	r0, r19
     efc:	39 e0       	ldi	r19, 0x09	; 9
     efe:	44 0c       	add	r4, r4
     f00:	55 1c       	adc	r5, r5
     f02:	66 1c       	adc	r6, r6
     f04:	77 1c       	adc	r7, r7
     f06:	3a 95       	dec	r19
     f08:	d1 f7       	brne	.-12     	; 0xefe <dir_sdi+0xce>
     f0a:	30 2d       	mov	r19, r0
     f0c:	c4 14       	cp	r12, r4
     f0e:	d5 04       	cpc	r13, r5
     f10:	e6 04       	cpc	r14, r6
     f12:	f7 04       	cpc	r15, r7
     f14:	38 f1       	brcs	.+78     	; 0xf64 <dir_sdi+0x134>
     f16:	b5 01       	movw	r22, r10
     f18:	a4 01       	movw	r20, r8
     f1a:	ce 01       	movw	r24, r28
     f1c:	af de       	rcall	.-674    	; 0xc7c <get_fat>
     f1e:	4b 01       	movw	r8, r22
     f20:	5c 01       	movw	r10, r24
     f22:	6f 3f       	cpi	r22, 0xFF	; 255
     f24:	7f 4f       	sbci	r23, 0xFF	; 255
     f26:	8f 4f       	sbci	r24, 0xFF	; 255
     f28:	9f 4f       	sbci	r25, 0xFF	; 255
     f2a:	09 f4       	brne	.+2      	; 0xf2e <dir_sdi+0xfe>
     f2c:	52 c0       	rjmp	.+164    	; 0xfd2 <dir_sdi+0x1a2>
     f2e:	82 e0       	ldi	r24, 0x02	; 2
     f30:	88 16       	cp	r8, r24
     f32:	91 04       	cpc	r9, r1
     f34:	a1 04       	cpc	r10, r1
     f36:	b1 04       	cpc	r11, r1
     f38:	08 f4       	brcc	.+2      	; 0xf3c <dir_sdi+0x10c>
     f3a:	4d c0       	rjmp	.+154    	; 0xfd6 <dir_sdi+0x1a6>
     f3c:	f8 01       	movw	r30, r16
     f3e:	83 89       	ldd	r24, Z+19	; 0x13
     f40:	94 89       	ldd	r25, Z+20	; 0x14
     f42:	a5 89       	ldd	r26, Z+21	; 0x15
     f44:	b6 89       	ldd	r27, Z+22	; 0x16
     f46:	88 16       	cp	r8, r24
     f48:	99 06       	cpc	r9, r25
     f4a:	aa 06       	cpc	r10, r26
     f4c:	bb 06       	cpc	r11, r27
     f4e:	08 f0       	brcs	.+2      	; 0xf52 <dir_sdi+0x122>
     f50:	44 c0       	rjmp	.+136    	; 0xfda <dir_sdi+0x1aa>
     f52:	c4 18       	sub	r12, r4
     f54:	d5 08       	sbc	r13, r5
     f56:	e6 08       	sbc	r14, r6
     f58:	f7 08       	sbc	r15, r7
     f5a:	c4 14       	cp	r12, r4
     f5c:	d5 04       	cpc	r13, r5
     f5e:	e6 04       	cpc	r14, r6
     f60:	f7 04       	cpc	r15, r7
     f62:	c8 f6       	brcc	.-78     	; 0xf16 <dir_sdi+0xe6>
     f64:	b5 01       	movw	r22, r10
     f66:	a4 01       	movw	r20, r8
     f68:	c8 01       	movw	r24, r16
     f6a:	73 db       	rcall	.-2330   	; 0x652 <clst2sect>
     f6c:	6e 8b       	std	Y+22, r22	; 0x16
     f6e:	7f 8b       	std	Y+23, r23	; 0x17
     f70:	88 8f       	std	Y+24, r24	; 0x18
     f72:	99 8f       	std	Y+25, r25	; 0x19
     f74:	8a 8a       	std	Y+18, r8	; 0x12
     f76:	9b 8a       	std	Y+19, r9	; 0x13
     f78:	ac 8a       	std	Y+20, r10	; 0x14
     f7a:	bd 8a       	std	Y+21, r11	; 0x15
     f7c:	8e 89       	ldd	r24, Y+22	; 0x16
     f7e:	9f 89       	ldd	r25, Y+23	; 0x17
     f80:	a8 8d       	ldd	r26, Y+24	; 0x18
     f82:	b9 8d       	ldd	r27, Y+25	; 0x19
     f84:	00 97       	sbiw	r24, 0x00	; 0
     f86:	a1 05       	cpc	r26, r1
     f88:	b1 05       	cpc	r27, r1
     f8a:	49 f1       	breq	.+82     	; 0xfde <dir_sdi+0x1ae>
     f8c:	b7 01       	movw	r22, r14
     f8e:	a6 01       	movw	r20, r12
     f90:	03 2e       	mov	r0, r19
     f92:	39 e0       	ldi	r19, 0x09	; 9
     f94:	76 95       	lsr	r23
     f96:	67 95       	ror	r22
     f98:	57 95       	ror	r21
     f9a:	47 95       	ror	r20
     f9c:	3a 95       	dec	r19
     f9e:	d1 f7       	brne	.-12     	; 0xf94 <dir_sdi+0x164>
     fa0:	30 2d       	mov	r19, r0
     fa2:	84 0f       	add	r24, r20
     fa4:	95 1f       	adc	r25, r21
     fa6:	a6 1f       	adc	r26, r22
     fa8:	b7 1f       	adc	r27, r23
     faa:	8e 8b       	std	Y+22, r24	; 0x16
     fac:	9f 8b       	std	Y+23, r25	; 0x17
     fae:	a8 8f       	std	Y+24, r26	; 0x18
     fb0:	b9 8f       	std	Y+25, r27	; 0x19
     fb2:	01 5d       	subi	r16, 0xD1	; 209
     fb4:	1f 4f       	sbci	r17, 0xFF	; 255
     fb6:	f1 e0       	ldi	r31, 0x01	; 1
     fb8:	df 22       	and	r13, r31
     fba:	c0 0e       	add	r12, r16
     fbc:	d1 1e       	adc	r13, r17
     fbe:	db 8e       	std	Y+27, r13	; 0x1b
     fc0:	ca 8e       	std	Y+26, r12	; 0x1a
     fc2:	80 e0       	ldi	r24, 0x00	; 0
     fc4:	0d c0       	rjmp	.+26     	; 0xfe0 <dir_sdi+0x1b0>
     fc6:	82 e0       	ldi	r24, 0x02	; 2
     fc8:	0b c0       	rjmp	.+22     	; 0xfe0 <dir_sdi+0x1b0>
     fca:	82 e0       	ldi	r24, 0x02	; 2
     fcc:	09 c0       	rjmp	.+18     	; 0xfe0 <dir_sdi+0x1b0>
     fce:	82 e0       	ldi	r24, 0x02	; 2
     fd0:	07 c0       	rjmp	.+14     	; 0xfe0 <dir_sdi+0x1b0>
     fd2:	81 e0       	ldi	r24, 0x01	; 1
     fd4:	05 c0       	rjmp	.+10     	; 0xfe0 <dir_sdi+0x1b0>
     fd6:	82 e0       	ldi	r24, 0x02	; 2
     fd8:	03 c0       	rjmp	.+6      	; 0xfe0 <dir_sdi+0x1b0>
     fda:	82 e0       	ldi	r24, 0x02	; 2
     fdc:	01 c0       	rjmp	.+2      	; 0xfe0 <dir_sdi+0x1b0>
     fde:	82 e0       	ldi	r24, 0x02	; 2
     fe0:	df 91       	pop	r29
     fe2:	cf 91       	pop	r28
     fe4:	1f 91       	pop	r17
     fe6:	0f 91       	pop	r16
     fe8:	ff 90       	pop	r15
     fea:	ef 90       	pop	r14
     fec:	df 90       	pop	r13
     fee:	cf 90       	pop	r12
     ff0:	bf 90       	pop	r11
     ff2:	af 90       	pop	r10
     ff4:	9f 90       	pop	r9
     ff6:	8f 90       	pop	r8
     ff8:	7f 90       	pop	r7
     ffa:	6f 90       	pop	r6
     ffc:	5f 90       	pop	r5
     ffe:	4f 90       	pop	r4
    1000:	08 95       	ret

00001002 <create_chain>:
    1002:	4f 92       	push	r4
    1004:	5f 92       	push	r5
    1006:	6f 92       	push	r6
    1008:	7f 92       	push	r7
    100a:	8f 92       	push	r8
    100c:	9f 92       	push	r9
    100e:	af 92       	push	r10
    1010:	bf 92       	push	r11
    1012:	cf 92       	push	r12
    1014:	df 92       	push	r13
    1016:	ef 92       	push	r14
    1018:	ff 92       	push	r15
    101a:	0f 93       	push	r16
    101c:	1f 93       	push	r17
    101e:	cf 93       	push	r28
    1020:	df 93       	push	r29
    1022:	8c 01       	movw	r16, r24
    1024:	2a 01       	movw	r4, r20
    1026:	3b 01       	movw	r6, r22
    1028:	fc 01       	movw	r30, r24
    102a:	c0 81       	ld	r28, Z
    102c:	d1 81       	ldd	r29, Z+1	; 0x01
    102e:	41 15       	cp	r20, r1
    1030:	51 05       	cpc	r21, r1
    1032:	61 05       	cpc	r22, r1
    1034:	71 05       	cpc	r23, r1
    1036:	c9 f4       	brne	.+50     	; 0x106a <create_chain+0x68>
    1038:	8b 84       	ldd	r8, Y+11	; 0x0b
    103a:	9c 84       	ldd	r9, Y+12	; 0x0c
    103c:	ad 84       	ldd	r10, Y+13	; 0x0d
    103e:	be 84       	ldd	r11, Y+14	; 0x0e
    1040:	81 14       	cp	r8, r1
    1042:	91 04       	cpc	r9, r1
    1044:	a1 04       	cpc	r10, r1
    1046:	b1 04       	cpc	r11, r1
    1048:	09 f4       	brne	.+2      	; 0x104c <create_chain+0x4a>
    104a:	1d c1       	rjmp	.+570    	; 0x1286 <create_chain+0x284>
    104c:	8b 89       	ldd	r24, Y+19	; 0x13
    104e:	9c 89       	ldd	r25, Y+20	; 0x14
    1050:	ad 89       	ldd	r26, Y+21	; 0x15
    1052:	be 89       	ldd	r27, Y+22	; 0x16
    1054:	88 16       	cp	r8, r24
    1056:	99 06       	cpc	r9, r25
    1058:	aa 06       	cpc	r10, r26
    105a:	bb 06       	cpc	r11, r27
    105c:	08 f4       	brcc	.+2      	; 0x1060 <create_chain+0x5e>
    105e:	17 c1       	rjmp	.+558    	; 0x128e <create_chain+0x28c>
    1060:	81 2c       	mov	r8, r1
    1062:	91 2c       	mov	r9, r1
    1064:	54 01       	movw	r10, r8
    1066:	83 94       	inc	r8
    1068:	12 c1       	rjmp	.+548    	; 0x128e <create_chain+0x28c>
    106a:	08 de       	rcall	.-1008   	; 0xc7c <get_fat>
    106c:	62 30       	cpi	r22, 0x02	; 2
    106e:	71 05       	cpc	r23, r1
    1070:	81 05       	cpc	r24, r1
    1072:	91 05       	cpc	r25, r1
    1074:	08 f4       	brcc	.+2      	; 0x1078 <create_chain+0x76>
    1076:	cf c0       	rjmp	.+414    	; 0x1216 <create_chain+0x214>
    1078:	6f 3f       	cpi	r22, 0xFF	; 255
    107a:	ff ef       	ldi	r31, 0xFF	; 255
    107c:	7f 07       	cpc	r23, r31
    107e:	8f 07       	cpc	r24, r31
    1080:	9f 07       	cpc	r25, r31
    1082:	09 f4       	brne	.+2      	; 0x1086 <create_chain+0x84>
    1084:	cd c0       	rjmp	.+410    	; 0x1220 <create_chain+0x21e>
    1086:	cb 88       	ldd	r12, Y+19	; 0x13
    1088:	dc 88       	ldd	r13, Y+20	; 0x14
    108a:	ed 88       	ldd	r14, Y+21	; 0x15
    108c:	fe 88       	ldd	r15, Y+22	; 0x16
    108e:	6c 15       	cp	r22, r12
    1090:	7d 05       	cpc	r23, r13
    1092:	8e 05       	cpc	r24, r14
    1094:	9f 05       	cpc	r25, r15
    1096:	08 f0       	brcs	.+2      	; 0x109a <create_chain+0x98>
    1098:	e5 c0       	rjmp	.+458    	; 0x1264 <create_chain+0x262>
    109a:	03 c1       	rjmp	.+518    	; 0x12a2 <create_chain+0x2a0>
    109c:	73 01       	movw	r14, r6
    109e:	62 01       	movw	r12, r4
    10a0:	2f ef       	ldi	r18, 0xFF	; 255
    10a2:	c2 1a       	sub	r12, r18
    10a4:	d2 0a       	sbc	r13, r18
    10a6:	e2 0a       	sbc	r14, r18
    10a8:	f2 0a       	sbc	r15, r18
    10aa:	8b 89       	ldd	r24, Y+19	; 0x13
    10ac:	9c 89       	ldd	r25, Y+20	; 0x14
    10ae:	ad 89       	ldd	r26, Y+21	; 0x15
    10b0:	be 89       	ldd	r27, Y+22	; 0x16
    10b2:	c8 16       	cp	r12, r24
    10b4:	d9 06       	cpc	r13, r25
    10b6:	ea 06       	cpc	r14, r26
    10b8:	fb 06       	cpc	r15, r27
    10ba:	28 f0       	brcs	.+10     	; 0x10c6 <create_chain+0xc4>
    10bc:	c1 2c       	mov	r12, r1
    10be:	d1 2c       	mov	r13, r1
    10c0:	76 01       	movw	r14, r12
    10c2:	68 94       	set
    10c4:	c1 f8       	bld	r12, 1
    10c6:	b7 01       	movw	r22, r14
    10c8:	a6 01       	movw	r20, r12
    10ca:	c8 01       	movw	r24, r16
    10cc:	d7 dd       	rcall	.-1106   	; 0xc7c <get_fat>
    10ce:	61 30       	cpi	r22, 0x01	; 1
    10d0:	71 05       	cpc	r23, r1
    10d2:	81 05       	cpc	r24, r1
    10d4:	91 05       	cpc	r25, r1
    10d6:	09 f4       	brne	.+2      	; 0x10da <create_chain+0xd8>
    10d8:	a7 c0       	rjmp	.+334    	; 0x1228 <create_chain+0x226>
    10da:	6f 3f       	cpi	r22, 0xFF	; 255
    10dc:	ef ef       	ldi	r30, 0xFF	; 255
    10de:	7e 07       	cpc	r23, r30
    10e0:	8e 07       	cpc	r24, r30
    10e2:	9e 07       	cpc	r25, r30
    10e4:	09 f4       	brne	.+2      	; 0x10e8 <create_chain+0xe6>
    10e6:	a5 c0       	rjmp	.+330    	; 0x1232 <create_chain+0x230>
    10e8:	67 2b       	or	r22, r23
    10ea:	68 2b       	or	r22, r24
    10ec:	69 2b       	or	r22, r25
    10ee:	b1 f0       	breq	.+44     	; 0x111c <create_chain+0x11a>
    10f0:	8b 84       	ldd	r8, Y+11	; 0x0b
    10f2:	9c 84       	ldd	r9, Y+12	; 0x0c
    10f4:	ad 84       	ldd	r10, Y+13	; 0x0d
    10f6:	be 84       	ldd	r11, Y+14	; 0x0e
    10f8:	f2 e0       	ldi	r31, 0x02	; 2
    10fa:	8f 16       	cp	r8, r31
    10fc:	91 04       	cpc	r9, r1
    10fe:	a1 04       	cpc	r10, r1
    1100:	b1 04       	cpc	r11, r1
    1102:	08 f4       	brcc	.+2      	; 0x1106 <create_chain+0x104>
    1104:	ba c0       	rjmp	.+372    	; 0x127a <create_chain+0x278>
    1106:	8b 89       	ldd	r24, Y+19	; 0x13
    1108:	9c 89       	ldd	r25, Y+20	; 0x14
    110a:	ad 89       	ldd	r26, Y+21	; 0x15
    110c:	be 89       	ldd	r27, Y+22	; 0x16
    110e:	88 16       	cp	r8, r24
    1110:	99 06       	cpc	r9, r25
    1112:	aa 06       	cpc	r10, r26
    1114:	bb 06       	cpc	r11, r27
    1116:	08 f0       	brcs	.+2      	; 0x111a <create_chain+0x118>
    1118:	b3 c0       	rjmp	.+358    	; 0x1280 <create_chain+0x27e>
    111a:	07 c0       	rjmp	.+14     	; 0x112a <create_chain+0x128>
    111c:	c1 14       	cp	r12, r1
    111e:	d1 04       	cpc	r13, r1
    1120:	e1 04       	cpc	r14, r1
    1122:	f1 04       	cpc	r15, r1
    1124:	c9 f5       	brne	.+114    	; 0x1198 <create_chain+0x196>
    1126:	53 01       	movw	r10, r6
    1128:	42 01       	movw	r8, r4
    112a:	75 01       	movw	r14, r10
    112c:	64 01       	movw	r12, r8
    112e:	2f ef       	ldi	r18, 0xFF	; 255
    1130:	c2 1a       	sub	r12, r18
    1132:	d2 0a       	sbc	r13, r18
    1134:	e2 0a       	sbc	r14, r18
    1136:	f2 0a       	sbc	r15, r18
    1138:	8b 89       	ldd	r24, Y+19	; 0x13
    113a:	9c 89       	ldd	r25, Y+20	; 0x14
    113c:	ad 89       	ldd	r26, Y+21	; 0x15
    113e:	be 89       	ldd	r27, Y+22	; 0x16
    1140:	c8 16       	cp	r12, r24
    1142:	d9 06       	cpc	r13, r25
    1144:	ea 06       	cpc	r14, r26
    1146:	fb 06       	cpc	r15, r27
    1148:	60 f0       	brcs	.+24     	; 0x1162 <create_chain+0x160>
    114a:	82 e0       	ldi	r24, 0x02	; 2
    114c:	88 16       	cp	r8, r24
    114e:	91 04       	cpc	r9, r1
    1150:	a1 04       	cpc	r10, r1
    1152:	b1 04       	cpc	r11, r1
    1154:	08 f4       	brcc	.+2      	; 0x1158 <create_chain+0x156>
    1156:	71 c0       	rjmp	.+226    	; 0x123a <create_chain+0x238>
    1158:	c1 2c       	mov	r12, r1
    115a:	d1 2c       	mov	r13, r1
    115c:	76 01       	movw	r14, r12
    115e:	68 94       	set
    1160:	c1 f8       	bld	r12, 1
    1162:	b7 01       	movw	r22, r14
    1164:	a6 01       	movw	r20, r12
    1166:	c8 01       	movw	r24, r16
    1168:	89 dd       	rcall	.-1262   	; 0xc7c <get_fat>
    116a:	61 15       	cp	r22, r1
    116c:	71 05       	cpc	r23, r1
    116e:	81 05       	cpc	r24, r1
    1170:	91 05       	cpc	r25, r1
    1172:	91 f0       	breq	.+36     	; 0x1198 <create_chain+0x196>
    1174:	61 30       	cpi	r22, 0x01	; 1
    1176:	71 05       	cpc	r23, r1
    1178:	81 05       	cpc	r24, r1
    117a:	91 05       	cpc	r25, r1
    117c:	09 f4       	brne	.+2      	; 0x1180 <create_chain+0x17e>
    117e:	61 c0       	rjmp	.+194    	; 0x1242 <create_chain+0x240>
    1180:	6f 3f       	cpi	r22, 0xFF	; 255
    1182:	7f 4f       	sbci	r23, 0xFF	; 255
    1184:	8f 4f       	sbci	r24, 0xFF	; 255
    1186:	9f 4f       	sbci	r25, 0xFF	; 255
    1188:	09 f4       	brne	.+2      	; 0x118c <create_chain+0x18a>
    118a:	60 c0       	rjmp	.+192    	; 0x124c <create_chain+0x24a>
    118c:	c8 14       	cp	r12, r8
    118e:	d9 04       	cpc	r13, r9
    1190:	ea 04       	cpc	r14, r10
    1192:	fb 04       	cpc	r15, r11
    1194:	61 f6       	brne	.-104    	; 0x112e <create_chain+0x12c>
    1196:	5e c0       	rjmp	.+188    	; 0x1254 <create_chain+0x252>
    1198:	0f ef       	ldi	r16, 0xFF	; 255
    119a:	1f ef       	ldi	r17, 0xFF	; 255
    119c:	98 01       	movw	r18, r16
    119e:	b7 01       	movw	r22, r14
    11a0:	a6 01       	movw	r20, r12
    11a2:	ce 01       	movw	r24, r28
    11a4:	42 dc       	rcall	.-1916   	; 0xa2a <put_fat>
    11a6:	81 11       	cpse	r24, r1
    11a8:	2f c0       	rjmp	.+94     	; 0x1208 <create_chain+0x206>
    11aa:	41 14       	cp	r4, r1
    11ac:	51 04       	cpc	r5, r1
    11ae:	61 04       	cpc	r6, r1
    11b0:	71 04       	cpc	r7, r1
    11b2:	41 f0       	breq	.+16     	; 0x11c4 <create_chain+0x1c2>
    11b4:	97 01       	movw	r18, r14
    11b6:	86 01       	movw	r16, r12
    11b8:	b3 01       	movw	r22, r6
    11ba:	a2 01       	movw	r20, r4
    11bc:	ce 01       	movw	r24, r28
    11be:	35 dc       	rcall	.-1942   	; 0xa2a <put_fat>
    11c0:	81 11       	cpse	r24, r1
    11c2:	22 c0       	rjmp	.+68     	; 0x1208 <create_chain+0x206>
    11c4:	cb 86       	std	Y+11, r12	; 0x0b
    11c6:	dc 86       	std	Y+12, r13	; 0x0c
    11c8:	ed 86       	std	Y+13, r14	; 0x0d
    11ca:	fe 86       	std	Y+14, r15	; 0x0e
    11cc:	4f 85       	ldd	r20, Y+15	; 0x0f
    11ce:	58 89       	ldd	r21, Y+16	; 0x10
    11d0:	69 89       	ldd	r22, Y+17	; 0x11
    11d2:	7a 89       	ldd	r23, Y+18	; 0x12
    11d4:	8b 89       	ldd	r24, Y+19	; 0x13
    11d6:	9c 89       	ldd	r25, Y+20	; 0x14
    11d8:	ad 89       	ldd	r26, Y+21	; 0x15
    11da:	be 89       	ldd	r27, Y+22	; 0x16
    11dc:	02 97       	sbiw	r24, 0x02	; 2
    11de:	a1 09       	sbc	r26, r1
    11e0:	b1 09       	sbc	r27, r1
    11e2:	84 17       	cp	r24, r20
    11e4:	95 07       	cpc	r25, r21
    11e6:	a6 07       	cpc	r26, r22
    11e8:	b7 07       	cpc	r27, r23
    11ea:	40 f0       	brcs	.+16     	; 0x11fc <create_chain+0x1fa>
    11ec:	41 50       	subi	r20, 0x01	; 1
    11ee:	51 09       	sbc	r21, r1
    11f0:	61 09       	sbc	r22, r1
    11f2:	71 09       	sbc	r23, r1
    11f4:	4f 87       	std	Y+15, r20	; 0x0f
    11f6:	58 8b       	std	Y+16, r21	; 0x10
    11f8:	69 8b       	std	Y+17, r22	; 0x11
    11fa:	7a 8b       	std	Y+18, r23	; 0x12
    11fc:	8c 81       	ldd	r24, Y+4	; 0x04
    11fe:	81 60       	ori	r24, 0x01	; 1
    1200:	8c 83       	std	Y+4, r24	; 0x04
    1202:	c7 01       	movw	r24, r14
    1204:	b6 01       	movw	r22, r12
    1206:	4d c0       	rjmp	.+154    	; 0x12a2 <create_chain+0x2a0>
    1208:	81 30       	cpi	r24, 0x01	; 1
    120a:	41 f1       	breq	.+80     	; 0x125c <create_chain+0x25a>
    120c:	61 e0       	ldi	r22, 0x01	; 1
    120e:	70 e0       	ldi	r23, 0x00	; 0
    1210:	80 e0       	ldi	r24, 0x00	; 0
    1212:	90 e0       	ldi	r25, 0x00	; 0
    1214:	46 c0       	rjmp	.+140    	; 0x12a2 <create_chain+0x2a0>
    1216:	61 e0       	ldi	r22, 0x01	; 1
    1218:	70 e0       	ldi	r23, 0x00	; 0
    121a:	80 e0       	ldi	r24, 0x00	; 0
    121c:	90 e0       	ldi	r25, 0x00	; 0
    121e:	41 c0       	rjmp	.+130    	; 0x12a2 <create_chain+0x2a0>
    1220:	6f ef       	ldi	r22, 0xFF	; 255
    1222:	7f ef       	ldi	r23, 0xFF	; 255
    1224:	cb 01       	movw	r24, r22
    1226:	3d c0       	rjmp	.+122    	; 0x12a2 <create_chain+0x2a0>
    1228:	61 e0       	ldi	r22, 0x01	; 1
    122a:	70 e0       	ldi	r23, 0x00	; 0
    122c:	80 e0       	ldi	r24, 0x00	; 0
    122e:	90 e0       	ldi	r25, 0x00	; 0
    1230:	38 c0       	rjmp	.+112    	; 0x12a2 <create_chain+0x2a0>
    1232:	6f ef       	ldi	r22, 0xFF	; 255
    1234:	7f ef       	ldi	r23, 0xFF	; 255
    1236:	cb 01       	movw	r24, r22
    1238:	34 c0       	rjmp	.+104    	; 0x12a2 <create_chain+0x2a0>
    123a:	60 e0       	ldi	r22, 0x00	; 0
    123c:	70 e0       	ldi	r23, 0x00	; 0
    123e:	cb 01       	movw	r24, r22
    1240:	30 c0       	rjmp	.+96     	; 0x12a2 <create_chain+0x2a0>
    1242:	61 e0       	ldi	r22, 0x01	; 1
    1244:	70 e0       	ldi	r23, 0x00	; 0
    1246:	80 e0       	ldi	r24, 0x00	; 0
    1248:	90 e0       	ldi	r25, 0x00	; 0
    124a:	2b c0       	rjmp	.+86     	; 0x12a2 <create_chain+0x2a0>
    124c:	6f ef       	ldi	r22, 0xFF	; 255
    124e:	7f ef       	ldi	r23, 0xFF	; 255
    1250:	cb 01       	movw	r24, r22
    1252:	27 c0       	rjmp	.+78     	; 0x12a2 <create_chain+0x2a0>
    1254:	60 e0       	ldi	r22, 0x00	; 0
    1256:	70 e0       	ldi	r23, 0x00	; 0
    1258:	cb 01       	movw	r24, r22
    125a:	23 c0       	rjmp	.+70     	; 0x12a2 <create_chain+0x2a0>
    125c:	6f ef       	ldi	r22, 0xFF	; 255
    125e:	7f ef       	ldi	r23, 0xFF	; 255
    1260:	cb 01       	movw	r24, r22
    1262:	1f c0       	rjmp	.+62     	; 0x12a2 <create_chain+0x2a0>
    1264:	6f 85       	ldd	r22, Y+15	; 0x0f
    1266:	78 89       	ldd	r23, Y+16	; 0x10
    1268:	89 89       	ldd	r24, Y+17	; 0x11
    126a:	9a 89       	ldd	r25, Y+18	; 0x12
    126c:	61 15       	cp	r22, r1
    126e:	71 05       	cpc	r23, r1
    1270:	81 05       	cpc	r24, r1
    1272:	91 05       	cpc	r25, r1
    1274:	09 f0       	breq	.+2      	; 0x1278 <create_chain+0x276>
    1276:	12 cf       	rjmp	.-476    	; 0x109c <create_chain+0x9a>
    1278:	14 c0       	rjmp	.+40     	; 0x12a2 <create_chain+0x2a0>
    127a:	53 01       	movw	r10, r6
    127c:	42 01       	movw	r8, r4
    127e:	55 cf       	rjmp	.-342    	; 0x112a <create_chain+0x128>
    1280:	53 01       	movw	r10, r6
    1282:	42 01       	movw	r8, r4
    1284:	52 cf       	rjmp	.-348    	; 0x112a <create_chain+0x128>
    1286:	81 2c       	mov	r8, r1
    1288:	91 2c       	mov	r9, r1
    128a:	54 01       	movw	r10, r8
    128c:	83 94       	inc	r8
    128e:	6f 85       	ldd	r22, Y+15	; 0x0f
    1290:	78 89       	ldd	r23, Y+16	; 0x10
    1292:	89 89       	ldd	r24, Y+17	; 0x11
    1294:	9a 89       	ldd	r25, Y+18	; 0x12
    1296:	61 15       	cp	r22, r1
    1298:	71 05       	cpc	r23, r1
    129a:	81 05       	cpc	r24, r1
    129c:	91 05       	cpc	r25, r1
    129e:	09 f0       	breq	.+2      	; 0x12a2 <create_chain+0x2a0>
    12a0:	44 cf       	rjmp	.-376    	; 0x112a <create_chain+0x128>
    12a2:	df 91       	pop	r29
    12a4:	cf 91       	pop	r28
    12a6:	1f 91       	pop	r17
    12a8:	0f 91       	pop	r16
    12aa:	ff 90       	pop	r15
    12ac:	ef 90       	pop	r14
    12ae:	df 90       	pop	r13
    12b0:	cf 90       	pop	r12
    12b2:	bf 90       	pop	r11
    12b4:	af 90       	pop	r10
    12b6:	9f 90       	pop	r9
    12b8:	8f 90       	pop	r8
    12ba:	7f 90       	pop	r7
    12bc:	6f 90       	pop	r6
    12be:	5f 90       	pop	r5
    12c0:	4f 90       	pop	r4
    12c2:	08 95       	ret

000012c4 <remove_chain>:
    12c4:	4f 92       	push	r4
    12c6:	5f 92       	push	r5
    12c8:	6f 92       	push	r6
    12ca:	7f 92       	push	r7
    12cc:	af 92       	push	r10
    12ce:	bf 92       	push	r11
    12d0:	cf 92       	push	r12
    12d2:	df 92       	push	r13
    12d4:	ef 92       	push	r14
    12d6:	ff 92       	push	r15
    12d8:	0f 93       	push	r16
    12da:	1f 93       	push	r17
    12dc:	cf 93       	push	r28
    12de:	df 93       	push	r29
    12e0:	5c 01       	movw	r10, r24
    12e2:	6a 01       	movw	r12, r20
    12e4:	7b 01       	movw	r14, r22
    12e6:	b9 01       	movw	r22, r18
    12e8:	a8 01       	movw	r20, r16
    12ea:	22 e0       	ldi	r18, 0x02	; 2
    12ec:	c2 16       	cp	r12, r18
    12ee:	d1 04       	cpc	r13, r1
    12f0:	e1 04       	cpc	r14, r1
    12f2:	f1 04       	cpc	r15, r1
    12f4:	08 f4       	brcc	.+2      	; 0x12f8 <remove_chain+0x34>
    12f6:	60 c0       	rjmp	.+192    	; 0x13b8 <remove_chain+0xf4>
    12f8:	fc 01       	movw	r30, r24
    12fa:	c0 81       	ld	r28, Z
    12fc:	d1 81       	ldd	r29, Z+1	; 0x01
    12fe:	8b 89       	ldd	r24, Y+19	; 0x13
    1300:	9c 89       	ldd	r25, Y+20	; 0x14
    1302:	ad 89       	ldd	r26, Y+21	; 0x15
    1304:	be 89       	ldd	r27, Y+22	; 0x16
    1306:	c8 16       	cp	r12, r24
    1308:	d9 06       	cpc	r13, r25
    130a:	ea 06       	cpc	r14, r26
    130c:	fb 06       	cpc	r15, r27
    130e:	08 f0       	brcs	.+2      	; 0x1312 <remove_chain+0x4e>
    1310:	55 c0       	rjmp	.+170    	; 0x13bc <remove_chain+0xf8>
    1312:	41 15       	cp	r20, r1
    1314:	51 05       	cpc	r21, r1
    1316:	61 05       	cpc	r22, r1
    1318:	71 05       	cpc	r23, r1
    131a:	39 f0       	breq	.+14     	; 0x132a <remove_chain+0x66>
    131c:	0f ef       	ldi	r16, 0xFF	; 255
    131e:	1f ef       	ldi	r17, 0xFF	; 255
    1320:	98 01       	movw	r18, r16
    1322:	ce 01       	movw	r24, r28
    1324:	82 db       	rcall	.-2300   	; 0xa2a <put_fat>
    1326:	81 11       	cpse	r24, r1
    1328:	50 c0       	rjmp	.+160    	; 0x13ca <remove_chain+0x106>
    132a:	b7 01       	movw	r22, r14
    132c:	a6 01       	movw	r20, r12
    132e:	c5 01       	movw	r24, r10
    1330:	a5 dc       	rcall	.-1718   	; 0xc7c <get_fat>
    1332:	2b 01       	movw	r4, r22
    1334:	3c 01       	movw	r6, r24
    1336:	61 15       	cp	r22, r1
    1338:	71 05       	cpc	r23, r1
    133a:	81 05       	cpc	r24, r1
    133c:	91 05       	cpc	r25, r1
    133e:	09 f4       	brne	.+2      	; 0x1342 <remove_chain+0x7e>
    1340:	3f c0       	rjmp	.+126    	; 0x13c0 <remove_chain+0xfc>
    1342:	61 30       	cpi	r22, 0x01	; 1
    1344:	71 05       	cpc	r23, r1
    1346:	81 05       	cpc	r24, r1
    1348:	91 05       	cpc	r25, r1
    134a:	e1 f1       	breq	.+120    	; 0x13c4 <remove_chain+0x100>
    134c:	6f 3f       	cpi	r22, 0xFF	; 255
    134e:	7f 4f       	sbci	r23, 0xFF	; 255
    1350:	8f 4f       	sbci	r24, 0xFF	; 255
    1352:	9f 4f       	sbci	r25, 0xFF	; 255
    1354:	c9 f1       	breq	.+114    	; 0x13c8 <remove_chain+0x104>
    1356:	00 e0       	ldi	r16, 0x00	; 0
    1358:	10 e0       	ldi	r17, 0x00	; 0
    135a:	98 01       	movw	r18, r16
    135c:	b7 01       	movw	r22, r14
    135e:	a6 01       	movw	r20, r12
    1360:	ce 01       	movw	r24, r28
    1362:	63 db       	rcall	.-2362   	; 0xa2a <put_fat>
    1364:	81 11       	cpse	r24, r1
    1366:	31 c0       	rjmp	.+98     	; 0x13ca <remove_chain+0x106>
    1368:	8f 85       	ldd	r24, Y+15	; 0x0f
    136a:	98 89       	ldd	r25, Y+16	; 0x10
    136c:	a9 89       	ldd	r26, Y+17	; 0x11
    136e:	ba 89       	ldd	r27, Y+18	; 0x12
    1370:	4b 89       	ldd	r20, Y+19	; 0x13
    1372:	5c 89       	ldd	r21, Y+20	; 0x14
    1374:	6d 89       	ldd	r22, Y+21	; 0x15
    1376:	7e 89       	ldd	r23, Y+22	; 0x16
    1378:	6a 01       	movw	r12, r20
    137a:	7b 01       	movw	r14, r22
    137c:	e2 e0       	ldi	r30, 0x02	; 2
    137e:	ce 1a       	sub	r12, r30
    1380:	d1 08       	sbc	r13, r1
    1382:	e1 08       	sbc	r14, r1
    1384:	f1 08       	sbc	r15, r1
    1386:	8c 15       	cp	r24, r12
    1388:	9d 05       	cpc	r25, r13
    138a:	ae 05       	cpc	r26, r14
    138c:	bf 05       	cpc	r27, r15
    138e:	50 f4       	brcc	.+20     	; 0x13a4 <remove_chain+0xe0>
    1390:	01 96       	adiw	r24, 0x01	; 1
    1392:	a1 1d       	adc	r26, r1
    1394:	b1 1d       	adc	r27, r1
    1396:	8f 87       	std	Y+15, r24	; 0x0f
    1398:	98 8b       	std	Y+16, r25	; 0x10
    139a:	a9 8b       	std	Y+17, r26	; 0x11
    139c:	ba 8b       	std	Y+18, r27	; 0x12
    139e:	8c 81       	ldd	r24, Y+4	; 0x04
    13a0:	81 60       	ori	r24, 0x01	; 1
    13a2:	8c 83       	std	Y+4, r24	; 0x04
    13a4:	73 01       	movw	r14, r6
    13a6:	62 01       	movw	r12, r4
    13a8:	44 16       	cp	r4, r20
    13aa:	55 06       	cpc	r5, r21
    13ac:	66 06       	cpc	r6, r22
    13ae:	77 06       	cpc	r7, r23
    13b0:	08 f4       	brcc	.+2      	; 0x13b4 <remove_chain+0xf0>
    13b2:	bb cf       	rjmp	.-138    	; 0x132a <remove_chain+0x66>
    13b4:	80 e0       	ldi	r24, 0x00	; 0
    13b6:	09 c0       	rjmp	.+18     	; 0x13ca <remove_chain+0x106>
    13b8:	82 e0       	ldi	r24, 0x02	; 2
    13ba:	07 c0       	rjmp	.+14     	; 0x13ca <remove_chain+0x106>
    13bc:	82 e0       	ldi	r24, 0x02	; 2
    13be:	05 c0       	rjmp	.+10     	; 0x13ca <remove_chain+0x106>
    13c0:	80 e0       	ldi	r24, 0x00	; 0
    13c2:	03 c0       	rjmp	.+6      	; 0x13ca <remove_chain+0x106>
    13c4:	82 e0       	ldi	r24, 0x02	; 2
    13c6:	01 c0       	rjmp	.+2      	; 0x13ca <remove_chain+0x106>
    13c8:	81 e0       	ldi	r24, 0x01	; 1
    13ca:	df 91       	pop	r29
    13cc:	cf 91       	pop	r28
    13ce:	1f 91       	pop	r17
    13d0:	0f 91       	pop	r16
    13d2:	ff 90       	pop	r15
    13d4:	ef 90       	pop	r14
    13d6:	df 90       	pop	r13
    13d8:	cf 90       	pop	r12
    13da:	bf 90       	pop	r11
    13dc:	af 90       	pop	r10
    13de:	7f 90       	pop	r7
    13e0:	6f 90       	pop	r6
    13e2:	5f 90       	pop	r5
    13e4:	4f 90       	pop	r4
    13e6:	08 95       	ret

000013e8 <dir_next>:
    13e8:	4f 92       	push	r4
    13ea:	5f 92       	push	r5
    13ec:	6f 92       	push	r6
    13ee:	7f 92       	push	r7
    13f0:	af 92       	push	r10
    13f2:	bf 92       	push	r11
    13f4:	cf 92       	push	r12
    13f6:	df 92       	push	r13
    13f8:	ef 92       	push	r14
    13fa:	ff 92       	push	r15
    13fc:	0f 93       	push	r16
    13fe:	1f 93       	push	r17
    1400:	cf 93       	push	r28
    1402:	df 93       	push	r29
    1404:	8b 01       	movw	r16, r22
    1406:	fc 01       	movw	r30, r24
    1408:	c6 84       	ldd	r12, Z+14	; 0x0e
    140a:	d7 84       	ldd	r13, Z+15	; 0x0f
    140c:	e0 88       	ldd	r14, Z+16	; 0x10
    140e:	f1 88       	ldd	r15, Z+17	; 0x11
    1410:	f0 e2       	ldi	r31, 0x20	; 32
    1412:	cf 0e       	add	r12, r31
    1414:	d1 1c       	adc	r13, r1
    1416:	e1 1c       	adc	r14, r1
    1418:	f1 1c       	adc	r15, r1
    141a:	c1 14       	cp	r12, r1
    141c:	d1 04       	cpc	r13, r1
    141e:	20 e2       	ldi	r18, 0x20	; 32
    1420:	e2 06       	cpc	r14, r18
    1422:	f1 04       	cpc	r15, r1
    1424:	38 f0       	brcs	.+14     	; 0x1434 <dir_next+0x4c>
    1426:	fc 01       	movw	r30, r24
    1428:	16 8a       	std	Z+22, r1	; 0x16
    142a:	17 8a       	std	Z+23, r1	; 0x17
    142c:	10 8e       	std	Z+24, r1	; 0x18
    142e:	11 8e       	std	Z+25, r1	; 0x19
    1430:	84 e0       	ldi	r24, 0x04	; 4
    1432:	c6 c0       	rjmp	.+396    	; 0x15c0 <dir_next+0x1d8>
    1434:	fc 01       	movw	r30, r24
    1436:	46 89       	ldd	r20, Z+22	; 0x16
    1438:	57 89       	ldd	r21, Z+23	; 0x17
    143a:	60 8d       	ldd	r22, Z+24	; 0x18
    143c:	71 8d       	ldd	r23, Z+25	; 0x19
    143e:	41 15       	cp	r20, r1
    1440:	51 05       	cpc	r21, r1
    1442:	61 05       	cpc	r22, r1
    1444:	71 05       	cpc	r23, r1
    1446:	09 f4       	brne	.+2      	; 0x144a <dir_next+0x62>
    1448:	ae c0       	rjmp	.+348    	; 0x15a6 <dir_next+0x1be>
    144a:	ec 01       	movw	r28, r24
    144c:	a0 80       	ld	r10, Z
    144e:	b1 80       	ldd	r11, Z+1	; 0x01
    1450:	d7 01       	movw	r26, r14
    1452:	c6 01       	movw	r24, r12
    1454:	91 70       	andi	r25, 0x01	; 1
    1456:	aa 27       	eor	r26, r26
    1458:	bb 27       	eor	r27, r27
    145a:	89 2b       	or	r24, r25
    145c:	8a 2b       	or	r24, r26
    145e:	8b 2b       	or	r24, r27
    1460:	09 f0       	breq	.+2      	; 0x1464 <dir_next+0x7c>
    1462:	92 c0       	rjmp	.+292    	; 0x1588 <dir_next+0x1a0>
    1464:	4f 5f       	subi	r20, 0xFF	; 255
    1466:	5f 4f       	sbci	r21, 0xFF	; 255
    1468:	6f 4f       	sbci	r22, 0xFF	; 255
    146a:	7f 4f       	sbci	r23, 0xFF	; 255
    146c:	46 8b       	std	Z+22, r20	; 0x16
    146e:	57 8b       	std	Z+23, r21	; 0x17
    1470:	60 8f       	std	Z+24, r22	; 0x18
    1472:	71 8f       	std	Z+25, r23	; 0x19
    1474:	42 89       	ldd	r20, Z+18	; 0x12
    1476:	53 89       	ldd	r21, Z+19	; 0x13
    1478:	64 89       	ldd	r22, Z+20	; 0x14
    147a:	75 89       	ldd	r23, Z+21	; 0x15
    147c:	41 15       	cp	r20, r1
    147e:	51 05       	cpc	r21, r1
    1480:	61 05       	cpc	r22, r1
    1482:	71 05       	cpc	r23, r1
    1484:	d9 f4       	brne	.+54     	; 0x14bc <dir_next+0xd4>
    1486:	f5 01       	movw	r30, r10
    1488:	87 81       	ldd	r24, Z+7	; 0x07
    148a:	90 85       	ldd	r25, Z+8	; 0x08
    148c:	a0 e0       	ldi	r26, 0x00	; 0
    148e:	b0 e0       	ldi	r27, 0x00	; 0
    1490:	b7 01       	movw	r22, r14
    1492:	a6 01       	movw	r20, r12
    1494:	68 94       	set
    1496:	14 f8       	bld	r1, 4
    1498:	76 95       	lsr	r23
    149a:	67 95       	ror	r22
    149c:	57 95       	ror	r21
    149e:	47 95       	ror	r20
    14a0:	16 94       	lsr	r1
    14a2:	d1 f7       	brne	.-12     	; 0x1498 <dir_next+0xb0>
    14a4:	48 17       	cp	r20, r24
    14a6:	59 07       	cpc	r21, r25
    14a8:	6a 07       	cpc	r22, r26
    14aa:	7b 07       	cpc	r23, r27
    14ac:	08 f4       	brcc	.+2      	; 0x14b0 <dir_next+0xc8>
    14ae:	6c c0       	rjmp	.+216    	; 0x1588 <dir_next+0x1a0>
    14b0:	1e 8a       	std	Y+22, r1	; 0x16
    14b2:	1f 8a       	std	Y+23, r1	; 0x17
    14b4:	18 8e       	std	Y+24, r1	; 0x18
    14b6:	19 8e       	std	Y+25, r1	; 0x19
    14b8:	84 e0       	ldi	r24, 0x04	; 4
    14ba:	82 c0       	rjmp	.+260    	; 0x15c0 <dir_next+0x1d8>
    14bc:	f5 01       	movw	r30, r10
    14be:	81 85       	ldd	r24, Z+9	; 0x09
    14c0:	92 85       	ldd	r25, Z+10	; 0x0a
    14c2:	01 97       	sbiw	r24, 0x01	; 1
    14c4:	a0 e0       	ldi	r26, 0x00	; 0
    14c6:	b0 e0       	ldi	r27, 0x00	; 0
    14c8:	26 01       	movw	r4, r12
    14ca:	37 01       	movw	r6, r14
    14cc:	03 2e       	mov	r0, r19
    14ce:	39 e0       	ldi	r19, 0x09	; 9
    14d0:	76 94       	lsr	r7
    14d2:	67 94       	ror	r6
    14d4:	57 94       	ror	r5
    14d6:	47 94       	ror	r4
    14d8:	3a 95       	dec	r19
    14da:	d1 f7       	brne	.-12     	; 0x14d0 <dir_next+0xe8>
    14dc:	30 2d       	mov	r19, r0
    14de:	84 21       	and	r24, r4
    14e0:	95 21       	and	r25, r5
    14e2:	a6 21       	and	r26, r6
    14e4:	b7 21       	and	r27, r7
    14e6:	89 2b       	or	r24, r25
    14e8:	8a 2b       	or	r24, r26
    14ea:	8b 2b       	or	r24, r27
    14ec:	09 f0       	breq	.+2      	; 0x14f0 <dir_next+0x108>
    14ee:	4c c0       	rjmp	.+152    	; 0x1588 <dir_next+0x1a0>
    14f0:	ce 01       	movw	r24, r28
    14f2:	c4 db       	rcall	.-2168   	; 0xc7c <get_fat>
    14f4:	2b 01       	movw	r4, r22
    14f6:	3c 01       	movw	r6, r24
    14f8:	62 30       	cpi	r22, 0x02	; 2
    14fa:	71 05       	cpc	r23, r1
    14fc:	81 05       	cpc	r24, r1
    14fe:	91 05       	cpc	r25, r1
    1500:	08 f4       	brcc	.+2      	; 0x1504 <dir_next+0x11c>
    1502:	53 c0       	rjmp	.+166    	; 0x15aa <dir_next+0x1c2>
    1504:	6f 3f       	cpi	r22, 0xFF	; 255
    1506:	7f 4f       	sbci	r23, 0xFF	; 255
    1508:	8f 4f       	sbci	r24, 0xFF	; 255
    150a:	9f 4f       	sbci	r25, 0xFF	; 255
    150c:	09 f4       	brne	.+2      	; 0x1510 <dir_next+0x128>
    150e:	4f c0       	rjmp	.+158    	; 0x15ae <dir_next+0x1c6>
    1510:	f5 01       	movw	r30, r10
    1512:	83 89       	ldd	r24, Z+19	; 0x13
    1514:	94 89       	ldd	r25, Z+20	; 0x14
    1516:	a5 89       	ldd	r26, Z+21	; 0x15
    1518:	b6 89       	ldd	r27, Z+22	; 0x16
    151a:	48 16       	cp	r4, r24
    151c:	59 06       	cpc	r5, r25
    151e:	6a 06       	cpc	r6, r26
    1520:	7b 06       	cpc	r7, r27
    1522:	30 f1       	brcs	.+76     	; 0x1570 <dir_next+0x188>
    1524:	01 2b       	or	r16, r17
    1526:	31 f4       	brne	.+12     	; 0x1534 <dir_next+0x14c>
    1528:	1e 8a       	std	Y+22, r1	; 0x16
    152a:	1f 8a       	std	Y+23, r1	; 0x17
    152c:	18 8e       	std	Y+24, r1	; 0x18
    152e:	19 8e       	std	Y+25, r1	; 0x19
    1530:	84 e0       	ldi	r24, 0x04	; 4
    1532:	46 c0       	rjmp	.+140    	; 0x15c0 <dir_next+0x1d8>
    1534:	4a 89       	ldd	r20, Y+18	; 0x12
    1536:	5b 89       	ldd	r21, Y+19	; 0x13
    1538:	6c 89       	ldd	r22, Y+20	; 0x14
    153a:	7d 89       	ldd	r23, Y+21	; 0x15
    153c:	ce 01       	movw	r24, r28
    153e:	61 dd       	rcall	.-1342   	; 0x1002 <create_chain>
    1540:	2b 01       	movw	r4, r22
    1542:	3c 01       	movw	r6, r24
    1544:	61 15       	cp	r22, r1
    1546:	71 05       	cpc	r23, r1
    1548:	81 05       	cpc	r24, r1
    154a:	91 05       	cpc	r25, r1
    154c:	91 f1       	breq	.+100    	; 0x15b2 <dir_next+0x1ca>
    154e:	61 30       	cpi	r22, 0x01	; 1
    1550:	71 05       	cpc	r23, r1
    1552:	81 05       	cpc	r24, r1
    1554:	91 05       	cpc	r25, r1
    1556:	79 f1       	breq	.+94     	; 0x15b6 <dir_next+0x1ce>
    1558:	6f 3f       	cpi	r22, 0xFF	; 255
    155a:	2f ef       	ldi	r18, 0xFF	; 255
    155c:	72 07       	cpc	r23, r18
    155e:	82 07       	cpc	r24, r18
    1560:	92 07       	cpc	r25, r18
    1562:	59 f1       	breq	.+86     	; 0x15ba <dir_next+0x1d2>
    1564:	ab 01       	movw	r20, r22
    1566:	bc 01       	movw	r22, r24
    1568:	c5 01       	movw	r24, r10
    156a:	91 d9       	rcall	.-3294   	; 0x88e <dir_clear>
    156c:	81 11       	cpse	r24, r1
    156e:	27 c0       	rjmp	.+78     	; 0x15be <dir_next+0x1d6>
    1570:	4a 8a       	std	Y+18, r4	; 0x12
    1572:	5b 8a       	std	Y+19, r5	; 0x13
    1574:	6c 8a       	std	Y+20, r6	; 0x14
    1576:	7d 8a       	std	Y+21, r7	; 0x15
    1578:	b3 01       	movw	r22, r6
    157a:	a2 01       	movw	r20, r4
    157c:	c5 01       	movw	r24, r10
    157e:	69 d8       	rcall	.-3886   	; 0x652 <clst2sect>
    1580:	6e 8b       	std	Y+22, r22	; 0x16
    1582:	7f 8b       	std	Y+23, r23	; 0x17
    1584:	88 8f       	std	Y+24, r24	; 0x18
    1586:	99 8f       	std	Y+25, r25	; 0x19
    1588:	ce 86       	std	Y+14, r12	; 0x0e
    158a:	df 86       	std	Y+15, r13	; 0x0f
    158c:	e8 8a       	std	Y+16, r14	; 0x10
    158e:	f9 8a       	std	Y+17, r15	; 0x11
    1590:	8f e2       	ldi	r24, 0x2F	; 47
    1592:	a8 0e       	add	r10, r24
    1594:	b1 1c       	adc	r11, r1
    1596:	e1 e0       	ldi	r30, 0x01	; 1
    1598:	de 22       	and	r13, r30
    159a:	ca 0c       	add	r12, r10
    159c:	db 1c       	adc	r13, r11
    159e:	db 8e       	std	Y+27, r13	; 0x1b
    15a0:	ca 8e       	std	Y+26, r12	; 0x1a
    15a2:	80 e0       	ldi	r24, 0x00	; 0
    15a4:	0d c0       	rjmp	.+26     	; 0x15c0 <dir_next+0x1d8>
    15a6:	84 e0       	ldi	r24, 0x04	; 4
    15a8:	0b c0       	rjmp	.+22     	; 0x15c0 <dir_next+0x1d8>
    15aa:	82 e0       	ldi	r24, 0x02	; 2
    15ac:	09 c0       	rjmp	.+18     	; 0x15c0 <dir_next+0x1d8>
    15ae:	81 e0       	ldi	r24, 0x01	; 1
    15b0:	07 c0       	rjmp	.+14     	; 0x15c0 <dir_next+0x1d8>
    15b2:	87 e0       	ldi	r24, 0x07	; 7
    15b4:	05 c0       	rjmp	.+10     	; 0x15c0 <dir_next+0x1d8>
    15b6:	82 e0       	ldi	r24, 0x02	; 2
    15b8:	03 c0       	rjmp	.+6      	; 0x15c0 <dir_next+0x1d8>
    15ba:	81 e0       	ldi	r24, 0x01	; 1
    15bc:	01 c0       	rjmp	.+2      	; 0x15c0 <dir_next+0x1d8>
    15be:	81 e0       	ldi	r24, 0x01	; 1
    15c0:	df 91       	pop	r29
    15c2:	cf 91       	pop	r28
    15c4:	1f 91       	pop	r17
    15c6:	0f 91       	pop	r16
    15c8:	ff 90       	pop	r15
    15ca:	ef 90       	pop	r14
    15cc:	df 90       	pop	r13
    15ce:	cf 90       	pop	r12
    15d0:	bf 90       	pop	r11
    15d2:	af 90       	pop	r10
    15d4:	7f 90       	pop	r7
    15d6:	6f 90       	pop	r6
    15d8:	5f 90       	pop	r5
    15da:	4f 90       	pop	r4
    15dc:	08 95       	ret

000015de <dir_register>:
    15de:	ef 92       	push	r14
    15e0:	ff 92       	push	r15
    15e2:	0f 93       	push	r16
    15e4:	1f 93       	push	r17
    15e6:	cf 93       	push	r28
    15e8:	8c 01       	movw	r16, r24
    15ea:	dc 01       	movw	r26, r24
    15ec:	ed 90       	ld	r14, X+
    15ee:	fc 90       	ld	r15, X
    15f0:	40 e0       	ldi	r20, 0x00	; 0
    15f2:	50 e0       	ldi	r21, 0x00	; 0
    15f4:	ba 01       	movw	r22, r20
    15f6:	1c dc       	rcall	.-1992   	; 0xe30 <dir_sdi>
    15f8:	c8 2f       	mov	r28, r24
    15fa:	81 11       	cpse	r24, r1
    15fc:	1b c0       	rjmp	.+54     	; 0x1634 <dir_register+0x56>
    15fe:	f8 01       	movw	r30, r16
    1600:	46 89       	ldd	r20, Z+22	; 0x16
    1602:	57 89       	ldd	r21, Z+23	; 0x17
    1604:	60 8d       	ldd	r22, Z+24	; 0x18
    1606:	71 8d       	ldd	r23, Z+25	; 0x19
    1608:	c7 01       	movw	r24, r14
    160a:	05 d9       	rcall	.-3574   	; 0x816 <move_window>
    160c:	c8 2f       	mov	r28, r24
    160e:	81 11       	cpse	r24, r1
    1610:	11 c0       	rjmp	.+34     	; 0x1634 <dir_register+0x56>
    1612:	d8 01       	movw	r26, r16
    1614:	5a 96       	adiw	r26, 0x1a	; 26
    1616:	ed 91       	ld	r30, X+
    1618:	fc 91       	ld	r31, X
    161a:	5b 97       	sbiw	r26, 0x1b	; 27
    161c:	80 81       	ld	r24, Z
    161e:	85 3e       	cpi	r24, 0xE5	; 229
    1620:	69 f0       	breq	.+26     	; 0x163c <dir_register+0x5e>
    1622:	88 23       	and	r24, r24
    1624:	59 f0       	breq	.+22     	; 0x163c <dir_register+0x5e>
    1626:	61 e0       	ldi	r22, 0x01	; 1
    1628:	70 e0       	ldi	r23, 0x00	; 0
    162a:	c8 01       	movw	r24, r16
    162c:	dd de       	rcall	.-582    	; 0x13e8 <dir_next>
    162e:	c8 2f       	mov	r28, r24
    1630:	88 23       	and	r24, r24
    1632:	29 f3       	breq	.-54     	; 0x15fe <dir_register+0x20>
    1634:	c4 30       	cpi	r28, 0x04	; 4
    1636:	31 f1       	breq	.+76     	; 0x1684 <dir_register+0xa6>
    1638:	c1 11       	cpse	r28, r1
    163a:	25 c0       	rjmp	.+74     	; 0x1686 <dir_register+0xa8>
    163c:	f8 01       	movw	r30, r16
    163e:	46 89       	ldd	r20, Z+22	; 0x16
    1640:	57 89       	ldd	r21, Z+23	; 0x17
    1642:	60 8d       	ldd	r22, Z+24	; 0x18
    1644:	71 8d       	ldd	r23, Z+25	; 0x19
    1646:	c7 01       	movw	r24, r14
    1648:	e6 d8       	rcall	.-3636   	; 0x816 <move_window>
    164a:	c8 2f       	mov	r28, r24
    164c:	81 11       	cpse	r24, r1
    164e:	1b c0       	rjmp	.+54     	; 0x1686 <dir_register+0xa8>
    1650:	d8 01       	movw	r26, r16
    1652:	5a 96       	adiw	r26, 0x1a	; 26
    1654:	ed 91       	ld	r30, X+
    1656:	fc 91       	ld	r31, X
    1658:	5b 97       	sbiw	r26, 0x1b	; 27
    165a:	cf 01       	movw	r24, r30
    165c:	80 96       	adiw	r24, 0x20	; 32
    165e:	11 92       	st	Z+, r1
    1660:	e8 17       	cp	r30, r24
    1662:	f9 07       	cpc	r31, r25
    1664:	e1 f7       	brne	.-8      	; 0x165e <dir_register+0x80>
    1666:	b8 01       	movw	r22, r16
    1668:	64 5e       	subi	r22, 0xE4	; 228
    166a:	7f 4f       	sbci	r23, 0xFF	; 255
    166c:	4b e0       	ldi	r20, 0x0B	; 11
    166e:	50 e0       	ldi	r21, 0x00	; 0
    1670:	f8 01       	movw	r30, r16
    1672:	82 8d       	ldd	r24, Z+26	; 0x1a
    1674:	93 8d       	ldd	r25, Z+27	; 0x1b
    1676:	0e 94 1b 03 	call	0x636	; 0x636 <mem_cpy>
    167a:	81 e0       	ldi	r24, 0x01	; 1
    167c:	d7 01       	movw	r26, r14
    167e:	13 96       	adiw	r26, 0x03	; 3
    1680:	8c 93       	st	X, r24
    1682:	01 c0       	rjmp	.+2      	; 0x1686 <dir_register+0xa8>
    1684:	c7 e0       	ldi	r28, 0x07	; 7
    1686:	8c 2f       	mov	r24, r28
    1688:	cf 91       	pop	r28
    168a:	1f 91       	pop	r17
    168c:	0f 91       	pop	r16
    168e:	ff 90       	pop	r15
    1690:	ef 90       	pop	r14
    1692:	08 95       	ret

00001694 <check_fs>:
    1694:	cf 93       	push	r28
    1696:	df 93       	push	r29
    1698:	ec 01       	movw	r28, r24
    169a:	1b 82       	std	Y+3, r1	; 0x03
    169c:	8f ef       	ldi	r24, 0xFF	; 255
    169e:	9f ef       	ldi	r25, 0xFF	; 255
    16a0:	dc 01       	movw	r26, r24
    16a2:	8b a7       	std	Y+43, r24	; 0x2b
    16a4:	9c a7       	std	Y+44, r25	; 0x2c
    16a6:	ad a7       	std	Y+45, r26	; 0x2d
    16a8:	be a7       	std	Y+46, r27	; 0x2e
    16aa:	ce 01       	movw	r24, r28
    16ac:	b4 d8       	rcall	.-3736   	; 0x816 <move_window>
    16ae:	81 11       	cpse	r24, r1
    16b0:	71 c0       	rjmp	.+226    	; 0x1794 <check_fs+0x100>
    16b2:	fe 01       	movw	r30, r28
    16b4:	e2 5d       	subi	r30, 0xD2	; 210
    16b6:	fd 4f       	sbci	r31, 0xFD	; 253
    16b8:	20 81       	ld	r18, Z
    16ba:	30 e0       	ldi	r19, 0x00	; 0
    16bc:	32 2f       	mov	r19, r18
    16be:	22 27       	eor	r18, r18
    16c0:	31 97       	sbiw	r30, 0x01	; 1
    16c2:	80 81       	ld	r24, Z
    16c4:	28 2b       	or	r18, r24
    16c6:	8f a5       	ldd	r24, Y+47	; 0x2f
    16c8:	8b 3e       	cpi	r24, 0xEB	; 235
    16ca:	21 f0       	breq	.+8      	; 0x16d4 <check_fs+0x40>
    16cc:	88 5e       	subi	r24, 0xE8	; 232
    16ce:	82 30       	cpi	r24, 0x02	; 2
    16d0:	08 f0       	brcs	.+2      	; 0x16d4 <check_fs+0x40>
    16d2:	5a c0       	rjmp	.+180    	; 0x1788 <check_fs+0xf4>
    16d4:	25 35       	cpi	r18, 0x55	; 85
    16d6:	4a ea       	ldi	r20, 0xAA	; 170
    16d8:	34 07       	cpc	r19, r20
    16da:	09 f0       	breq	.+2      	; 0x16de <check_fs+0x4a>
    16dc:	67 c0       	rjmp	.+206    	; 0x17ac <check_fs+0x118>
    16de:	fe 01       	movw	r30, r28
    16e0:	ef 57       	subi	r30, 0x7F	; 127
    16e2:	ff 4f       	sbci	r31, 0xFF	; 255
    16e4:	80 81       	ld	r24, Z
    16e6:	90 e0       	ldi	r25, 0x00	; 0
    16e8:	86 54       	subi	r24, 0x46	; 70
    16ea:	91 09       	sbc	r25, r1
    16ec:	de 01       	movw	r26, r28
    16ee:	ae 57       	subi	r26, 0x7E	; 126
    16f0:	bf 4f       	sbci	r27, 0xFF	; 255
    16f2:	e6 e2       	ldi	r30, 0x26	; 38
    16f4:	f2 e0       	ldi	r31, 0x02	; 2
    16f6:	6d e2       	ldi	r22, 0x2D	; 45
    16f8:	72 e0       	ldi	r23, 0x02	; 2
    16fa:	08 c0       	rjmp	.+16     	; 0x170c <check_fs+0x78>
    16fc:	8d 91       	ld	r24, X+
    16fe:	41 91       	ld	r20, Z+
    1700:	90 e0       	ldi	r25, 0x00	; 0
    1702:	84 1b       	sub	r24, r20
    1704:	91 09       	sbc	r25, r1
    1706:	e6 17       	cp	r30, r22
    1708:	f7 07       	cpc	r31, r23
    170a:	19 f0       	breq	.+6      	; 0x1712 <check_fs+0x7e>
    170c:	89 2b       	or	r24, r25
    170e:	b1 f3       	breq	.-20     	; 0x16fc <check_fs+0x68>
    1710:	04 c0       	rjmp	.+8      	; 0x171a <check_fs+0x86>
    1712:	89 2b       	or	r24, r25
    1714:	09 f4       	brne	.+2      	; 0x1718 <check_fs+0x84>
    1716:	41 c0       	rjmp	.+130    	; 0x179a <check_fs+0x106>
    1718:	59 c0       	rjmp	.+178    	; 0x17cc <check_fs+0x138>
    171a:	8b ad       	ldd	r24, Y+59	; 0x3b
    171c:	90 e0       	ldi	r25, 0x00	; 0
    171e:	98 2f       	mov	r25, r24
    1720:	88 27       	eor	r24, r24
    1722:	4a ad       	ldd	r20, Y+58	; 0x3a
    1724:	84 2b       	or	r24, r20
    1726:	ac 01       	movw	r20, r24
    1728:	41 50       	subi	r20, 0x01	; 1
    172a:	51 09       	sbc	r21, r1
    172c:	48 23       	and	r20, r24
    172e:	59 23       	and	r21, r25
    1730:	45 2b       	or	r20, r21
    1732:	09 f4       	brne	.+2      	; 0x1736 <check_fs+0xa2>
    1734:	62 c0       	rjmp	.+196    	; 0x17fa <check_fs+0x166>
    1736:	82 e0       	ldi	r24, 0x02	; 2
    1738:	90 e0       	ldi	r25, 0x00	; 0
    173a:	65 c0       	rjmp	.+202    	; 0x1806 <check_fs+0x172>
    173c:	8c ad       	ldd	r24, Y+60	; 0x3c
    173e:	88 23       	and	r24, r24
    1740:	19 f1       	breq	.+70     	; 0x1788 <check_fs+0xf4>
    1742:	90 e0       	ldi	r25, 0x00	; 0
    1744:	ac 01       	movw	r20, r24
    1746:	41 50       	subi	r20, 0x01	; 1
    1748:	51 09       	sbc	r21, r1
    174a:	84 23       	and	r24, r20
    174c:	95 23       	and	r25, r21
    174e:	89 2b       	or	r24, r25
    1750:	d9 f4       	brne	.+54     	; 0x1788 <check_fs+0xf4>
    1752:	8f ad       	ldd	r24, Y+63	; 0x3f
    1754:	81 50       	subi	r24, 0x01	; 1
    1756:	82 30       	cpi	r24, 0x02	; 2
    1758:	b8 f4       	brcc	.+46     	; 0x1788 <check_fs+0xf4>
    175a:	fe 01       	movw	r30, r28
    175c:	ef 5b       	subi	r30, 0xBF	; 191
    175e:	ff 4f       	sbci	r31, 0xFF	; 255
    1760:	80 81       	ld	r24, Z
    1762:	90 e0       	ldi	r25, 0x00	; 0
    1764:	98 2f       	mov	r25, r24
    1766:	88 27       	eor	r24, r24
    1768:	31 97       	sbiw	r30, 0x01	; 1
    176a:	40 81       	ld	r20, Z
    176c:	84 2b       	or	r24, r20
    176e:	89 2b       	or	r24, r25
    1770:	59 f0       	breq	.+22     	; 0x1788 <check_fs+0xf4>
    1772:	36 96       	adiw	r30, 0x06	; 6
    1774:	80 81       	ld	r24, Z
    1776:	90 e0       	ldi	r25, 0x00	; 0
    1778:	98 2f       	mov	r25, r24
    177a:	88 27       	eor	r24, r24
    177c:	cb 5b       	subi	r28, 0xBB	; 187
    177e:	df 4f       	sbci	r29, 0xFF	; 255
    1780:	48 81       	ld	r20, Y
    1782:	84 2b       	or	r24, r20
    1784:	89 2b       	or	r24, r25
    1786:	61 f4       	brne	.+24     	; 0x17a0 <check_fs+0x10c>
    1788:	25 35       	cpi	r18, 0x55	; 85
    178a:	3a 4a       	sbci	r19, 0xAA	; 170
    178c:	61 f0       	breq	.+24     	; 0x17a6 <check_fs+0x112>
    178e:	83 e0       	ldi	r24, 0x03	; 3
    1790:	90 e0       	ldi	r25, 0x00	; 0
    1792:	39 c0       	rjmp	.+114    	; 0x1806 <check_fs+0x172>
    1794:	84 e0       	ldi	r24, 0x04	; 4
    1796:	90 e0       	ldi	r25, 0x00	; 0
    1798:	36 c0       	rjmp	.+108    	; 0x1806 <check_fs+0x172>
    179a:	80 e0       	ldi	r24, 0x00	; 0
    179c:	90 e0       	ldi	r25, 0x00	; 0
    179e:	33 c0       	rjmp	.+102    	; 0x1806 <check_fs+0x172>
    17a0:	80 e0       	ldi	r24, 0x00	; 0
    17a2:	90 e0       	ldi	r25, 0x00	; 0
    17a4:	30 c0       	rjmp	.+96     	; 0x1806 <check_fs+0x172>
    17a6:	82 e0       	ldi	r24, 0x02	; 2
    17a8:	90 e0       	ldi	r25, 0x00	; 0
    17aa:	2d c0       	rjmp	.+90     	; 0x1806 <check_fs+0x172>
    17ac:	8b ad       	ldd	r24, Y+59	; 0x3b
    17ae:	90 e0       	ldi	r25, 0x00	; 0
    17b0:	98 2f       	mov	r25, r24
    17b2:	88 27       	eor	r24, r24
    17b4:	4a ad       	ldd	r20, Y+58	; 0x3a
    17b6:	84 2b       	or	r24, r20
    17b8:	ac 01       	movw	r20, r24
    17ba:	41 50       	subi	r20, 0x01	; 1
    17bc:	51 09       	sbc	r21, r1
    17be:	48 23       	and	r20, r24
    17c0:	59 23       	and	r21, r25
    17c2:	45 2b       	or	r20, r21
    17c4:	99 f0       	breq	.+38     	; 0x17ec <check_fs+0x158>
    17c6:	83 e0       	ldi	r24, 0x03	; 3
    17c8:	90 e0       	ldi	r25, 0x00	; 0
    17ca:	1d c0       	rjmp	.+58     	; 0x1806 <check_fs+0x172>
    17cc:	8b ad       	ldd	r24, Y+59	; 0x3b
    17ce:	90 e0       	ldi	r25, 0x00	; 0
    17d0:	98 2f       	mov	r25, r24
    17d2:	88 27       	eor	r24, r24
    17d4:	4a ad       	ldd	r20, Y+58	; 0x3a
    17d6:	84 2b       	or	r24, r20
    17d8:	ac 01       	movw	r20, r24
    17da:	41 50       	subi	r20, 0x01	; 1
    17dc:	51 09       	sbc	r21, r1
    17de:	48 23       	and	r20, r24
    17e0:	59 23       	and	r21, r25
    17e2:	45 2b       	or	r20, r21
    17e4:	51 f0       	breq	.+20     	; 0x17fa <check_fs+0x166>
    17e6:	82 e0       	ldi	r24, 0x02	; 2
    17e8:	90 e0       	ldi	r25, 0x00	; 0
    17ea:	0d c0       	rjmp	.+26     	; 0x1806 <check_fs+0x172>
    17ec:	81 15       	cp	r24, r1
    17ee:	92 40       	sbci	r25, 0x02	; 2
    17f0:	09 f4       	brne	.+2      	; 0x17f4 <check_fs+0x160>
    17f2:	a4 cf       	rjmp	.-184    	; 0x173c <check_fs+0xa8>
    17f4:	83 e0       	ldi	r24, 0x03	; 3
    17f6:	90 e0       	ldi	r25, 0x00	; 0
    17f8:	06 c0       	rjmp	.+12     	; 0x1806 <check_fs+0x172>
    17fa:	81 15       	cp	r24, r1
    17fc:	92 40       	sbci	r25, 0x02	; 2
    17fe:	09 f4       	brne	.+2      	; 0x1802 <check_fs+0x16e>
    1800:	9d cf       	rjmp	.-198    	; 0x173c <check_fs+0xa8>
    1802:	82 e0       	ldi	r24, 0x02	; 2
    1804:	90 e0       	ldi	r25, 0x00	; 0
    1806:	df 91       	pop	r29
    1808:	cf 91       	pop	r28
    180a:	08 95       	ret

0000180c <mount_volume>:
    180c:	2f 92       	push	r2
    180e:	3f 92       	push	r3
    1810:	4f 92       	push	r4
    1812:	5f 92       	push	r5
    1814:	6f 92       	push	r6
    1816:	7f 92       	push	r7
    1818:	8f 92       	push	r8
    181a:	9f 92       	push	r9
    181c:	af 92       	push	r10
    181e:	bf 92       	push	r11
    1820:	cf 92       	push	r12
    1822:	df 92       	push	r13
    1824:	ef 92       	push	r14
    1826:	ff 92       	push	r15
    1828:	0f 93       	push	r16
    182a:	1f 93       	push	r17
    182c:	cf 93       	push	r28
    182e:	df 93       	push	r29
    1830:	cd b7       	in	r28, 0x3d	; 61
    1832:	de b7       	in	r29, 0x3e	; 62
    1834:	6e 97       	sbiw	r28, 0x1e	; 30
    1836:	0f b6       	in	r0, 0x3f	; 63
    1838:	f8 94       	cli
    183a:	de bf       	out	0x3e, r29	; 62
    183c:	0f be       	out	0x3f, r0	; 63
    183e:	cd bf       	out	0x3d, r28	; 61
    1840:	6b 01       	movw	r12, r22
    1842:	b4 2e       	mov	r11, r20
    1844:	db 01       	movw	r26, r22
    1846:	1d 92       	st	X+, r1
    1848:	1c 92       	st	X, r1
    184a:	0e 94 51 03 	call	0x6a2	; 0x6a2 <get_ldnumber>
    184e:	7c 01       	movw	r14, r24
    1850:	99 23       	and	r25, r25
    1852:	0c f4       	brge	.+2      	; 0x1856 <mount_volume+0x4a>
    1854:	68 c2       	rjmp	.+1232   	; 0x1d26 <mount_volume+0x51a>
    1856:	fc 01       	movw	r30, r24
    1858:	ee 0f       	add	r30, r30
    185a:	ff 1f       	adc	r31, r31
    185c:	e0 59       	subi	r30, 0x90	; 144
    185e:	f2 4f       	sbci	r31, 0xF2	; 242
    1860:	00 81       	ld	r16, Z
    1862:	11 81       	ldd	r17, Z+1	; 0x01
    1864:	01 15       	cp	r16, r1
    1866:	11 05       	cpc	r17, r1
    1868:	09 f4       	brne	.+2      	; 0x186c <mount_volume+0x60>
    186a:	5f c2       	rjmp	.+1214   	; 0x1d2a <mount_volume+0x51e>
    186c:	f6 01       	movw	r30, r12
    186e:	11 83       	std	Z+1, r17	; 0x01
    1870:	00 83       	st	Z, r16
    1872:	fb 2d       	mov	r31, r11
    1874:	fe 7f       	andi	r31, 0xFE	; 254
    1876:	bf 2e       	mov	r11, r31
    1878:	d8 01       	movw	r26, r16
    187a:	8c 91       	ld	r24, X
    187c:	88 23       	and	r24, r24
    187e:	69 f0       	breq	.+26     	; 0x189a <mount_volume+0x8e>
    1880:	11 96       	adiw	r26, 0x01	; 1
    1882:	8c 91       	ld	r24, X
    1884:	0e 94 76 02 	call	0x4ec	; 0x4ec <disk_status>
    1888:	80 fd       	sbrc	r24, 0
    188a:	07 c0       	rjmp	.+14     	; 0x189a <mount_volume+0x8e>
    188c:	bb 20       	and	r11, r11
    188e:	09 f4       	brne	.+2      	; 0x1892 <mount_volume+0x86>
    1890:	4e c2       	rjmp	.+1180   	; 0x1d2e <mount_volume+0x522>
    1892:	82 ff       	sbrs	r24, 2
    1894:	4e c2       	rjmp	.+1180   	; 0x1d32 <mount_volume+0x526>
    1896:	8a e0       	ldi	r24, 0x0A	; 10
    1898:	f2 c2       	rjmp	.+1508   	; 0x1e7e <mount_volume+0x672>
    189a:	f8 01       	movw	r30, r16
    189c:	10 82       	st	Z, r1
    189e:	e1 82       	std	Z+1, r14	; 0x01
    18a0:	8e 2d       	mov	r24, r14
    18a2:	0e 94 78 02 	call	0x4f0	; 0x4f0 <disk_initialize>
    18a6:	80 fd       	sbrc	r24, 0
    18a8:	46 c2       	rjmp	.+1164   	; 0x1d36 <mount_volume+0x52a>
    18aa:	bb 20       	and	r11, r11
    18ac:	09 f4       	brne	.+2      	; 0x18b0 <mount_volume+0xa4>
    18ae:	69 c2       	rjmp	.+1234   	; 0x1d82 <mount_volume+0x576>
    18b0:	82 fd       	sbrc	r24, 2
    18b2:	43 c2       	rjmp	.+1158   	; 0x1d3a <mount_volume+0x52e>
    18b4:	40 e0       	ldi	r20, 0x00	; 0
    18b6:	50 e0       	ldi	r21, 0x00	; 0
    18b8:	ba 01       	movw	r22, r20
    18ba:	c8 01       	movw	r24, r16
    18bc:	eb de       	rcall	.-554    	; 0x1694 <check_fs>
    18be:	82 30       	cpi	r24, 0x02	; 2
    18c0:	91 05       	cpc	r25, r1
    18c2:	c1 f5       	brne	.+112    	; 0x1934 <mount_volume+0x128>
    18c4:	48 01       	movw	r8, r16
    18c6:	fb e0       	ldi	r31, 0x0B	; 11
    18c8:	8f 1a       	sub	r8, r31
    18ca:	fe ef       	ldi	r31, 0xFE	; 254
    18cc:	9f 0a       	sbc	r9, r31
    18ce:	9e 01       	movw	r18, r28
    18d0:	2f 5f       	subi	r18, 0xFF	; 255
    18d2:	3f 4f       	sbci	r19, 0xFF	; 255
    18d4:	79 01       	movw	r14, r18
    18d6:	6e 01       	movw	r12, r28
    18d8:	31 e1       	ldi	r19, 0x11	; 17
    18da:	c3 0e       	add	r12, r19
    18dc:	d1 1c       	adc	r13, r1
    18de:	57 01       	movw	r10, r14
    18e0:	c4 01       	movw	r24, r8
    18e2:	0e 94 00 03 	call	0x600	; 0x600 <ld_dword>
    18e6:	d5 01       	movw	r26, r10
    18e8:	6d 93       	st	X+, r22
    18ea:	7d 93       	st	X+, r23
    18ec:	8d 93       	st	X+, r24
    18ee:	9d 93       	st	X+, r25
    18f0:	5d 01       	movw	r10, r26
    18f2:	b0 e1       	ldi	r27, 0x10	; 16
    18f4:	8b 0e       	add	r8, r27
    18f6:	91 1c       	adc	r9, r1
    18f8:	ac 14       	cp	r10, r12
    18fa:	bd 04       	cpc	r11, r13
    18fc:	89 f7       	brne	.-30     	; 0x18e0 <mount_volume+0xd4>
    18fe:	0f 2e       	mov	r0, r31
    1900:	f3 e0       	ldi	r31, 0x03	; 3
    1902:	af 2e       	mov	r10, r31
    1904:	f0 2d       	mov	r31, r0
    1906:	b1 2c       	mov	r11, r1
    1908:	f7 01       	movw	r30, r14
    190a:	41 91       	ld	r20, Z+
    190c:	51 91       	ld	r21, Z+
    190e:	61 91       	ld	r22, Z+
    1910:	71 91       	ld	r23, Z+
    1912:	7f 01       	movw	r14, r30
    1914:	41 15       	cp	r20, r1
    1916:	51 05       	cpc	r21, r1
    1918:	61 05       	cpc	r22, r1
    191a:	71 05       	cpc	r23, r1
    191c:	31 f0       	breq	.+12     	; 0x192a <mount_volume+0x11e>
    191e:	c8 01       	movw	r24, r16
    1920:	b9 de       	rcall	.-654    	; 0x1694 <check_fs>
    1922:	82 30       	cpi	r24, 0x02	; 2
    1924:	91 05       	cpc	r25, r1
    1926:	18 f4       	brcc	.+6      	; 0x192e <mount_volume+0x122>
    1928:	36 c2       	rjmp	.+1132   	; 0x1d96 <mount_volume+0x58a>
    192a:	8a 2d       	mov	r24, r10
    192c:	9b 2d       	mov	r25, r11
    192e:	ce 14       	cp	r12, r14
    1930:	df 04       	cpc	r13, r15
    1932:	51 f7       	brne	.-44     	; 0x1908 <mount_volume+0xfc>
    1934:	84 30       	cpi	r24, 0x04	; 4
    1936:	91 05       	cpc	r25, r1
    1938:	09 f4       	brne	.+2      	; 0x193c <mount_volume+0x130>
    193a:	01 c2       	rjmp	.+1026   	; 0x1d3e <mount_volume+0x532>
    193c:	02 97       	sbiw	r24, 0x02	; 2
    193e:	08 f0       	brcs	.+2      	; 0x1942 <mount_volume+0x136>
    1940:	00 c2       	rjmp	.+1024   	; 0x1d42 <mount_volume+0x536>
    1942:	d8 01       	movw	r26, r16
    1944:	db 96       	adiw	r26, 0x3b	; 59
    1946:	8c 91       	ld	r24, X
    1948:	db 97       	sbiw	r26, 0x3b	; 59
    194a:	90 e0       	ldi	r25, 0x00	; 0
    194c:	98 2f       	mov	r25, r24
    194e:	88 27       	eor	r24, r24
    1950:	da 96       	adiw	r26, 0x3a	; 58
    1952:	2c 91       	ld	r18, X
    1954:	82 2b       	or	r24, r18
    1956:	81 15       	cp	r24, r1
    1958:	92 40       	sbci	r25, 0x02	; 2
    195a:	09 f0       	breq	.+2      	; 0x195e <mount_volume+0x152>
    195c:	f4 c1       	rjmp	.+1000   	; 0x1d46 <mount_volume+0x53a>
    195e:	f8 01       	movw	r30, r16
    1960:	ea 5b       	subi	r30, 0xBA	; 186
    1962:	ff 4f       	sbci	r31, 0xFF	; 255
    1964:	80 80       	ld	r8, Z
    1966:	91 2c       	mov	r9, r1
    1968:	98 2c       	mov	r9, r8
    196a:	88 24       	eor	r8, r8
    196c:	31 97       	sbiw	r30, 0x01	; 1
    196e:	80 81       	ld	r24, Z
    1970:	88 2a       	or	r8, r24
    1972:	94 01       	movw	r18, r8
    1974:	40 e0       	ldi	r20, 0x00	; 0
    1976:	50 e0       	ldi	r21, 0x00	; 0
    1978:	29 8b       	std	Y+17, r18	; 0x11
    197a:	3a 8b       	std	Y+18, r19	; 0x12
    197c:	4b 8b       	std	Y+19, r20	; 0x13
    197e:	5c 8b       	std	Y+20, r21	; 0x14
    1980:	23 2b       	or	r18, r19
    1982:	24 2b       	or	r18, r20
    1984:	25 2b       	or	r18, r21
    1986:	49 f4       	brne	.+18     	; 0x199a <mount_volume+0x18e>
    1988:	c8 01       	movw	r24, r16
    198a:	8d 5a       	subi	r24, 0xAD	; 173
    198c:	9f 4f       	sbci	r25, 0xFF	; 255
    198e:	0e 94 00 03 	call	0x600	; 0x600 <ld_dword>
    1992:	69 8b       	std	Y+17, r22	; 0x11
    1994:	7a 8b       	std	Y+18, r23	; 0x12
    1996:	8b 8b       	std	Y+19, r24	; 0x13
    1998:	9c 8b       	std	Y+20, r25	; 0x14
    199a:	d8 01       	movw	r26, r16
    199c:	9b 96       	adiw	r26, 0x2b	; 43
    199e:	8d 90       	ld	r8, X+
    19a0:	9d 90       	ld	r9, X+
    19a2:	ad 90       	ld	r10, X+
    19a4:	bc 90       	ld	r11, X
    19a6:	9e 97       	sbiw	r26, 0x2e	; 46
    19a8:	29 89       	ldd	r18, Y+17	; 0x11
    19aa:	3a 89       	ldd	r19, Y+18	; 0x12
    19ac:	4b 89       	ldd	r20, Y+19	; 0x13
    19ae:	5c 89       	ldd	r21, Y+20	; 0x14
    19b0:	57 96       	adiw	r26, 0x17	; 23
    19b2:	2d 93       	st	X+, r18
    19b4:	3d 93       	st	X+, r19
    19b6:	4d 93       	st	X+, r20
    19b8:	5c 93       	st	X, r21
    19ba:	5a 97       	sbiw	r26, 0x1a	; 26
    19bc:	df 96       	adiw	r26, 0x3f	; 63
    19be:	7c 90       	ld	r7, X
    19c0:	df 97       	sbiw	r26, 0x3f	; 63
    19c2:	12 96       	adiw	r26, 0x02	; 2
    19c4:	7c 92       	st	X, r7
    19c6:	12 97       	sbiw	r26, 0x02	; 2
    19c8:	8f ef       	ldi	r24, 0xFF	; 255
    19ca:	87 0d       	add	r24, r7
    19cc:	82 30       	cpi	r24, 0x02	; 2
    19ce:	08 f0       	brcs	.+2      	; 0x19d2 <mount_volume+0x1c6>
    19d0:	bc c1       	rjmp	.+888    	; 0x1d4a <mount_volume+0x53e>
    19d2:	dc 96       	adiw	r26, 0x3c	; 60
    19d4:	3c 90       	ld	r3, X
    19d6:	dc 97       	sbiw	r26, 0x3c	; 60
    19d8:	83 2d       	mov	r24, r3
    19da:	90 e0       	ldi	r25, 0x00	; 0
    19dc:	1a 96       	adiw	r26, 0x0a	; 10
    19de:	9c 93       	st	X, r25
    19e0:	8e 93       	st	-X, r24
    19e2:	19 97       	sbiw	r26, 0x09	; 9
    19e4:	00 97       	sbiw	r24, 0x00	; 0
    19e6:	09 f4       	brne	.+2      	; 0x19ea <mount_volume+0x1de>
    19e8:	b2 c1       	rjmp	.+868    	; 0x1d4e <mount_volume+0x542>
    19ea:	9c 01       	movw	r18, r24
    19ec:	21 50       	subi	r18, 0x01	; 1
    19ee:	31 09       	sbc	r19, r1
    19f0:	82 23       	and	r24, r18
    19f2:	93 23       	and	r25, r19
    19f4:	89 2b       	or	r24, r25
    19f6:	09 f0       	breq	.+2      	; 0x19fa <mount_volume+0x1ee>
    19f8:	ac c1       	rjmp	.+856    	; 0x1d52 <mount_volume+0x546>
    19fa:	f8 01       	movw	r30, r16
    19fc:	ef 5b       	subi	r30, 0xBF	; 191
    19fe:	ff 4f       	sbci	r31, 0xFF	; 255
    1a00:	80 81       	ld	r24, Z
    1a02:	90 e0       	ldi	r25, 0x00	; 0
    1a04:	98 2f       	mov	r25, r24
    1a06:	88 27       	eor	r24, r24
    1a08:	31 97       	sbiw	r30, 0x01	; 1
    1a0a:	20 81       	ld	r18, Z
    1a0c:	fc 01       	movw	r30, r24
    1a0e:	e2 2b       	or	r30, r18
    1a10:	fe 8b       	std	Y+22, r31	; 0x16
    1a12:	ed 8b       	std	Y+21, r30	; 0x15
    1a14:	18 96       	adiw	r26, 0x08	; 8
    1a16:	fc 93       	st	X, r31
    1a18:	ee 93       	st	-X, r30
    1a1a:	17 97       	sbiw	r26, 0x07	; 7
    1a1c:	cf 01       	movw	r24, r30
    1a1e:	8f 70       	andi	r24, 0x0F	; 15
    1a20:	99 27       	eor	r25, r25
    1a22:	89 2b       	or	r24, r25
    1a24:	09 f0       	breq	.+2      	; 0x1a28 <mount_volume+0x21c>
    1a26:	97 c1       	rjmp	.+814    	; 0x1d56 <mount_volume+0x54a>
    1a28:	f8 01       	movw	r30, r16
    1a2a:	ed 5b       	subi	r30, 0xBD	; 189
    1a2c:	ff 4f       	sbci	r31, 0xFF	; 255
    1a2e:	c0 80       	ld	r12, Z
    1a30:	d1 2c       	mov	r13, r1
    1a32:	dc 2c       	mov	r13, r12
    1a34:	cc 24       	eor	r12, r12
    1a36:	31 97       	sbiw	r30, 0x01	; 1
    1a38:	80 81       	ld	r24, Z
    1a3a:	c8 2a       	or	r12, r24
    1a3c:	e1 2c       	mov	r14, r1
    1a3e:	f1 2c       	mov	r15, r1
    1a40:	c1 14       	cp	r12, r1
    1a42:	d1 04       	cpc	r13, r1
    1a44:	e1 04       	cpc	r14, r1
    1a46:	f1 04       	cpc	r15, r1
    1a48:	39 f4       	brne	.+14     	; 0x1a58 <mount_volume+0x24c>
    1a4a:	c8 01       	movw	r24, r16
    1a4c:	81 5b       	subi	r24, 0xB1	; 177
    1a4e:	9f 4f       	sbci	r25, 0xFF	; 255
    1a50:	0e 94 00 03 	call	0x600	; 0x600 <ld_dword>
    1a54:	6b 01       	movw	r12, r22
    1a56:	7c 01       	movw	r14, r24
    1a58:	d8 01       	movw	r26, r16
    1a5a:	de 96       	adiw	r26, 0x3e	; 62
    1a5c:	ec 91       	ld	r30, X
    1a5e:	de 97       	sbiw	r26, 0x3e	; 62
    1a60:	f0 e0       	ldi	r31, 0x00	; 0
    1a62:	fe 2f       	mov	r31, r30
    1a64:	ee 27       	eor	r30, r30
    1a66:	dd 96       	adiw	r26, 0x3d	; 61
    1a68:	8c 91       	ld	r24, X
    1a6a:	e8 2b       	or	r30, r24
    1a6c:	30 97       	sbiw	r30, 0x00	; 0
    1a6e:	09 f4       	brne	.+2      	; 0x1a72 <mount_volume+0x266>
    1a70:	74 c1       	rjmp	.+744    	; 0x1d5a <mount_volume+0x54e>
    1a72:	a7 2d       	mov	r26, r7
    1a74:	b0 e0       	ldi	r27, 0x00	; 0
    1a76:	29 89       	ldd	r18, Y+17	; 0x11
    1a78:	3a 89       	ldd	r19, Y+18	; 0x12
    1a7a:	4b 89       	ldd	r20, Y+19	; 0x13
    1a7c:	5c 89       	ldd	r21, Y+20	; 0x14
    1a7e:	0e 94 cd 22 	call	0x459a	; 0x459a <__muluhisi3>
    1a82:	6b 8f       	std	Y+27, r22	; 0x1b
    1a84:	7c 8f       	std	Y+28, r23	; 0x1c
    1a86:	8d 8f       	std	Y+29, r24	; 0x1d
    1a88:	9e 8f       	std	Y+30, r25	; 0x1e
    1a8a:	9f 01       	movw	r18, r30
    1a8c:	40 e0       	ldi	r20, 0x00	; 0
    1a8e:	50 e0       	ldi	r21, 0x00	; 0
    1a90:	2f 8b       	std	Y+23, r18	; 0x17
    1a92:	38 8f       	std	Y+24, r19	; 0x18
    1a94:	49 8f       	std	Y+25, r20	; 0x19
    1a96:	5a 8f       	std	Y+26, r21	; 0x1a
    1a98:	8d 89       	ldd	r24, Y+21	; 0x15
    1a9a:	9e 89       	ldd	r25, Y+22	; 0x16
    1a9c:	92 95       	swap	r25
    1a9e:	82 95       	swap	r24
    1aa0:	8f 70       	andi	r24, 0x0F	; 15
    1aa2:	89 27       	eor	r24, r25
    1aa4:	9f 70       	andi	r25, 0x0F	; 15
    1aa6:	89 27       	eor	r24, r25
    1aa8:	28 0f       	add	r18, r24
    1aaa:	39 1f       	adc	r19, r25
    1aac:	41 1d       	adc	r20, r1
    1aae:	51 1d       	adc	r21, r1
    1ab0:	4b 8c       	ldd	r4, Y+27	; 0x1b
    1ab2:	5c 8c       	ldd	r5, Y+28	; 0x1c
    1ab4:	6d 8c       	ldd	r6, Y+29	; 0x1d
    1ab6:	7e 8c       	ldd	r7, Y+30	; 0x1e
    1ab8:	42 0e       	add	r4, r18
    1aba:	53 1e       	adc	r5, r19
    1abc:	64 1e       	adc	r6, r20
    1abe:	75 1e       	adc	r7, r21
    1ac0:	c4 14       	cp	r12, r4
    1ac2:	d5 04       	cpc	r13, r5
    1ac4:	e6 04       	cpc	r14, r6
    1ac6:	f7 04       	cpc	r15, r7
    1ac8:	08 f4       	brcc	.+2      	; 0x1acc <mount_volume+0x2c0>
    1aca:	49 c1       	rjmp	.+658    	; 0x1d5e <mount_volume+0x552>
    1acc:	c7 01       	movw	r24, r14
    1ace:	b6 01       	movw	r22, r12
    1ad0:	64 19       	sub	r22, r4
    1ad2:	75 09       	sbc	r23, r5
    1ad4:	86 09       	sbc	r24, r6
    1ad6:	97 09       	sbc	r25, r7
    1ad8:	23 2d       	mov	r18, r3
    1ada:	30 e0       	ldi	r19, 0x00	; 0
    1adc:	40 e0       	ldi	r20, 0x00	; 0
    1ade:	50 e0       	ldi	r21, 0x00	; 0
    1ae0:	0e 94 a3 22 	call	0x4546	; 0x4546 <__udivmodsi4>
    1ae4:	da 01       	movw	r26, r20
    1ae6:	c9 01       	movw	r24, r18
    1ae8:	21 15       	cp	r18, r1
    1aea:	31 05       	cpc	r19, r1
    1aec:	41 05       	cpc	r20, r1
    1aee:	51 05       	cpc	r21, r1
    1af0:	09 f4       	brne	.+2      	; 0x1af4 <mount_volume+0x2e8>
    1af2:	37 c1       	rjmp	.+622    	; 0x1d62 <mount_volume+0x556>
    1af4:	26 3f       	cpi	r18, 0xF6	; 246
    1af6:	6f ef       	ldi	r22, 0xFF	; 255
    1af8:	36 07       	cpc	r19, r22
    1afa:	46 07       	cpc	r20, r22
    1afc:	6f e0       	ldi	r22, 0x0F	; 15
    1afe:	56 07       	cpc	r21, r22
    1b00:	30 f4       	brcc	.+12     	; 0x1b0e <mount_volume+0x302>
    1b02:	0f 2e       	mov	r0, r31
    1b04:	f3 e0       	ldi	r31, 0x03	; 3
    1b06:	2f 2e       	mov	r2, r31
    1b08:	31 2c       	mov	r3, r1
    1b0a:	f0 2d       	mov	r31, r0
    1b0c:	02 c0       	rjmp	.+4      	; 0x1b12 <mount_volume+0x306>
    1b0e:	21 2c       	mov	r2, r1
    1b10:	31 2c       	mov	r3, r1
    1b12:	86 3f       	cpi	r24, 0xF6	; 246
    1b14:	ef ef       	ldi	r30, 0xFF	; 255
    1b16:	9e 07       	cpc	r25, r30
    1b18:	a1 05       	cpc	r26, r1
    1b1a:	b1 05       	cpc	r27, r1
    1b1c:	20 f4       	brcc	.+8      	; 0x1b26 <mount_volume+0x31a>
    1b1e:	68 94       	set
    1b20:	22 24       	eor	r2, r2
    1b22:	21 f8       	bld	r2, 1
    1b24:	31 2c       	mov	r3, r1
    1b26:	86 3f       	cpi	r24, 0xF6	; 246
    1b28:	9f 40       	sbci	r25, 0x0F	; 15
    1b2a:	a1 05       	cpc	r26, r1
    1b2c:	b1 05       	cpc	r27, r1
    1b2e:	08 f4       	brcc	.+2      	; 0x1b32 <mount_volume+0x326>
    1b30:	79 c1       	rjmp	.+754    	; 0x1e24 <mount_volume+0x618>
    1b32:	21 14       	cp	r2, r1
    1b34:	31 04       	cpc	r3, r1
    1b36:	09 f4       	brne	.+2      	; 0x1b3a <mount_volume+0x32e>
    1b38:	16 c1       	rjmp	.+556    	; 0x1d66 <mount_volume+0x55a>
    1b3a:	69 01       	movw	r12, r18
    1b3c:	7a 01       	movw	r14, r20
    1b3e:	62 e0       	ldi	r22, 0x02	; 2
    1b40:	c6 0e       	add	r12, r22
    1b42:	d1 1c       	adc	r13, r1
    1b44:	e1 1c       	adc	r14, r1
    1b46:	f1 1c       	adc	r15, r1
    1b48:	d8 01       	movw	r26, r16
    1b4a:	53 96       	adiw	r26, 0x13	; 19
    1b4c:	cd 92       	st	X+, r12
    1b4e:	dd 92       	st	X+, r13
    1b50:	ed 92       	st	X+, r14
    1b52:	fc 92       	st	X, r15
    1b54:	56 97       	sbiw	r26, 0x16	; 22
    1b56:	f8 01       	movw	r30, r16
    1b58:	83 8e       	std	Z+27, r8	; 0x1b
    1b5a:	94 8e       	std	Z+28, r9	; 0x1c
    1b5c:	a5 8e       	std	Z+29, r10	; 0x1d
    1b5e:	b6 8e       	std	Z+30, r11	; 0x1e
    1b60:	8f 89       	ldd	r24, Y+23	; 0x17
    1b62:	98 8d       	ldd	r25, Y+24	; 0x18
    1b64:	a9 8d       	ldd	r26, Y+25	; 0x19
    1b66:	ba 8d       	ldd	r27, Y+26	; 0x1a
    1b68:	88 0d       	add	r24, r8
    1b6a:	99 1d       	adc	r25, r9
    1b6c:	aa 1d       	adc	r26, r10
    1b6e:	bb 1d       	adc	r27, r11
    1b70:	87 8f       	std	Z+31, r24	; 0x1f
    1b72:	90 a3       	std	Z+32, r25	; 0x20
    1b74:	a1 a3       	std	Z+33, r26	; 0x21
    1b76:	b2 a3       	std	Z+34, r27	; 0x22
    1b78:	b5 01       	movw	r22, r10
    1b7a:	a4 01       	movw	r20, r8
    1b7c:	44 0d       	add	r20, r4
    1b7e:	55 1d       	adc	r21, r5
    1b80:	66 1d       	adc	r22, r6
    1b82:	77 1d       	adc	r23, r7
    1b84:	47 a3       	std	Z+39, r20	; 0x27
    1b86:	50 a7       	std	Z+40, r21	; 0x28
    1b88:	61 a7       	std	Z+41, r22	; 0x29
    1b8a:	72 a7       	std	Z+42, r23	; 0x2a
    1b8c:	f3 e0       	ldi	r31, 0x03	; 3
    1b8e:	2f 16       	cp	r2, r31
    1b90:	31 04       	cpc	r3, r1
    1b92:	09 f0       	breq	.+2      	; 0x1b96 <mount_volume+0x38a>
    1b94:	40 c0       	rjmp	.+128    	; 0x1c16 <mount_volume+0x40a>
    1b96:	f8 01       	movw	r30, r16
    1b98:	e6 5a       	subi	r30, 0xA6	; 166
    1b9a:	ff 4f       	sbci	r31, 0xFF	; 255
    1b9c:	80 81       	ld	r24, Z
    1b9e:	90 e0       	ldi	r25, 0x00	; 0
    1ba0:	98 2f       	mov	r25, r24
    1ba2:	88 27       	eor	r24, r24
    1ba4:	31 97       	sbiw	r30, 0x01	; 1
    1ba6:	20 81       	ld	r18, Z
    1ba8:	82 2b       	or	r24, r18
    1baa:	89 2b       	or	r24, r25
    1bac:	09 f0       	breq	.+2      	; 0x1bb0 <mount_volume+0x3a4>
    1bae:	dd c0       	rjmp	.+442    	; 0x1d6a <mount_volume+0x55e>
    1bb0:	2d 89       	ldd	r18, Y+21	; 0x15
    1bb2:	3e 89       	ldd	r19, Y+22	; 0x16
    1bb4:	23 2b       	or	r18, r19
    1bb6:	09 f0       	breq	.+2      	; 0x1bba <mount_volume+0x3ae>
    1bb8:	da c0       	rjmp	.+436    	; 0x1d6e <mount_volume+0x562>
    1bba:	c8 01       	movw	r24, r16
    1bbc:	85 5a       	subi	r24, 0xA5	; 165
    1bbe:	9f 4f       	sbci	r25, 0xFF	; 255
    1bc0:	0e 94 00 03 	call	0x600	; 0x600 <ld_dword>
    1bc4:	d8 01       	movw	r26, r16
    1bc6:	93 96       	adiw	r26, 0x23	; 35
    1bc8:	6d 93       	st	X+, r22
    1bca:	7d 93       	st	X+, r23
    1bcc:	8d 93       	st	X+, r24
    1bce:	9c 93       	st	X, r25
    1bd0:	96 97       	sbiw	r26, 0x26	; 38
    1bd2:	cc 0c       	add	r12, r12
    1bd4:	dd 1c       	adc	r13, r13
    1bd6:	ee 1c       	adc	r14, r14
    1bd8:	ff 1c       	adc	r15, r15
    1bda:	cc 0c       	add	r12, r12
    1bdc:	dd 1c       	adc	r13, r13
    1bde:	ee 1c       	adc	r14, r14
    1be0:	ff 1c       	adc	r15, r15
    1be2:	bf ef       	ldi	r27, 0xFF	; 255
    1be4:	cb 0e       	add	r12, r27
    1be6:	b1 e0       	ldi	r27, 0x01	; 1
    1be8:	db 1e       	adc	r13, r27
    1bea:	e1 1c       	adc	r14, r1
    1bec:	f1 1c       	adc	r15, r1
    1bee:	0b 2e       	mov	r0, r27
    1bf0:	b9 e0       	ldi	r27, 0x09	; 9
    1bf2:	f6 94       	lsr	r15
    1bf4:	e7 94       	ror	r14
    1bf6:	d7 94       	ror	r13
    1bf8:	c7 94       	ror	r12
    1bfa:	ba 95       	dec	r27
    1bfc:	d1 f7       	brne	.-12     	; 0x1bf2 <mount_volume+0x3e6>
    1bfe:	b0 2d       	mov	r27, r0
    1c00:	29 89       	ldd	r18, Y+17	; 0x11
    1c02:	3a 89       	ldd	r19, Y+18	; 0x12
    1c04:	4b 89       	ldd	r20, Y+19	; 0x13
    1c06:	5c 89       	ldd	r21, Y+20	; 0x14
    1c08:	2c 15       	cp	r18, r12
    1c0a:	3d 05       	cpc	r19, r13
    1c0c:	4e 05       	cpc	r20, r14
    1c0e:	5f 05       	cpc	r21, r15
    1c10:	08 f4       	brcc	.+2      	; 0x1c14 <mount_volume+0x408>
    1c12:	af c0       	rjmp	.+350    	; 0x1d72 <mount_volume+0x566>
    1c14:	ec c0       	rjmp	.+472    	; 0x1dee <mount_volume+0x5e2>
    1c16:	4d 89       	ldd	r20, Y+21	; 0x15
    1c18:	5e 89       	ldd	r21, Y+22	; 0x16
    1c1a:	45 2b       	or	r20, r21
    1c1c:	09 f4       	brne	.+2      	; 0x1c20 <mount_volume+0x414>
    1c1e:	ab c0       	rjmp	.+342    	; 0x1d76 <mount_volume+0x56a>
    1c20:	4b 8c       	ldd	r4, Y+27	; 0x1b
    1c22:	5c 8c       	ldd	r5, Y+28	; 0x1c
    1c24:	6d 8c       	ldd	r6, Y+29	; 0x1d
    1c26:	7e 8c       	ldd	r7, Y+30	; 0x1e
    1c28:	48 0e       	add	r4, r24
    1c2a:	59 1e       	adc	r5, r25
    1c2c:	6a 1e       	adc	r6, r26
    1c2e:	7b 1e       	adc	r7, r27
    1c30:	d8 01       	movw	r26, r16
    1c32:	93 96       	adiw	r26, 0x23	; 35
    1c34:	4d 92       	st	X+, r4
    1c36:	5d 92       	st	X+, r5
    1c38:	6d 92       	st	X+, r6
    1c3a:	7c 92       	st	X, r7
    1c3c:	96 97       	sbiw	r26, 0x26	; 38
    1c3e:	b2 e0       	ldi	r27, 0x02	; 2
    1c40:	2b 16       	cp	r2, r27
    1c42:	31 04       	cpc	r3, r1
    1c44:	29 f4       	brne	.+10     	; 0x1c50 <mount_volume+0x444>
    1c46:	cc 0c       	add	r12, r12
    1c48:	dd 1c       	adc	r13, r13
    1c4a:	ee 1c       	adc	r14, r14
    1c4c:	ff 1c       	adc	r15, r15
    1c4e:	b6 c0       	rjmp	.+364    	; 0x1dbc <mount_volume+0x5b0>
    1c50:	a3 e0       	ldi	r26, 0x03	; 3
    1c52:	b0 e0       	ldi	r27, 0x00	; 0
    1c54:	a7 01       	movw	r20, r14
    1c56:	96 01       	movw	r18, r12
    1c58:	0e 94 cd 22 	call	0x459a	; 0x459a <__muluhisi3>
    1c5c:	dc 01       	movw	r26, r24
    1c5e:	cb 01       	movw	r24, r22
    1c60:	b6 95       	lsr	r27
    1c62:	a7 95       	ror	r26
    1c64:	97 95       	ror	r25
    1c66:	87 95       	ror	r24
    1c68:	e1 e0       	ldi	r30, 0x01	; 1
    1c6a:	ce 22       	and	r12, r30
    1c6c:	dd 24       	eor	r13, r13
    1c6e:	ee 24       	eor	r14, r14
    1c70:	ff 24       	eor	r15, r15
    1c72:	c8 0e       	add	r12, r24
    1c74:	d9 1e       	adc	r13, r25
    1c76:	ea 1e       	adc	r14, r26
    1c78:	fb 1e       	adc	r15, r27
    1c7a:	a0 c0       	rjmp	.+320    	; 0x1dbc <mount_volume+0x5b0>
    1c7c:	b5 01       	movw	r22, r10
    1c7e:	a4 01       	movw	r20, r8
    1c80:	4f 5f       	subi	r20, 0xFF	; 255
    1c82:	5f 4f       	sbci	r21, 0xFF	; 255
    1c84:	6f 4f       	sbci	r22, 0xFF	; 255
    1c86:	7f 4f       	sbci	r23, 0xFF	; 255
    1c88:	c8 01       	movw	r24, r16
    1c8a:	0e 94 0b 04 	call	0x816	; 0x816 <move_window>
    1c8e:	81 11       	cpse	r24, r1
    1c90:	39 c0       	rjmp	.+114    	; 0x1d04 <mount_volume+0x4f8>
    1c92:	d8 01       	movw	r26, r16
    1c94:	14 96       	adiw	r26, 0x04	; 4
    1c96:	1c 92       	st	X, r1
    1c98:	f8 01       	movw	r30, r16
    1c9a:	e2 5d       	subi	r30, 0xD2	; 210
    1c9c:	fd 4f       	sbci	r31, 0xFD	; 253
    1c9e:	80 81       	ld	r24, Z
    1ca0:	90 e0       	ldi	r25, 0x00	; 0
    1ca2:	98 2f       	mov	r25, r24
    1ca4:	88 27       	eor	r24, r24
    1ca6:	31 97       	sbiw	r30, 0x01	; 1
    1ca8:	20 81       	ld	r18, Z
    1caa:	82 2b       	or	r24, r18
    1cac:	85 35       	cpi	r24, 0x55	; 85
    1cae:	9a 4a       	sbci	r25, 0xAA	; 170
    1cb0:	49 f5       	brne	.+82     	; 0x1d04 <mount_volume+0x4f8>
    1cb2:	c8 01       	movw	r24, r16
    1cb4:	8f 96       	adiw	r24, 0x2f	; 47
    1cb6:	0e 94 00 03 	call	0x600	; 0x600 <ld_dword>
    1cba:	62 35       	cpi	r22, 0x52	; 82
    1cbc:	72 45       	sbci	r23, 0x52	; 82
    1cbe:	81 46       	sbci	r24, 0x61	; 97
    1cc0:	91 44       	sbci	r25, 0x41	; 65
    1cc2:	01 f5       	brne	.+64     	; 0x1d04 <mount_volume+0x4f8>
    1cc4:	c8 01       	movw	r24, r16
    1cc6:	8d 5e       	subi	r24, 0xED	; 237
    1cc8:	9d 4f       	sbci	r25, 0xFD	; 253
    1cca:	0e 94 00 03 	call	0x600	; 0x600 <ld_dword>
    1cce:	62 37       	cpi	r22, 0x72	; 114
    1cd0:	72 47       	sbci	r23, 0x72	; 114
    1cd2:	81 44       	sbci	r24, 0x41	; 65
    1cd4:	91 46       	sbci	r25, 0x61	; 97
    1cd6:	b1 f4       	brne	.+44     	; 0x1d04 <mount_volume+0x4f8>
    1cd8:	c8 01       	movw	r24, r16
    1cda:	89 5e       	subi	r24, 0xE9	; 233
    1cdc:	9d 4f       	sbci	r25, 0xFD	; 253
    1cde:	0e 94 00 03 	call	0x600	; 0x600 <ld_dword>
    1ce2:	d8 01       	movw	r26, r16
    1ce4:	1f 96       	adiw	r26, 0x0f	; 15
    1ce6:	6d 93       	st	X+, r22
    1ce8:	7d 93       	st	X+, r23
    1cea:	8d 93       	st	X+, r24
    1cec:	9c 93       	st	X, r25
    1cee:	52 97       	sbiw	r26, 0x12	; 18
    1cf0:	c8 01       	movw	r24, r16
    1cf2:	85 5e       	subi	r24, 0xE5	; 229
    1cf4:	9d 4f       	sbci	r25, 0xFD	; 253
    1cf6:	0e 94 00 03 	call	0x600	; 0x600 <ld_dword>
    1cfa:	f8 01       	movw	r30, r16
    1cfc:	63 87       	std	Z+11, r22	; 0x0b
    1cfe:	74 87       	std	Z+12, r23	; 0x0c
    1d00:	85 87       	std	Z+13, r24	; 0x0d
    1d02:	96 87       	std	Z+14, r25	; 0x0e
    1d04:	d8 01       	movw	r26, r16
    1d06:	2c 92       	st	X, r2
    1d08:	80 91 6e 0d 	lds	r24, 0x0D6E	; 0x800d6e <__data_end>
    1d0c:	90 91 6f 0d 	lds	r25, 0x0D6F	; 0x800d6f <__data_end+0x1>
    1d10:	01 96       	adiw	r24, 0x01	; 1
    1d12:	90 93 6f 0d 	sts	0x0D6F, r25	; 0x800d6f <__data_end+0x1>
    1d16:	80 93 6e 0d 	sts	0x0D6E, r24	; 0x800d6e <__data_end>
    1d1a:	16 96       	adiw	r26, 0x06	; 6
    1d1c:	9c 93       	st	X, r25
    1d1e:	8e 93       	st	-X, r24
    1d20:	15 97       	sbiw	r26, 0x05	; 5
    1d22:	80 e0       	ldi	r24, 0x00	; 0
    1d24:	ac c0       	rjmp	.+344    	; 0x1e7e <mount_volume+0x672>
    1d26:	8b e0       	ldi	r24, 0x0B	; 11
    1d28:	aa c0       	rjmp	.+340    	; 0x1e7e <mount_volume+0x672>
    1d2a:	8c e0       	ldi	r24, 0x0C	; 12
    1d2c:	a8 c0       	rjmp	.+336    	; 0x1e7e <mount_volume+0x672>
    1d2e:	80 e0       	ldi	r24, 0x00	; 0
    1d30:	a6 c0       	rjmp	.+332    	; 0x1e7e <mount_volume+0x672>
    1d32:	80 e0       	ldi	r24, 0x00	; 0
    1d34:	a4 c0       	rjmp	.+328    	; 0x1e7e <mount_volume+0x672>
    1d36:	83 e0       	ldi	r24, 0x03	; 3
    1d38:	a2 c0       	rjmp	.+324    	; 0x1e7e <mount_volume+0x672>
    1d3a:	8a e0       	ldi	r24, 0x0A	; 10
    1d3c:	a0 c0       	rjmp	.+320    	; 0x1e7e <mount_volume+0x672>
    1d3e:	81 e0       	ldi	r24, 0x01	; 1
    1d40:	9e c0       	rjmp	.+316    	; 0x1e7e <mount_volume+0x672>
    1d42:	8d e0       	ldi	r24, 0x0D	; 13
    1d44:	9c c0       	rjmp	.+312    	; 0x1e7e <mount_volume+0x672>
    1d46:	8d e0       	ldi	r24, 0x0D	; 13
    1d48:	9a c0       	rjmp	.+308    	; 0x1e7e <mount_volume+0x672>
    1d4a:	8d e0       	ldi	r24, 0x0D	; 13
    1d4c:	98 c0       	rjmp	.+304    	; 0x1e7e <mount_volume+0x672>
    1d4e:	8d e0       	ldi	r24, 0x0D	; 13
    1d50:	96 c0       	rjmp	.+300    	; 0x1e7e <mount_volume+0x672>
    1d52:	8d e0       	ldi	r24, 0x0D	; 13
    1d54:	94 c0       	rjmp	.+296    	; 0x1e7e <mount_volume+0x672>
    1d56:	8d e0       	ldi	r24, 0x0D	; 13
    1d58:	92 c0       	rjmp	.+292    	; 0x1e7e <mount_volume+0x672>
    1d5a:	8d e0       	ldi	r24, 0x0D	; 13
    1d5c:	90 c0       	rjmp	.+288    	; 0x1e7e <mount_volume+0x672>
    1d5e:	8d e0       	ldi	r24, 0x0D	; 13
    1d60:	8e c0       	rjmp	.+284    	; 0x1e7e <mount_volume+0x672>
    1d62:	8d e0       	ldi	r24, 0x0D	; 13
    1d64:	8c c0       	rjmp	.+280    	; 0x1e7e <mount_volume+0x672>
    1d66:	8d e0       	ldi	r24, 0x0D	; 13
    1d68:	8a c0       	rjmp	.+276    	; 0x1e7e <mount_volume+0x672>
    1d6a:	8d e0       	ldi	r24, 0x0D	; 13
    1d6c:	88 c0       	rjmp	.+272    	; 0x1e7e <mount_volume+0x672>
    1d6e:	8d e0       	ldi	r24, 0x0D	; 13
    1d70:	86 c0       	rjmp	.+268    	; 0x1e7e <mount_volume+0x672>
    1d72:	8d e0       	ldi	r24, 0x0D	; 13
    1d74:	84 c0       	rjmp	.+264    	; 0x1e7e <mount_volume+0x672>
    1d76:	8d e0       	ldi	r24, 0x0D	; 13
    1d78:	82 c0       	rjmp	.+260    	; 0x1e7e <mount_volume+0x672>
    1d7a:	81 e0       	ldi	r24, 0x01	; 1
    1d7c:	80 c0       	rjmp	.+256    	; 0x1e7e <mount_volume+0x672>
    1d7e:	8d e0       	ldi	r24, 0x0D	; 13
    1d80:	7e c0       	rjmp	.+252    	; 0x1e7e <mount_volume+0x672>
    1d82:	40 e0       	ldi	r20, 0x00	; 0
    1d84:	50 e0       	ldi	r21, 0x00	; 0
    1d86:	ba 01       	movw	r22, r20
    1d88:	c8 01       	movw	r24, r16
    1d8a:	84 dc       	rcall	.-1784   	; 0x1694 <check_fs>
    1d8c:	82 30       	cpi	r24, 0x02	; 2
    1d8e:	91 05       	cpc	r25, r1
    1d90:	09 f0       	breq	.+2      	; 0x1d94 <mount_volume+0x588>
    1d92:	d0 cd       	rjmp	.-1120   	; 0x1934 <mount_volume+0x128>
    1d94:	97 cd       	rjmp	.-1234   	; 0x18c4 <mount_volume+0xb8>
    1d96:	04 97       	sbiw	r24, 0x04	; 4
    1d98:	09 f0       	breq	.+2      	; 0x1d9c <mount_volume+0x590>
    1d9a:	d3 cd       	rjmp	.-1114   	; 0x1942 <mount_volume+0x136>
    1d9c:	ee cf       	rjmp	.-36     	; 0x1d7a <mount_volume+0x56e>
    1d9e:	8f ef       	ldi	r24, 0xFF	; 255
    1da0:	9f ef       	ldi	r25, 0xFF	; 255
    1da2:	dc 01       	movw	r26, r24
    1da4:	f8 01       	movw	r30, r16
    1da6:	87 87       	std	Z+15, r24	; 0x0f
    1da8:	90 8b       	std	Z+16, r25	; 0x10
    1daa:	a1 8b       	std	Z+17, r26	; 0x11
    1dac:	b2 8b       	std	Z+18, r27	; 0x12
    1dae:	83 87       	std	Z+11, r24	; 0x0b
    1db0:	94 87       	std	Z+12, r25	; 0x0c
    1db2:	a5 87       	std	Z+13, r26	; 0x0d
    1db4:	b6 87       	std	Z+14, r27	; 0x0e
    1db6:	80 e8       	ldi	r24, 0x80	; 128
    1db8:	84 83       	std	Z+4, r24	; 0x04
    1dba:	a4 cf       	rjmp	.-184    	; 0x1d04 <mount_volume+0x4f8>
    1dbc:	ff ef       	ldi	r31, 0xFF	; 255
    1dbe:	cf 0e       	add	r12, r31
    1dc0:	f1 e0       	ldi	r31, 0x01	; 1
    1dc2:	df 1e       	adc	r13, r31
    1dc4:	e1 1c       	adc	r14, r1
    1dc6:	f1 1c       	adc	r15, r1
    1dc8:	0b 2e       	mov	r0, r27
    1dca:	b9 e0       	ldi	r27, 0x09	; 9
    1dcc:	f6 94       	lsr	r15
    1dce:	e7 94       	ror	r14
    1dd0:	d7 94       	ror	r13
    1dd2:	c7 94       	ror	r12
    1dd4:	ba 95       	dec	r27
    1dd6:	d1 f7       	brne	.-12     	; 0x1dcc <mount_volume+0x5c0>
    1dd8:	b0 2d       	mov	r27, r0
    1dda:	29 89       	ldd	r18, Y+17	; 0x11
    1ddc:	3a 89       	ldd	r19, Y+18	; 0x12
    1dde:	4b 89       	ldd	r20, Y+19	; 0x13
    1de0:	5c 89       	ldd	r21, Y+20	; 0x14
    1de2:	2c 15       	cp	r18, r12
    1de4:	3d 05       	cpc	r19, r13
    1de6:	4e 05       	cpc	r20, r14
    1de8:	5f 05       	cpc	r21, r15
    1dea:	48 f2       	brcs	.-110    	; 0x1d7e <mount_volume+0x572>
    1dec:	d8 cf       	rjmp	.-80     	; 0x1d9e <mount_volume+0x592>
    1dee:	8f ef       	ldi	r24, 0xFF	; 255
    1df0:	9f ef       	ldi	r25, 0xFF	; 255
    1df2:	dc 01       	movw	r26, r24
    1df4:	f8 01       	movw	r30, r16
    1df6:	87 87       	std	Z+15, r24	; 0x0f
    1df8:	90 8b       	std	Z+16, r25	; 0x10
    1dfa:	a1 8b       	std	Z+17, r26	; 0x11
    1dfc:	b2 8b       	std	Z+18, r27	; 0x12
    1dfe:	83 87       	std	Z+11, r24	; 0x0b
    1e00:	94 87       	std	Z+12, r25	; 0x0c
    1e02:	a5 87       	std	Z+13, r26	; 0x0d
    1e04:	b6 87       	std	Z+14, r27	; 0x0e
    1e06:	80 e8       	ldi	r24, 0x80	; 128
    1e08:	84 83       	std	Z+4, r24	; 0x04
    1e0a:	e0 5a       	subi	r30, 0xA0	; 160
    1e0c:	ff 4f       	sbci	r31, 0xFF	; 255
    1e0e:	80 81       	ld	r24, Z
    1e10:	90 e0       	ldi	r25, 0x00	; 0
    1e12:	98 2f       	mov	r25, r24
    1e14:	88 27       	eor	r24, r24
    1e16:	31 97       	sbiw	r30, 0x01	; 1
    1e18:	20 81       	ld	r18, Z
    1e1a:	82 2b       	or	r24, r18
    1e1c:	01 97       	sbiw	r24, 0x01	; 1
    1e1e:	09 f0       	breq	.+2      	; 0x1e22 <mount_volume+0x616>
    1e20:	71 cf       	rjmp	.-286    	; 0x1d04 <mount_volume+0x4f8>
    1e22:	2c cf       	rjmp	.-424    	; 0x1c7c <mount_volume+0x470>
    1e24:	69 01       	movw	r12, r18
    1e26:	7a 01       	movw	r14, r20
    1e28:	f2 e0       	ldi	r31, 0x02	; 2
    1e2a:	cf 0e       	add	r12, r31
    1e2c:	d1 1c       	adc	r13, r1
    1e2e:	e1 1c       	adc	r14, r1
    1e30:	f1 1c       	adc	r15, r1
    1e32:	d8 01       	movw	r26, r16
    1e34:	53 96       	adiw	r26, 0x13	; 19
    1e36:	cd 92       	st	X+, r12
    1e38:	dd 92       	st	X+, r13
    1e3a:	ed 92       	st	X+, r14
    1e3c:	fc 92       	st	X, r15
    1e3e:	56 97       	sbiw	r26, 0x16	; 22
    1e40:	f8 01       	movw	r30, r16
    1e42:	83 8e       	std	Z+27, r8	; 0x1b
    1e44:	94 8e       	std	Z+28, r9	; 0x1c
    1e46:	a5 8e       	std	Z+29, r10	; 0x1d
    1e48:	b6 8e       	std	Z+30, r11	; 0x1e
    1e4a:	8f 89       	ldd	r24, Y+23	; 0x17
    1e4c:	98 8d       	ldd	r25, Y+24	; 0x18
    1e4e:	a9 8d       	ldd	r26, Y+25	; 0x19
    1e50:	ba 8d       	ldd	r27, Y+26	; 0x1a
    1e52:	88 0d       	add	r24, r8
    1e54:	99 1d       	adc	r25, r9
    1e56:	aa 1d       	adc	r26, r10
    1e58:	bb 1d       	adc	r27, r11
    1e5a:	87 8f       	std	Z+31, r24	; 0x1f
    1e5c:	90 a3       	std	Z+32, r25	; 0x20
    1e5e:	a1 a3       	std	Z+33, r26	; 0x21
    1e60:	b2 a3       	std	Z+34, r27	; 0x22
    1e62:	b5 01       	movw	r22, r10
    1e64:	a4 01       	movw	r20, r8
    1e66:	44 0d       	add	r20, r4
    1e68:	55 1d       	adc	r21, r5
    1e6a:	66 1d       	adc	r22, r6
    1e6c:	77 1d       	adc	r23, r7
    1e6e:	47 a3       	std	Z+39, r20	; 0x27
    1e70:	50 a7       	std	Z+40, r21	; 0x28
    1e72:	61 a7       	std	Z+41, r22	; 0x29
    1e74:	72 a7       	std	Z+42, r23	; 0x2a
    1e76:	22 24       	eor	r2, r2
    1e78:	23 94       	inc	r2
    1e7a:	31 2c       	mov	r3, r1
    1e7c:	cc ce       	rjmp	.-616    	; 0x1c16 <mount_volume+0x40a>
    1e7e:	6e 96       	adiw	r28, 0x1e	; 30
    1e80:	0f b6       	in	r0, 0x3f	; 63
    1e82:	f8 94       	cli
    1e84:	de bf       	out	0x3e, r29	; 62
    1e86:	0f be       	out	0x3f, r0	; 63
    1e88:	cd bf       	out	0x3d, r28	; 61
    1e8a:	df 91       	pop	r29
    1e8c:	cf 91       	pop	r28
    1e8e:	1f 91       	pop	r17
    1e90:	0f 91       	pop	r16
    1e92:	ff 90       	pop	r15
    1e94:	ef 90       	pop	r14
    1e96:	df 90       	pop	r13
    1e98:	cf 90       	pop	r12
    1e9a:	bf 90       	pop	r11
    1e9c:	af 90       	pop	r10
    1e9e:	9f 90       	pop	r9
    1ea0:	8f 90       	pop	r8
    1ea2:	7f 90       	pop	r7
    1ea4:	6f 90       	pop	r6
    1ea6:	5f 90       	pop	r5
    1ea8:	4f 90       	pop	r4
    1eaa:	3f 90       	pop	r3
    1eac:	2f 90       	pop	r2
    1eae:	08 95       	ret

00001eb0 <ld_clust>:
    1eb0:	0f 93       	push	r16
    1eb2:	1f 93       	push	r17
    1eb4:	dc 01       	movw	r26, r24
    1eb6:	fb 01       	movw	r30, r22
    1eb8:	93 8d       	ldd	r25, Z+27	; 0x1b
    1eba:	69 2f       	mov	r22, r25
    1ebc:	70 e0       	ldi	r23, 0x00	; 0
    1ebe:	76 2f       	mov	r23, r22
    1ec0:	66 27       	eor	r22, r22
    1ec2:	82 8d       	ldd	r24, Z+26	; 0x1a
    1ec4:	68 2b       	or	r22, r24
    1ec6:	80 e0       	ldi	r24, 0x00	; 0
    1ec8:	90 e0       	ldi	r25, 0x00	; 0
    1eca:	2c 91       	ld	r18, X
    1ecc:	23 30       	cpi	r18, 0x03	; 3
    1ece:	79 f4       	brne	.+30     	; 0x1eee <ld_clust+0x3e>
    1ed0:	05 89       	ldd	r16, Z+21	; 0x15
    1ed2:	10 e0       	ldi	r17, 0x00	; 0
    1ed4:	10 2f       	mov	r17, r16
    1ed6:	00 27       	eor	r16, r16
    1ed8:	24 89       	ldd	r18, Z+20	; 0x14
    1eda:	02 2b       	or	r16, r18
    1edc:	20 e0       	ldi	r18, 0x00	; 0
    1ede:	30 e0       	ldi	r19, 0x00	; 0
    1ee0:	98 01       	movw	r18, r16
    1ee2:	11 27       	eor	r17, r17
    1ee4:	00 27       	eor	r16, r16
    1ee6:	60 2b       	or	r22, r16
    1ee8:	71 2b       	or	r23, r17
    1eea:	82 2b       	or	r24, r18
    1eec:	93 2b       	or	r25, r19
    1eee:	1f 91       	pop	r17
    1ef0:	0f 91       	pop	r16
    1ef2:	08 95       	ret

00001ef4 <follow_path>:
    1ef4:	2f 92       	push	r2
    1ef6:	3f 92       	push	r3
    1ef8:	4f 92       	push	r4
    1efa:	5f 92       	push	r5
    1efc:	6f 92       	push	r6
    1efe:	7f 92       	push	r7
    1f00:	8f 92       	push	r8
    1f02:	9f 92       	push	r9
    1f04:	af 92       	push	r10
    1f06:	bf 92       	push	r11
    1f08:	cf 92       	push	r12
    1f0a:	df 92       	push	r13
    1f0c:	ef 92       	push	r14
    1f0e:	ff 92       	push	r15
    1f10:	0f 93       	push	r16
    1f12:	1f 93       	push	r17
    1f14:	cf 93       	push	r28
    1f16:	df 93       	push	r29
    1f18:	00 d0       	rcall	.+0      	; 0x1f1a <follow_path+0x26>
    1f1a:	1f 92       	push	r1
    1f1c:	cd b7       	in	r28, 0x3d	; 61
    1f1e:	de b7       	in	r29, 0x3e	; 62
    1f20:	9c 83       	std	Y+4, r25	; 0x04
    1f22:	8b 83       	std	Y+3, r24	; 0x03
    1f24:	dc 01       	movw	r26, r24
    1f26:	2d 90       	ld	r2, X+
    1f28:	3c 90       	ld	r3, X
    1f2a:	e6 2f       	mov	r30, r22
    1f2c:	f7 2f       	mov	r31, r23
    1f2e:	4f 01       	movw	r8, r30
    1f30:	81 91       	ld	r24, Z+
    1f32:	8f 32       	cpi	r24, 0x2F	; 47
    1f34:	e1 f3       	breq	.-8      	; 0x1f2e <follow_path+0x3a>
    1f36:	8c 35       	cpi	r24, 0x5C	; 92
    1f38:	d1 f3       	breq	.-12     	; 0x1f2e <follow_path+0x3a>
    1f3a:	eb 81       	ldd	r30, Y+3	; 0x03
    1f3c:	fc 81       	ldd	r31, Y+4	; 0x04
    1f3e:	df 01       	movw	r26, r30
    1f40:	16 82       	std	Z+6, r1	; 0x06
    1f42:	17 82       	std	Z+7, r1	; 0x07
    1f44:	10 86       	std	Z+8, r1	; 0x08
    1f46:	11 86       	std	Z+9, r1	; 0x09
    1f48:	f4 01       	movw	r30, r8
    1f4a:	80 81       	ld	r24, Z
    1f4c:	80 32       	cpi	r24, 0x20	; 32
    1f4e:	58 f4       	brcc	.+22     	; 0x1f66 <follow_path+0x72>
    1f50:	80 e8       	ldi	r24, 0x80	; 128
    1f52:	97 96       	adiw	r26, 0x27	; 39
    1f54:	8c 93       	st	X, r24
    1f56:	97 97       	sbiw	r26, 0x27	; 39
    1f58:	40 e0       	ldi	r20, 0x00	; 0
    1f5a:	50 e0       	ldi	r21, 0x00	; 0
    1f5c:	ba 01       	movw	r22, r20
    1f5e:	cd 01       	movw	r24, r26
    1f60:	0e 94 18 07 	call	0xe30	; 0xe30 <dir_sdi>
    1f64:	0f c1       	rjmp	.+542    	; 0x2184 <__DATA_REGION_LENGTH__+0x184>
    1f66:	4b 80       	ldd	r4, Y+3	; 0x03
    1f68:	5c 80       	ldd	r5, Y+4	; 0x04
    1f6a:	fc e1       	ldi	r31, 0x1C	; 28
    1f6c:	4f 0e       	add	r4, r31
    1f6e:	51 1c       	adc	r5, r1
    1f70:	eb 80       	ldd	r14, Y+3	; 0x03
    1f72:	fc 80       	ldd	r15, Y+4	; 0x04
    1f74:	27 e2       	ldi	r18, 0x27	; 39
    1f76:	e2 0e       	add	r14, r18
    1f78:	f1 1c       	adc	r15, r1
    1f7a:	10 e2       	ldi	r17, 0x20	; 32
    1f7c:	a1 2c       	mov	r10, r1
    1f7e:	b1 2c       	mov	r11, r1
    1f80:	38 e0       	ldi	r19, 0x08	; 8
    1f82:	39 83       	std	Y+1, r19	; 0x01
    1f84:	1a 82       	std	Y+2, r1	; 0x02
    1f86:	31 01       	movw	r6, r2
    1f88:	4f e2       	ldi	r20, 0x2F	; 47
    1f8a:	64 0e       	add	r6, r20
    1f8c:	71 1c       	adc	r7, r1
    1f8e:	f2 01       	movw	r30, r4
    1f90:	11 93       	st	Z+, r17
    1f92:	ee 15       	cp	r30, r14
    1f94:	ff 05       	cpc	r31, r15
    1f96:	e1 f7       	brne	.-8      	; 0x1f90 <follow_path+0x9c>
    1f98:	f4 01       	movw	r30, r8
    1f9a:	ca 2c       	mov	r12, r10
    1f9c:	db 2c       	mov	r13, r11
    1f9e:	20 e0       	ldi	r18, 0x00	; 0
    1fa0:	30 e0       	ldi	r19, 0x00	; 0
    1fa2:	68 e0       	ldi	r22, 0x08	; 8
    1fa4:	70 e0       	ldi	r23, 0x00	; 0
    1fa6:	2f 5f       	subi	r18, 0xFF	; 255
    1fa8:	3f 4f       	sbci	r19, 0xFF	; 255
    1faa:	01 91       	ld	r16, Z+
    1fac:	01 32       	cpi	r16, 0x21	; 33
    1fae:	a8 f1       	brcs	.+106    	; 0x201a <__DATA_REGION_LENGTH__+0x1a>
    1fb0:	0f 32       	cpi	r16, 0x2F	; 47
    1fb2:	11 f0       	breq	.+4      	; 0x1fb8 <follow_path+0xc4>
    1fb4:	0c 35       	cpi	r16, 0x5C	; 92
    1fb6:	61 f4       	brne	.+24     	; 0x1fd0 <follow_path+0xdc>
    1fb8:	f4 01       	movw	r30, r8
    1fba:	e2 0f       	add	r30, r18
    1fbc:	f3 1f       	adc	r31, r19
    1fbe:	02 c0       	rjmp	.+4      	; 0x1fc4 <follow_path+0xd0>
    1fc0:	2f 5f       	subi	r18, 0xFF	; 255
    1fc2:	3f 4f       	sbci	r19, 0xFF	; 255
    1fc4:	81 91       	ld	r24, Z+
    1fc6:	8f 32       	cpi	r24, 0x2F	; 47
    1fc8:	d9 f3       	breq	.-10     	; 0x1fc0 <follow_path+0xcc>
    1fca:	8c 35       	cpi	r24, 0x5C	; 92
    1fcc:	c9 f3       	breq	.-14     	; 0x1fc0 <follow_path+0xcc>
    1fce:	25 c0       	rjmp	.+74     	; 0x201a <__DATA_REGION_LENGTH__+0x1a>
    1fd0:	0e 32       	cpi	r16, 0x2E	; 46
    1fd2:	09 f4       	brne	.+2      	; 0x1fd6 <follow_path+0xe2>
    1fd4:	cf c0       	rjmp	.+414    	; 0x2174 <__DATA_REGION_LENGTH__+0x174>
    1fd6:	c6 16       	cp	r12, r22
    1fd8:	d7 06       	cpc	r13, r23
    1fda:	08 f0       	brcs	.+2      	; 0x1fde <follow_path+0xea>
    1fdc:	94 c0       	rjmp	.+296    	; 0x2106 <__DATA_REGION_LENGTH__+0x106>
    1fde:	00 23       	and	r16, r16
    1fe0:	0c f0       	brlt	.+2      	; 0x1fe4 <follow_path+0xf0>
    1fe2:	9d c0       	rjmp	.+314    	; 0x211e <__DATA_REGION_LENGTH__+0x11e>
    1fe4:	a0 2f       	mov	r26, r16
    1fe6:	af 77       	andi	r26, 0x7F	; 127
    1fe8:	b0 e0       	ldi	r27, 0x00	; 0
    1fea:	a3 5c       	subi	r26, 0xC3	; 195
    1fec:	bd 4f       	sbci	r27, 0xFD	; 253
    1fee:	0c 91       	ld	r16, X
    1ff0:	96 c0       	rjmp	.+300    	; 0x211e <__DATA_REGION_LENGTH__+0x11e>
    1ff2:	8d 91       	ld	r24, X+
    1ff4:	88 23       	and	r24, r24
    1ff6:	09 f4       	brne	.+2      	; 0x1ffa <follow_path+0x106>
    1ff8:	9a c0       	rjmp	.+308    	; 0x212e <__DATA_REGION_LENGTH__+0x12e>
    1ffa:	90 e0       	ldi	r25, 0x00	; 0
    1ffc:	48 17       	cp	r20, r24
    1ffe:	59 07       	cpc	r21, r25
    2000:	c1 f7       	brne	.-16     	; 0x1ff2 <follow_path+0xfe>
    2002:	86 e0       	ldi	r24, 0x06	; 6
    2004:	bf c0       	rjmp	.+382    	; 0x2184 <__DATA_REGION_LENGTH__+0x184>
    2006:	00 52       	subi	r16, 0x20	; 32
    2008:	d2 01       	movw	r26, r4
    200a:	ac 0d       	add	r26, r12
    200c:	bd 1d       	adc	r27, r13
    200e:	0c 93       	st	X, r16
    2010:	a6 01       	movw	r20, r12
    2012:	4f 5f       	subi	r20, 0xFF	; 255
    2014:	5f 4f       	sbci	r21, 0xFF	; 255
    2016:	6a 01       	movw	r12, r20
    2018:	c6 cf       	rjmp	.-116    	; 0x1fa6 <follow_path+0xb2>
    201a:	82 0e       	add	r8, r18
    201c:	93 1e       	adc	r9, r19
    201e:	cd 28       	or	r12, r13
    2020:	09 f4       	brne	.+2      	; 0x2024 <__DATA_REGION_LENGTH__+0x24>
    2022:	73 c0       	rjmp	.+230    	; 0x210a <__DATA_REGION_LENGTH__+0x10a>
    2024:	ab 81       	ldd	r26, Y+3	; 0x03
    2026:	bc 81       	ldd	r27, Y+4	; 0x04
    2028:	5c 96       	adiw	r26, 0x1c	; 28
    202a:	8c 91       	ld	r24, X
    202c:	5c 97       	sbiw	r26, 0x1c	; 28
    202e:	85 3e       	cpi	r24, 0xE5	; 229
    2030:	19 f4       	brne	.+6      	; 0x2038 <__DATA_REGION_LENGTH__+0x38>
    2032:	e5 e0       	ldi	r30, 0x05	; 5
    2034:	5c 96       	adiw	r26, 0x1c	; 28
    2036:	ec 93       	st	X, r30
    2038:	01 32       	cpi	r16, 0x21	; 33
    203a:	10 f0       	brcs	.+4      	; 0x2040 <__DATA_REGION_LENGTH__+0x40>
    203c:	80 e0       	ldi	r24, 0x00	; 0
    203e:	01 c0       	rjmp	.+2      	; 0x2042 <__DATA_REGION_LENGTH__+0x42>
    2040:	84 e0       	ldi	r24, 0x04	; 4
    2042:	ab 81       	ldd	r26, Y+3	; 0x03
    2044:	bc 81       	ldd	r27, Y+4	; 0x04
    2046:	97 96       	adiw	r26, 0x27	; 39
    2048:	8c 93       	st	X, r24
    204a:	97 97       	sbiw	r26, 0x27	; 39
    204c:	cd 90       	ld	r12, X+
    204e:	dc 90       	ld	r13, X
    2050:	11 97       	sbiw	r26, 0x01	; 1
    2052:	40 e0       	ldi	r20, 0x00	; 0
    2054:	50 e0       	ldi	r21, 0x00	; 0
    2056:	ba 01       	movw	r22, r20
    2058:	cd 01       	movw	r24, r26
    205a:	0e 94 18 07 	call	0xe30	; 0xe30 <dir_sdi>
    205e:	81 11       	cpse	r24, r1
    2060:	6c c0       	rjmp	.+216    	; 0x213a <__DATA_REGION_LENGTH__+0x13a>
    2062:	ab 81       	ldd	r26, Y+3	; 0x03
    2064:	bc 81       	ldd	r27, Y+4	; 0x04
    2066:	56 96       	adiw	r26, 0x16	; 22
    2068:	4d 91       	ld	r20, X+
    206a:	5d 91       	ld	r21, X+
    206c:	6d 91       	ld	r22, X+
    206e:	7c 91       	ld	r23, X
    2070:	59 97       	sbiw	r26, 0x19	; 25
    2072:	c6 01       	movw	r24, r12
    2074:	0e 94 0b 04 	call	0x816	; 0x816 <move_window>
    2078:	81 11       	cpse	r24, r1
    207a:	60 c0       	rjmp	.+192    	; 0x213c <__DATA_REGION_LENGTH__+0x13c>
    207c:	eb 81       	ldd	r30, Y+3	; 0x03
    207e:	fc 81       	ldd	r31, Y+4	; 0x04
    2080:	42 8d       	ldd	r20, Z+26	; 0x1a
    2082:	53 8d       	ldd	r21, Z+27	; 0x1b
    2084:	da 01       	movw	r26, r20
    2086:	9c 91       	ld	r25, X
    2088:	99 23       	and	r25, r25
    208a:	11 f1       	breq	.+68     	; 0x20d0 <__DATA_REGION_LENGTH__+0xd0>
    208c:	1b 96       	adiw	r26, 0x0b	; 11
    208e:	6c 91       	ld	r22, X
    2090:	1b 97       	sbiw	r26, 0x0b	; 11
    2092:	96 2f       	mov	r25, r22
    2094:	9f 73       	andi	r25, 0x3F	; 63
    2096:	94 83       	std	Z+4, r25	; 0x04
    2098:	1b 96       	adiw	r26, 0x0b	; 11
    209a:	9c 91       	ld	r25, X
    209c:	93 ff       	sbrs	r25, 3
    209e:	5b c0       	rjmp	.+182    	; 0x2156 <__DATA_REGION_LENGTH__+0x156>
    20a0:	0f c0       	rjmp	.+30     	; 0x20c0 <__DATA_REGION_LENGTH__+0xc0>
    20a2:	21 91       	ld	r18, Z+
    20a4:	9d 91       	ld	r25, X+
    20a6:	30 e0       	ldi	r19, 0x00	; 0
    20a8:	29 1b       	sub	r18, r25
    20aa:	31 09       	sbc	r19, r1
    20ac:	4e 17       	cp	r20, r30
    20ae:	5f 07       	cpc	r21, r31
    20b0:	19 f0       	breq	.+6      	; 0x20b8 <__DATA_REGION_LENGTH__+0xb8>
    20b2:	23 2b       	or	r18, r19
    20b4:	b1 f3       	breq	.-20     	; 0x20a2 <__DATA_REGION_LENGTH__+0xa2>
    20b6:	04 c0       	rjmp	.+8      	; 0x20c0 <__DATA_REGION_LENGTH__+0xc0>
    20b8:	87 2f       	mov	r24, r23
    20ba:	23 2b       	or	r18, r19
    20bc:	09 f4       	brne	.+2      	; 0x20c0 <__DATA_REGION_LENGTH__+0xc0>
    20be:	45 c0       	rjmp	.+138    	; 0x214a <__DATA_REGION_LENGTH__+0x14a>
    20c0:	6a 2d       	mov	r22, r10
    20c2:	7b 2d       	mov	r23, r11
    20c4:	8b 81       	ldd	r24, Y+3	; 0x03
    20c6:	9c 81       	ldd	r25, Y+4	; 0x04
    20c8:	8f d9       	rcall	.-3298   	; 0x13e8 <dir_next>
    20ca:	88 23       	and	r24, r24
    20cc:	51 f2       	breq	.-108    	; 0x2062 <__DATA_REGION_LENGTH__+0x62>
    20ce:	36 c0       	rjmp	.+108    	; 0x213c <__DATA_REGION_LENGTH__+0x13c>
    20d0:	eb 81       	ldd	r30, Y+3	; 0x03
    20d2:	fc 81       	ldd	r31, Y+4	; 0x04
    20d4:	97 a1       	ldd	r25, Z+39	; 0x27
    20d6:	92 fd       	sbrc	r25, 2
    20d8:	1a c0       	rjmp	.+52     	; 0x210e <__DATA_REGION_LENGTH__+0x10e>
    20da:	85 e0       	ldi	r24, 0x05	; 5
    20dc:	53 c0       	rjmp	.+166    	; 0x2184 <__DATA_REGION_LENGTH__+0x184>
    20de:	64 ff       	sbrs	r22, 4
    20e0:	18 c0       	rjmp	.+48     	; 0x2112 <__DATA_REGION_LENGTH__+0x112>
    20e2:	ab 81       	ldd	r26, Y+3	; 0x03
    20e4:	bc 81       	ldd	r27, Y+4	; 0x04
    20e6:	1e 96       	adiw	r26, 0x0e	; 14
    20e8:	6d 91       	ld	r22, X+
    20ea:	7c 91       	ld	r23, X
    20ec:	1f 97       	sbiw	r26, 0x0f	; 15
    20ee:	71 70       	andi	r23, 0x01	; 1
    20f0:	66 0d       	add	r22, r6
    20f2:	77 1d       	adc	r23, r7
    20f4:	c1 01       	movw	r24, r2
    20f6:	dc de       	rcall	.-584    	; 0x1eb0 <ld_clust>
    20f8:	eb 81       	ldd	r30, Y+3	; 0x03
    20fa:	fc 81       	ldd	r31, Y+4	; 0x04
    20fc:	66 83       	std	Z+6, r22	; 0x06
    20fe:	77 83       	std	Z+7, r23	; 0x07
    2100:	80 87       	std	Z+8, r24	; 0x08
    2102:	91 87       	std	Z+9, r25	; 0x09
    2104:	44 cf       	rjmp	.-376    	; 0x1f8e <follow_path+0x9a>
    2106:	86 e0       	ldi	r24, 0x06	; 6
    2108:	3d c0       	rjmp	.+122    	; 0x2184 <__DATA_REGION_LENGTH__+0x184>
    210a:	86 e0       	ldi	r24, 0x06	; 6
    210c:	3b c0       	rjmp	.+118    	; 0x2184 <__DATA_REGION_LENGTH__+0x184>
    210e:	84 e0       	ldi	r24, 0x04	; 4
    2110:	39 c0       	rjmp	.+114    	; 0x2184 <__DATA_REGION_LENGTH__+0x184>
    2112:	85 e0       	ldi	r24, 0x05	; 5
    2114:	37 c0       	rjmp	.+110    	; 0x2184 <__DATA_REGION_LENGTH__+0x184>
    2116:	86 e0       	ldi	r24, 0x06	; 6
    2118:	35 c0       	rjmp	.+106    	; 0x2184 <__DATA_REGION_LENGTH__+0x184>
    211a:	86 e0       	ldi	r24, 0x06	; 6
    211c:	33 c0       	rjmp	.+102    	; 0x2184 <__DATA_REGION_LENGTH__+0x184>
    211e:	40 2f       	mov	r20, r16
    2120:	50 e0       	ldi	r21, 0x00	; 0
    2122:	42 32       	cpi	r20, 0x22	; 34
    2124:	51 05       	cpc	r21, r1
    2126:	b9 f3       	breq	.-18     	; 0x2116 <__DATA_REGION_LENGTH__+0x116>
    2128:	af e2       	ldi	r26, 0x2F	; 47
    212a:	b2 e0       	ldi	r27, 0x02	; 2
    212c:	62 cf       	rjmp	.-316    	; 0x1ff2 <follow_path+0xfe>
    212e:	8f e9       	ldi	r24, 0x9F	; 159
    2130:	80 0f       	add	r24, r16
    2132:	8a 31       	cpi	r24, 0x1A	; 26
    2134:	08 f4       	brcc	.+2      	; 0x2138 <__DATA_REGION_LENGTH__+0x138>
    2136:	67 cf       	rjmp	.-306    	; 0x2006 <__DATA_REGION_LENGTH__+0x6>
    2138:	67 cf       	rjmp	.-306    	; 0x2008 <__DATA_REGION_LENGTH__+0x8>
    213a:	00 c0       	rjmp	.+0      	; 0x213c <__DATA_REGION_LENGTH__+0x13c>
    213c:	ab 81       	ldd	r26, Y+3	; 0x03
    213e:	bc 81       	ldd	r27, Y+4	; 0x04
    2140:	97 96       	adiw	r26, 0x27	; 39
    2142:	9c 91       	ld	r25, X
    2144:	84 30       	cpi	r24, 0x04	; 4
    2146:	f1 f4       	brne	.+60     	; 0x2184 <__DATA_REGION_LENGTH__+0x184>
    2148:	c6 cf       	rjmp	.-116    	; 0x20d6 <__DATA_REGION_LENGTH__+0xd6>
    214a:	eb 81       	ldd	r30, Y+3	; 0x03
    214c:	fc 81       	ldd	r31, Y+4	; 0x04
    214e:	97 a1       	ldd	r25, Z+39	; 0x27
    2150:	92 ff       	sbrs	r25, 2
    2152:	c5 cf       	rjmp	.-118    	; 0x20de <__DATA_REGION_LENGTH__+0xde>
    2154:	17 c0       	rjmp	.+46     	; 0x2184 <__DATA_REGION_LENGTH__+0x184>
    2156:	fa 01       	movw	r30, r20
    2158:	21 91       	ld	r18, Z+
    215a:	30 e0       	ldi	r19, 0x00	; 0
    215c:	ab 81       	ldd	r26, Y+3	; 0x03
    215e:	bc 81       	ldd	r27, Y+4	; 0x04
    2160:	5c 96       	adiw	r26, 0x1c	; 28
    2162:	9c 91       	ld	r25, X
    2164:	5c 97       	sbiw	r26, 0x1c	; 28
    2166:	29 1b       	sub	r18, r25
    2168:	31 09       	sbc	r19, r1
    216a:	5d 96       	adiw	r26, 0x1d	; 29
    216c:	45 5f       	subi	r20, 0xF5	; 245
    216e:	5f 4f       	sbci	r21, 0xFF	; 255
    2170:	78 2f       	mov	r23, r24
    2172:	9f cf       	rjmp	.-194    	; 0x20b2 <__DATA_REGION_LENGTH__+0xb2>
    2174:	6b 30       	cpi	r22, 0x0B	; 11
    2176:	71 05       	cpc	r23, r1
    2178:	81 f2       	breq	.-96     	; 0x211a <__DATA_REGION_LENGTH__+0x11a>
    217a:	c9 80       	ldd	r12, Y+1	; 0x01
    217c:	da 80       	ldd	r13, Y+2	; 0x02
    217e:	6b e0       	ldi	r22, 0x0B	; 11
    2180:	70 e0       	ldi	r23, 0x00	; 0
    2182:	11 cf       	rjmp	.-478    	; 0x1fa6 <follow_path+0xb2>
    2184:	0f 90       	pop	r0
    2186:	0f 90       	pop	r0
    2188:	0f 90       	pop	r0
    218a:	0f 90       	pop	r0
    218c:	df 91       	pop	r29
    218e:	cf 91       	pop	r28
    2190:	1f 91       	pop	r17
    2192:	0f 91       	pop	r16
    2194:	ff 90       	pop	r15
    2196:	ef 90       	pop	r14
    2198:	df 90       	pop	r13
    219a:	cf 90       	pop	r12
    219c:	bf 90       	pop	r11
    219e:	af 90       	pop	r10
    21a0:	9f 90       	pop	r9
    21a2:	8f 90       	pop	r8
    21a4:	7f 90       	pop	r7
    21a6:	6f 90       	pop	r6
    21a8:	5f 90       	pop	r5
    21aa:	4f 90       	pop	r4
    21ac:	3f 90       	pop	r3
    21ae:	2f 90       	pop	r2
    21b0:	08 95       	ret

000021b2 <f_mount>:
    21b2:	1f 93       	push	r17
    21b4:	cf 93       	push	r28
    21b6:	df 93       	push	r29
    21b8:	00 d0       	rcall	.+0      	; 0x21ba <f_mount+0x8>
    21ba:	00 d0       	rcall	.+0      	; 0x21bc <f_mount+0xa>
    21bc:	cd b7       	in	r28, 0x3d	; 61
    21be:	de b7       	in	r29, 0x3e	; 62
    21c0:	9c 83       	std	Y+4, r25	; 0x04
    21c2:	8b 83       	std	Y+3, r24	; 0x03
    21c4:	7e 83       	std	Y+6, r23	; 0x06
    21c6:	6d 83       	std	Y+5, r22	; 0x05
    21c8:	14 2f       	mov	r17, r20
    21ca:	7a 83       	std	Y+2, r23	; 0x02
    21cc:	69 83       	std	Y+1, r22	; 0x01
    21ce:	ce 01       	movw	r24, r28
    21d0:	01 96       	adiw	r24, 0x01	; 1
    21d2:	0e 94 51 03 	call	0x6a2	; 0x6a2 <get_ldnumber>
    21d6:	99 23       	and	r25, r25
    21d8:	1c f1       	brlt	.+70     	; 0x2220 <__stack+0x21>
    21da:	fc 01       	movw	r30, r24
    21dc:	ee 0f       	add	r30, r30
    21de:	ff 1f       	adc	r31, r31
    21e0:	e0 59       	subi	r30, 0x90	; 144
    21e2:	f2 4f       	sbci	r31, 0xF2	; 242
    21e4:	01 90       	ld	r0, Z+
    21e6:	f0 81       	ld	r31, Z
    21e8:	e0 2d       	mov	r30, r0
    21ea:	30 97       	sbiw	r30, 0x00	; 0
    21ec:	09 f0       	breq	.+2      	; 0x21f0 <f_mount+0x3e>
    21ee:	10 82       	st	Z, r1
    21f0:	eb 81       	ldd	r30, Y+3	; 0x03
    21f2:	fc 81       	ldd	r31, Y+4	; 0x04
    21f4:	30 97       	sbiw	r30, 0x00	; 0
    21f6:	09 f0       	breq	.+2      	; 0x21fa <f_mount+0x48>
    21f8:	10 82       	st	Z, r1
    21fa:	88 0f       	add	r24, r24
    21fc:	99 1f       	adc	r25, r25
    21fe:	fc 01       	movw	r30, r24
    2200:	e0 59       	subi	r30, 0x90	; 144
    2202:	f2 4f       	sbci	r31, 0xF2	; 242
    2204:	8b 81       	ldd	r24, Y+3	; 0x03
    2206:	9c 81       	ldd	r25, Y+4	; 0x04
    2208:	91 83       	std	Z+1, r25	; 0x01
    220a:	80 83       	st	Z, r24
    220c:	11 23       	and	r17, r17
    220e:	51 f0       	breq	.+20     	; 0x2224 <__stack+0x25>
    2210:	40 e0       	ldi	r20, 0x00	; 0
    2212:	be 01       	movw	r22, r28
    2214:	6d 5f       	subi	r22, 0xFD	; 253
    2216:	7f 4f       	sbci	r23, 0xFF	; 255
    2218:	ce 01       	movw	r24, r28
    221a:	05 96       	adiw	r24, 0x05	; 5
    221c:	f7 da       	rcall	.-2578   	; 0x180c <mount_volume>
    221e:	03 c0       	rjmp	.+6      	; 0x2226 <__stack+0x27>
    2220:	8b e0       	ldi	r24, 0x0B	; 11
    2222:	01 c0       	rjmp	.+2      	; 0x2226 <__stack+0x27>
    2224:	80 e0       	ldi	r24, 0x00	; 0
    2226:	26 96       	adiw	r28, 0x06	; 6
    2228:	0f b6       	in	r0, 0x3f	; 63
    222a:	f8 94       	cli
    222c:	de bf       	out	0x3e, r29	; 62
    222e:	0f be       	out	0x3f, r0	; 63
    2230:	cd bf       	out	0x3d, r28	; 61
    2232:	df 91       	pop	r29
    2234:	cf 91       	pop	r28
    2236:	1f 91       	pop	r17
    2238:	08 95       	ret

0000223a <f_open>:
    223a:	2f 92       	push	r2
    223c:	3f 92       	push	r3
    223e:	4f 92       	push	r4
    2240:	5f 92       	push	r5
    2242:	6f 92       	push	r6
    2244:	7f 92       	push	r7
    2246:	8f 92       	push	r8
    2248:	9f 92       	push	r9
    224a:	af 92       	push	r10
    224c:	bf 92       	push	r11
    224e:	cf 92       	push	r12
    2250:	df 92       	push	r13
    2252:	ef 92       	push	r14
    2254:	ff 92       	push	r15
    2256:	0f 93       	push	r16
    2258:	1f 93       	push	r17
    225a:	cf 93       	push	r28
    225c:	df 93       	push	r29
    225e:	cd b7       	in	r28, 0x3d	; 61
    2260:	de b7       	in	r29, 0x3e	; 62
    2262:	ac 97       	sbiw	r28, 0x2c	; 44
    2264:	0f b6       	in	r0, 0x3f	; 63
    2266:	f8 94       	cli
    2268:	de bf       	out	0x3e, r29	; 62
    226a:	0f be       	out	0x3f, r0	; 63
    226c:	cd bf       	out	0x3d, r28	; 61
    226e:	7c a7       	std	Y+44, r23	; 0x2c
    2270:	6b a7       	std	Y+43, r22	; 0x2b
    2272:	00 97       	sbiw	r24, 0x00	; 0
    2274:	09 f4       	brne	.+2      	; 0x2278 <f_open+0x3e>
    2276:	38 c1       	rjmp	.+624    	; 0x24e8 <f_open+0x2ae>
    2278:	14 2f       	mov	r17, r20
    227a:	7c 01       	movw	r14, r24
    227c:	84 2f       	mov	r24, r20
    227e:	8f 73       	andi	r24, 0x3F	; 63
    2280:	d8 2e       	mov	r13, r24
    2282:	48 2f       	mov	r20, r24
    2284:	be 01       	movw	r22, r28
    2286:	67 5d       	subi	r22, 0xD7	; 215
    2288:	7f 4f       	sbci	r23, 0xFF	; 255
    228a:	ce 01       	movw	r24, r28
    228c:	8b 96       	adiw	r24, 0x2b	; 43
    228e:	be da       	rcall	.-2692   	; 0x180c <mount_volume>
    2290:	81 11       	cpse	r24, r1
    2292:	26 c1       	rjmp	.+588    	; 0x24e0 <f_open+0x2a6>
    2294:	89 a5       	ldd	r24, Y+41	; 0x29
    2296:	9a a5       	ldd	r25, Y+42	; 0x2a
    2298:	9a 83       	std	Y+2, r25	; 0x02
    229a:	89 83       	std	Y+1, r24	; 0x01
    229c:	6b a5       	ldd	r22, Y+43	; 0x2b
    229e:	7c a5       	ldd	r23, Y+44	; 0x2c
    22a0:	ce 01       	movw	r24, r28
    22a2:	01 96       	adiw	r24, 0x01	; 1
    22a4:	27 de       	rcall	.-946    	; 0x1ef4 <follow_path>
    22a6:	81 11       	cpse	r24, r1
    22a8:	21 c1       	rjmp	.+578    	; 0x24ec <f_open+0x2b2>
    22aa:	88 a5       	ldd	r24, Y+40	; 0x28
    22ac:	88 23       	and	r24, r24
    22ae:	0c f0       	brlt	.+2      	; 0x22b2 <f_open+0x78>
    22b0:	26 c1       	rjmp	.+588    	; 0x24fe <f_open+0x2c4>
    22b2:	20 c1       	rjmp	.+576    	; 0x24f4 <f_open+0x2ba>
    22b4:	84 30       	cpi	r24, 0x04	; 4
    22b6:	09 f0       	breq	.+2      	; 0x22ba <f_open+0x80>
    22b8:	4a c1       	rjmp	.+660    	; 0x254e <f_open+0x314>
    22ba:	ce 01       	movw	r24, r28
    22bc:	01 96       	adiw	r24, 0x01	; 1
    22be:	8f d9       	rcall	.-3298   	; 0x15de <dir_register>
    22c0:	9d 2d       	mov	r25, r13
    22c2:	98 60       	ori	r25, 0x08	; 8
    22c4:	d9 2e       	mov	r13, r25
    22c6:	88 23       	and	r24, r24
    22c8:	39 f0       	breq	.+14     	; 0x22d8 <f_open+0x9e>
    22ca:	0a c1       	rjmp	.+532    	; 0x24e0 <f_open+0x2a6>
    22cc:	8d 81       	ldd	r24, Y+5	; 0x05
    22ce:	81 71       	andi	r24, 0x11	; 17
    22d0:	09 f0       	breq	.+2      	; 0x22d4 <f_open+0x9a>
    22d2:	66 c1       	rjmp	.+716    	; 0x25a0 <f_open+0x366>
    22d4:	12 fd       	sbrc	r17, 2
    22d6:	66 c1       	rjmp	.+716    	; 0x25a4 <f_open+0x36a>
    22d8:	d3 fe       	sbrs	r13, 3
    22da:	5d c0       	rjmp	.+186    	; 0x2396 <f_open+0x15c>
    22dc:	eb 8d       	ldd	r30, Y+27	; 0x1b
    22de:	fc 8d       	ldd	r31, Y+28	; 0x1c
    22e0:	16 86       	std	Z+14, r1	; 0x0e
    22e2:	17 86       	std	Z+15, r1	; 0x0f
    22e4:	9f e6       	ldi	r25, 0x6F	; 111
    22e6:	90 8b       	std	Z+16, r25	; 0x10
    22e8:	82 e5       	ldi	r24, 0x52	; 82
    22ea:	81 8b       	std	Z+17, r24	; 0x11
    22ec:	eb 8d       	ldd	r30, Y+27	; 0x1b
    22ee:	fc 8d       	ldd	r31, Y+28	; 0x1c
    22f0:	16 8a       	std	Z+22, r1	; 0x16
    22f2:	17 8a       	std	Z+23, r1	; 0x17
    22f4:	90 8f       	std	Z+24, r25	; 0x18
    22f6:	81 8f       	std	Z+25, r24	; 0x19
    22f8:	ab 8c       	ldd	r10, Y+27	; 0x1b
    22fa:	bc 8c       	ldd	r11, Y+28	; 0x1c
    22fc:	09 a5       	ldd	r16, Y+41	; 0x29
    22fe:	1a a5       	ldd	r17, Y+42	; 0x2a
    2300:	b5 01       	movw	r22, r10
    2302:	c8 01       	movw	r24, r16
    2304:	d5 dd       	rcall	.-1110   	; 0x1eb0 <ld_clust>
    2306:	2b 01       	movw	r4, r22
    2308:	3c 01       	movw	r6, r24
    230a:	80 e2       	ldi	r24, 0x20	; 32
    230c:	f5 01       	movw	r30, r10
    230e:	83 87       	std	Z+11, r24	; 0x0b
    2310:	6b 8d       	ldd	r22, Y+27	; 0x1b
    2312:	7c 8d       	ldd	r23, Y+28	; 0x1c
    2314:	20 e0       	ldi	r18, 0x00	; 0
    2316:	30 e0       	ldi	r19, 0x00	; 0
    2318:	a9 01       	movw	r20, r18
    231a:	c8 01       	movw	r24, r16
    231c:	0e 94 31 06 	call	0xc62	; 0xc62 <st_clust>
    2320:	eb 8d       	ldd	r30, Y+27	; 0x1b
    2322:	fc 8d       	ldd	r31, Y+28	; 0x1c
    2324:	14 8e       	std	Z+28, r1	; 0x1c
    2326:	15 8e       	std	Z+29, r1	; 0x1d
    2328:	16 8e       	std	Z+30, r1	; 0x1e
    232a:	17 8e       	std	Z+31, r1	; 0x1f
    232c:	e9 a5       	ldd	r30, Y+41	; 0x29
    232e:	fa a5       	ldd	r31, Y+42	; 0x2a
    2330:	81 e0       	ldi	r24, 0x01	; 1
    2332:	83 83       	std	Z+3, r24	; 0x03
    2334:	41 14       	cp	r4, r1
    2336:	51 04       	cpc	r5, r1
    2338:	61 04       	cpc	r6, r1
    233a:	71 04       	cpc	r7, r1
    233c:	49 f1       	breq	.+82     	; 0x2390 <f_open+0x156>
    233e:	83 a4       	ldd	r8, Z+43	; 0x2b
    2340:	94 a4       	ldd	r9, Z+44	; 0x2c
    2342:	a5 a4       	ldd	r10, Z+45	; 0x2d
    2344:	b6 a4       	ldd	r11, Z+46	; 0x2e
    2346:	00 e0       	ldi	r16, 0x00	; 0
    2348:	10 e0       	ldi	r17, 0x00	; 0
    234a:	98 01       	movw	r18, r16
    234c:	b3 01       	movw	r22, r6
    234e:	a2 01       	movw	r20, r4
    2350:	ce 01       	movw	r24, r28
    2352:	01 96       	adiw	r24, 0x01	; 1
    2354:	0e 94 62 09 	call	0x12c4	; 0x12c4 <remove_chain>
    2358:	81 11       	cpse	r24, r1
    235a:	c2 c0       	rjmp	.+388    	; 0x24e0 <f_open+0x2a6>
    235c:	b5 01       	movw	r22, r10
    235e:	a4 01       	movw	r20, r8
    2360:	89 a5       	ldd	r24, Y+41	; 0x29
    2362:	9a a5       	ldd	r25, Y+42	; 0x2a
    2364:	0e 94 0b 04 	call	0x816	; 0x816 <move_window>
    2368:	e9 a5       	ldd	r30, Y+41	; 0x29
    236a:	fa a5       	ldd	r31, Y+42	; 0x2a
    236c:	91 e0       	ldi	r25, 0x01	; 1
    236e:	49 1a       	sub	r4, r25
    2370:	51 08       	sbc	r5, r1
    2372:	61 08       	sbc	r6, r1
    2374:	71 08       	sbc	r7, r1
    2376:	43 86       	std	Z+11, r4	; 0x0b
    2378:	54 86       	std	Z+12, r5	; 0x0c
    237a:	65 86       	std	Z+13, r6	; 0x0d
    237c:	76 86       	std	Z+14, r7	; 0x0e
    237e:	88 23       	and	r24, r24
    2380:	39 f0       	breq	.+14     	; 0x2390 <f_open+0x156>
    2382:	ae c0       	rjmp	.+348    	; 0x24e0 <f_open+0x2a6>
    2384:	11 ff       	sbrs	r17, 1
    2386:	02 c0       	rjmp	.+4      	; 0x238c <f_open+0x152>
    2388:	80 fd       	sbrc	r24, 0
    238a:	0e c1       	rjmp	.+540    	; 0x25a8 <f_open+0x36e>
    238c:	13 ff       	sbrs	r17, 3
    238e:	03 c0       	rjmp	.+6      	; 0x2396 <f_open+0x15c>
    2390:	ed 2d       	mov	r30, r13
    2392:	e0 64       	ori	r30, 0x40	; 64
    2394:	de 2e       	mov	r13, r30
    2396:	e9 a5       	ldd	r30, Y+41	; 0x29
    2398:	fa a5       	ldd	r31, Y+42	; 0x2a
    239a:	83 a5       	ldd	r24, Z+43	; 0x2b
    239c:	94 a5       	ldd	r25, Z+44	; 0x2c
    239e:	a5 a5       	ldd	r26, Z+45	; 0x2d
    23a0:	b6 a5       	ldd	r27, Z+46	; 0x2e
    23a2:	f7 01       	movw	r30, r14
    23a4:	84 8f       	std	Z+28, r24	; 0x1c
    23a6:	95 8f       	std	Z+29, r25	; 0x1d
    23a8:	a6 8f       	std	Z+30, r26	; 0x1e
    23aa:	b7 8f       	std	Z+31, r27	; 0x1f
    23ac:	8b 8d       	ldd	r24, Y+27	; 0x1b
    23ae:	9c 8d       	ldd	r25, Y+28	; 0x1c
    23b0:	91 a3       	std	Z+33, r25	; 0x21
    23b2:	80 a3       	std	Z+32, r24	; 0x20
    23b4:	ab 8c       	ldd	r10, Y+27	; 0x1b
    23b6:	bc 8c       	ldd	r11, Y+28	; 0x1c
    23b8:	09 a5       	ldd	r16, Y+41	; 0x29
    23ba:	1a a5       	ldd	r17, Y+42	; 0x2a
    23bc:	b5 01       	movw	r22, r10
    23be:	c8 01       	movw	r24, r16
    23c0:	77 dd       	rcall	.-1298   	; 0x1eb0 <ld_clust>
    23c2:	f7 01       	movw	r30, r14
    23c4:	66 83       	std	Z+6, r22	; 0x06
    23c6:	77 83       	std	Z+7, r23	; 0x07
    23c8:	80 87       	std	Z+8, r24	; 0x08
    23ca:	91 87       	std	Z+9, r25	; 0x09
    23cc:	c5 01       	movw	r24, r10
    23ce:	4c 96       	adiw	r24, 0x1c	; 28
    23d0:	0e 94 00 03 	call	0x600	; 0x600 <ld_dword>
    23d4:	f7 01       	movw	r30, r14
    23d6:	62 87       	std	Z+10, r22	; 0x0a
    23d8:	73 87       	std	Z+11, r23	; 0x0b
    23da:	84 87       	std	Z+12, r24	; 0x0c
    23dc:	95 87       	std	Z+13, r25	; 0x0d
    23de:	11 83       	std	Z+1, r17	; 0x01
    23e0:	00 83       	st	Z, r16
    23e2:	f8 01       	movw	r30, r16
    23e4:	85 81       	ldd	r24, Z+5	; 0x05
    23e6:	96 81       	ldd	r25, Z+6	; 0x06
    23e8:	f7 01       	movw	r30, r14
    23ea:	93 83       	std	Z+3, r25	; 0x03
    23ec:	82 83       	std	Z+2, r24	; 0x02
    23ee:	d6 86       	std	Z+14, r13	; 0x0e
    23f0:	17 86       	std	Z+15, r1	; 0x0f
    23f2:	10 8e       	std	Z+24, r1	; 0x18
    23f4:	11 8e       	std	Z+25, r1	; 0x19
    23f6:	12 8e       	std	Z+26, r1	; 0x1a
    23f8:	13 8e       	std	Z+27, r1	; 0x1b
    23fa:	10 8a       	std	Z+16, r1	; 0x10
    23fc:	11 8a       	std	Z+17, r1	; 0x11
    23fe:	12 8a       	std	Z+18, r1	; 0x12
    2400:	13 8a       	std	Z+19, r1	; 0x13
    2402:	17 01       	movw	r2, r14
    2404:	f2 e2       	ldi	r31, 0x22	; 34
    2406:	2f 0e       	add	r2, r31
    2408:	31 1c       	adc	r3, r1
    240a:	f1 01       	movw	r30, r2
    240c:	c7 01       	movw	r24, r14
    240e:	8e 5d       	subi	r24, 0xDE	; 222
    2410:	9d 4f       	sbci	r25, 0xFD	; 253
    2412:	11 92       	st	Z+, r1
    2414:	e8 17       	cp	r30, r24
    2416:	f9 07       	cpc	r31, r25
    2418:	e1 f7       	brne	.-8      	; 0x2412 <f_open+0x1d8>
    241a:	d5 fe       	sbrs	r13, 5
    241c:	91 c0       	rjmp	.+290    	; 0x2540 <f_open+0x306>
    241e:	f7 01       	movw	r30, r14
    2420:	42 84       	ldd	r4, Z+10	; 0x0a
    2422:	53 84       	ldd	r5, Z+11	; 0x0b
    2424:	64 84       	ldd	r6, Z+12	; 0x0c
    2426:	75 84       	ldd	r7, Z+13	; 0x0d
    2428:	41 14       	cp	r4, r1
    242a:	51 04       	cpc	r5, r1
    242c:	61 04       	cpc	r6, r1
    242e:	71 04       	cpc	r7, r1
    2430:	09 f4       	brne	.+2      	; 0x2434 <f_open+0x1fa>
    2432:	86 c0       	rjmp	.+268    	; 0x2540 <f_open+0x306>
    2434:	40 8a       	std	Z+16, r4	; 0x10
    2436:	51 8a       	std	Z+17, r5	; 0x11
    2438:	62 8a       	std	Z+18, r6	; 0x12
    243a:	73 8a       	std	Z+19, r7	; 0x13
    243c:	f8 01       	movw	r30, r16
    243e:	81 85       	ldd	r24, Z+9	; 0x09
    2440:	92 85       	ldd	r25, Z+10	; 0x0a
    2442:	a0 e0       	ldi	r26, 0x00	; 0
    2444:	b0 e0       	ldi	r27, 0x00	; 0
    2446:	4c 01       	movw	r8, r24
    2448:	5d 01       	movw	r10, r26
    244a:	07 2e       	mov	r0, r23
    244c:	79 e0       	ldi	r23, 0x09	; 9
    244e:	88 0c       	add	r8, r8
    2450:	99 1c       	adc	r9, r9
    2452:	aa 1c       	adc	r10, r10
    2454:	bb 1c       	adc	r11, r11
    2456:	7a 95       	dec	r23
    2458:	d1 f7       	brne	.-12     	; 0x244e <f_open+0x214>
    245a:	70 2d       	mov	r23, r0
    245c:	f7 01       	movw	r30, r14
    245e:	46 81       	ldd	r20, Z+6	; 0x06
    2460:	57 81       	ldd	r21, Z+7	; 0x07
    2462:	60 85       	ldd	r22, Z+8	; 0x08
    2464:	71 85       	ldd	r23, Z+9	; 0x09
    2466:	84 14       	cp	r8, r4
    2468:	95 04       	cpc	r9, r5
    246a:	a6 04       	cpc	r10, r6
    246c:	b7 04       	cpc	r11, r7
    246e:	08 f0       	brcs	.+2      	; 0x2472 <f_open+0x238>
    2470:	58 c0       	rjmp	.+176    	; 0x2522 <f_open+0x2e8>
    2472:	c7 01       	movw	r24, r14
    2474:	0e 94 3e 06 	call	0xc7c	; 0xc7c <get_fat>
    2478:	ab 01       	movw	r20, r22
    247a:	bc 01       	movw	r22, r24
    247c:	42 30       	cpi	r20, 0x02	; 2
    247e:	51 05       	cpc	r21, r1
    2480:	61 05       	cpc	r22, r1
    2482:	71 05       	cpc	r23, r1
    2484:	08 f0       	brcs	.+2      	; 0x2488 <f_open+0x24e>
    2486:	76 c0       	rjmp	.+236    	; 0x2574 <f_open+0x33a>
    2488:	83 c0       	rjmp	.+262    	; 0x2590 <f_open+0x356>
    248a:	c9 a4       	ldd	r12, Y+41	; 0x29
    248c:	da a4       	ldd	r13, Y+42	; 0x2a
    248e:	c6 01       	movw	r24, r12
    2490:	0e 94 29 03 	call	0x652	; 0x652 <clst2sect>
    2494:	61 15       	cp	r22, r1
    2496:	71 05       	cpc	r23, r1
    2498:	81 05       	cpc	r24, r1
    249a:	91 05       	cpc	r25, r1
    249c:	09 f4       	brne	.+2      	; 0x24a0 <f_open+0x266>
    249e:	52 c0       	rjmp	.+164    	; 0x2544 <f_open+0x30a>
    24a0:	93 01       	movw	r18, r6
    24a2:	82 01       	movw	r16, r4
    24a4:	0f 2e       	mov	r0, r31
    24a6:	f9 e0       	ldi	r31, 0x09	; 9
    24a8:	36 95       	lsr	r19
    24aa:	27 95       	ror	r18
    24ac:	17 95       	ror	r17
    24ae:	07 95       	ror	r16
    24b0:	fa 95       	dec	r31
    24b2:	d1 f7       	brne	.-12     	; 0x24a8 <f_open+0x26e>
    24b4:	f0 2d       	mov	r31, r0
    24b6:	a9 01       	movw	r20, r18
    24b8:	98 01       	movw	r18, r16
    24ba:	26 0f       	add	r18, r22
    24bc:	37 1f       	adc	r19, r23
    24be:	48 1f       	adc	r20, r24
    24c0:	59 1f       	adc	r21, r25
    24c2:	f7 01       	movw	r30, r14
    24c4:	20 8f       	std	Z+24, r18	; 0x18
    24c6:	31 8f       	std	Z+25, r19	; 0x19
    24c8:	42 8f       	std	Z+26, r20	; 0x1a
    24ca:	53 8f       	std	Z+27, r21	; 0x1b
    24cc:	01 e0       	ldi	r16, 0x01	; 1
    24ce:	10 e0       	ldi	r17, 0x00	; 0
    24d0:	b1 01       	movw	r22, r2
    24d2:	f6 01       	movw	r30, r12
    24d4:	81 81       	ldd	r24, Z+1	; 0x01
    24d6:	0e 94 80 02 	call	0x500	; 0x500 <disk_read>
    24da:	81 11       	cpse	r24, r1
    24dc:	35 c0       	rjmp	.+106    	; 0x2548 <f_open+0x30e>
    24de:	30 c0       	rjmp	.+96     	; 0x2540 <f_open+0x306>
    24e0:	f7 01       	movw	r30, r14
    24e2:	11 82       	std	Z+1, r1	; 0x01
    24e4:	10 82       	st	Z, r1
    24e6:	64 c0       	rjmp	.+200    	; 0x25b0 <f_open+0x376>
    24e8:	89 e0       	ldi	r24, 0x09	; 9
    24ea:	62 c0       	rjmp	.+196    	; 0x25b0 <f_open+0x376>
    24ec:	41 2f       	mov	r20, r17
    24ee:	4c 71       	andi	r20, 0x1C	; 28
    24f0:	59 f0       	breq	.+22     	; 0x2508 <f_open+0x2ce>
    24f2:	e0 ce       	rjmp	.-576    	; 0x22b4 <f_open+0x7a>
    24f4:	41 2f       	mov	r20, r17
    24f6:	4c 71       	andi	r20, 0x1C	; 28
    24f8:	49 f5       	brne	.+82     	; 0x254c <f_open+0x312>
    24fa:	86 e0       	ldi	r24, 0x06	; 6
    24fc:	05 c0       	rjmp	.+10     	; 0x2508 <f_open+0x2ce>
    24fe:	81 2f       	mov	r24, r17
    2500:	8c 71       	andi	r24, 0x1C	; 28
    2502:	09 f0       	breq	.+2      	; 0x2506 <f_open+0x2cc>
    2504:	e3 ce       	rjmp	.-570    	; 0x22cc <f_open+0x92>
    2506:	27 c0       	rjmp	.+78     	; 0x2556 <f_open+0x31c>
    2508:	81 11       	cpse	r24, r1
    250a:	ea cf       	rjmp	.-44     	; 0x24e0 <f_open+0x2a6>
    250c:	53 cf       	rjmp	.-346    	; 0x23b4 <f_open+0x17a>
    250e:	8f ef       	ldi	r24, 0xFF	; 255
    2510:	9f ef       	ldi	r25, 0xFF	; 255
    2512:	dc 01       	movw	r26, r24
    2514:	f7 01       	movw	r30, r14
    2516:	84 8b       	std	Z+20, r24	; 0x14
    2518:	95 8b       	std	Z+21, r25	; 0x15
    251a:	a6 8b       	std	Z+22, r26	; 0x16
    251c:	b7 8b       	std	Z+23, r27	; 0x17
    251e:	81 e0       	ldi	r24, 0x01	; 1
    2520:	df cf       	rjmp	.-66     	; 0x24e0 <f_open+0x2a6>
    2522:	f7 01       	movw	r30, r14
    2524:	44 8b       	std	Z+20, r20	; 0x14
    2526:	55 8b       	std	Z+21, r21	; 0x15
    2528:	66 8b       	std	Z+22, r22	; 0x16
    252a:	77 8b       	std	Z+23, r23	; 0x17
    252c:	d3 01       	movw	r26, r6
    252e:	c2 01       	movw	r24, r4
    2530:	91 70       	andi	r25, 0x01	; 1
    2532:	aa 27       	eor	r26, r26
    2534:	bb 27       	eor	r27, r27
    2536:	89 2b       	or	r24, r25
    2538:	8a 2b       	or	r24, r26
    253a:	8b 2b       	or	r24, r27
    253c:	09 f0       	breq	.+2      	; 0x2540 <f_open+0x306>
    253e:	a5 cf       	rjmp	.-182    	; 0x248a <f_open+0x250>
    2540:	80 e0       	ldi	r24, 0x00	; 0
    2542:	36 c0       	rjmp	.+108    	; 0x25b0 <f_open+0x376>
    2544:	82 e0       	ldi	r24, 0x02	; 2
    2546:	cc cf       	rjmp	.-104    	; 0x24e0 <f_open+0x2a6>
    2548:	81 e0       	ldi	r24, 0x01	; 1
    254a:	ca cf       	rjmp	.-108    	; 0x24e0 <f_open+0x2a6>
    254c:	86 e0       	ldi	r24, 0x06	; 6
    254e:	fd 2d       	mov	r31, r13
    2550:	f8 60       	ori	r31, 0x08	; 8
    2552:	df 2e       	mov	r13, r31
    2554:	d9 cf       	rjmp	.-78     	; 0x2508 <f_open+0x2ce>
    2556:	8d 81       	ldd	r24, Y+5	; 0x05
    2558:	84 fd       	sbrc	r24, 4
    255a:	28 c0       	rjmp	.+80     	; 0x25ac <f_open+0x372>
    255c:	13 cf       	rjmp	.-474    	; 0x2384 <f_open+0x14a>
    255e:	48 18       	sub	r4, r8
    2560:	59 08       	sbc	r5, r9
    2562:	6a 08       	sbc	r6, r10
    2564:	7b 08       	sbc	r7, r11
    2566:	84 14       	cp	r8, r4
    2568:	95 04       	cpc	r9, r5
    256a:	a6 04       	cpc	r10, r6
    256c:	b7 04       	cpc	r11, r7
    256e:	08 f4       	brcc	.+2      	; 0x2572 <f_open+0x338>
    2570:	80 cf       	rjmp	.-256    	; 0x2472 <f_open+0x238>
    2572:	d7 cf       	rjmp	.-82     	; 0x2522 <f_open+0x2e8>
    2574:	4f 3f       	cpi	r20, 0xFF	; 255
    2576:	8f ef       	ldi	r24, 0xFF	; 255
    2578:	58 07       	cpc	r21, r24
    257a:	68 07       	cpc	r22, r24
    257c:	78 07       	cpc	r23, r24
    257e:	79 f7       	brne	.-34     	; 0x255e <f_open+0x324>
    2580:	c6 cf       	rjmp	.-116    	; 0x250e <f_open+0x2d4>
    2582:	f7 01       	movw	r30, r14
    2584:	44 8b       	std	Z+20, r20	; 0x14
    2586:	55 8b       	std	Z+21, r21	; 0x15
    2588:	66 8b       	std	Z+22, r22	; 0x16
    258a:	77 8b       	std	Z+23, r23	; 0x17
    258c:	82 e0       	ldi	r24, 0x02	; 2
    258e:	a8 cf       	rjmp	.-176    	; 0x24e0 <f_open+0x2a6>
    2590:	4f 3f       	cpi	r20, 0xFF	; 255
    2592:	ff ef       	ldi	r31, 0xFF	; 255
    2594:	5f 07       	cpc	r21, r31
    2596:	6f 07       	cpc	r22, r31
    2598:	7f 07       	cpc	r23, r31
    259a:	09 f4       	brne	.+2      	; 0x259e <f_open+0x364>
    259c:	b8 cf       	rjmp	.-144    	; 0x250e <f_open+0x2d4>
    259e:	f1 cf       	rjmp	.-30     	; 0x2582 <f_open+0x348>
    25a0:	87 e0       	ldi	r24, 0x07	; 7
    25a2:	9e cf       	rjmp	.-196    	; 0x24e0 <f_open+0x2a6>
    25a4:	88 e0       	ldi	r24, 0x08	; 8
    25a6:	9c cf       	rjmp	.-200    	; 0x24e0 <f_open+0x2a6>
    25a8:	87 e0       	ldi	r24, 0x07	; 7
    25aa:	9a cf       	rjmp	.-204    	; 0x24e0 <f_open+0x2a6>
    25ac:	84 e0       	ldi	r24, 0x04	; 4
    25ae:	98 cf       	rjmp	.-208    	; 0x24e0 <f_open+0x2a6>
    25b0:	ac 96       	adiw	r28, 0x2c	; 44
    25b2:	0f b6       	in	r0, 0x3f	; 63
    25b4:	f8 94       	cli
    25b6:	de bf       	out	0x3e, r29	; 62
    25b8:	0f be       	out	0x3f, r0	; 63
    25ba:	cd bf       	out	0x3d, r28	; 61
    25bc:	df 91       	pop	r29
    25be:	cf 91       	pop	r28
    25c0:	1f 91       	pop	r17
    25c2:	0f 91       	pop	r16
    25c4:	ff 90       	pop	r15
    25c6:	ef 90       	pop	r14
    25c8:	df 90       	pop	r13
    25ca:	cf 90       	pop	r12
    25cc:	bf 90       	pop	r11
    25ce:	af 90       	pop	r10
    25d0:	9f 90       	pop	r9
    25d2:	8f 90       	pop	r8
    25d4:	7f 90       	pop	r7
    25d6:	6f 90       	pop	r6
    25d8:	5f 90       	pop	r5
    25da:	4f 90       	pop	r4
    25dc:	3f 90       	pop	r3
    25de:	2f 90       	pop	r2
    25e0:	08 95       	ret

000025e2 <f_write>:
	FIL* fp,			/* Pointer to the file object */
	const void* buff,	/* Pointer to the data to be written */
	UINT btw,			/* Number of bytes to write */
	UINT* bw			/* Pointer to number of bytes written */
)
{
    25e2:	2f 92       	push	r2
    25e4:	3f 92       	push	r3
    25e6:	4f 92       	push	r4
    25e8:	5f 92       	push	r5
    25ea:	6f 92       	push	r6
    25ec:	7f 92       	push	r7
    25ee:	8f 92       	push	r8
    25f0:	9f 92       	push	r9
    25f2:	af 92       	push	r10
    25f4:	bf 92       	push	r11
    25f6:	cf 92       	push	r12
    25f8:	df 92       	push	r13
    25fa:	ef 92       	push	r14
    25fc:	ff 92       	push	r15
    25fe:	0f 93       	push	r16
    2600:	1f 93       	push	r17
    2602:	cf 93       	push	r28
    2604:	df 93       	push	r29
    2606:	cd b7       	in	r28, 0x3d	; 61
    2608:	de b7       	in	r29, 0x3e	; 62
    260a:	2a 97       	sbiw	r28, 0x0a	; 10
    260c:	0f b6       	in	r0, 0x3f	; 63
    260e:	f8 94       	cli
    2610:	de bf       	out	0x3e, r29	; 62
    2612:	0f be       	out	0x3f, r0	; 63
    2614:	cd bf       	out	0x3d, r28	; 61
    2616:	7c 01       	movw	r14, r24
    2618:	4b 01       	movw	r8, r22
    261a:	6a 01       	movw	r12, r20
    261c:	59 01       	movw	r10, r18
	LBA_t sect;
	UINT wcnt, cc, csect;
	const BYTE *wbuff = (const BYTE*)buff;


	*bw = 0;	/* Clear write byte counter */
    261e:	f9 01       	movw	r30, r18
    2620:	11 82       	std	Z+1, r1	; 0x01
    2622:	10 82       	st	Z, r1
	res = validate(&fp->obj, &fs);			/* Check validity of the file object */
    2624:	8f 83       	std	Y+7, r24	; 0x07
    2626:	f8 86       	std	Y+8, r15	; 0x08
    2628:	be 01       	movw	r22, r28
    262a:	6f 5f       	subi	r22, 0xFF	; 255
    262c:	7f 4f       	sbci	r23, 0xFF	; 255
    262e:	0e 94 87 03 	call	0x70e	; 0x70e <validate>
	if (res != FR_OK || (res = (FRESULT)fp->err) != FR_OK) LEAVE_FF(fs, res);	/* Check validity */
    2632:	81 11       	cpse	r24, r1
    2634:	92 c1       	rjmp	.+804    	; 0x295a <f_write+0x378>
    2636:	f7 01       	movw	r30, r14
    2638:	87 85       	ldd	r24, Z+15	; 0x0f
    263a:	81 11       	cpse	r24, r1
    263c:	8e c1       	rjmp	.+796    	; 0x295a <f_write+0x378>
	if (!(fp->flag & FA_WRITE)) LEAVE_FF(fs, FR_DENIED);	/* Check access mode */
    263e:	86 85       	ldd	r24, Z+14	; 0x0e
    2640:	81 ff       	sbrs	r24, 1
    2642:	8a c1       	rjmp	.+788    	; 0x2958 <f_write+0x376>

	/* Check fptr wrap-around (file size cannot reach 4 GiB at FAT volume) */
	if ((!FF_FS_EXFAT || fs->fs_type != FS_EXFAT) && (DWORD)(fp->fptr + btw) < (DWORD)fp->fptr) {
    2644:	80 89       	ldd	r24, Z+16	; 0x10
    2646:	91 89       	ldd	r25, Z+17	; 0x11
    2648:	a2 89       	ldd	r26, Z+18	; 0x12
    264a:	b3 89       	ldd	r27, Z+19	; 0x13
    264c:	ac 01       	movw	r20, r24
    264e:	bd 01       	movw	r22, r26
    2650:	4c 0d       	add	r20, r12
    2652:	5d 1d       	adc	r21, r13
    2654:	61 1d       	adc	r22, r1
    2656:	71 1d       	adc	r23, r1
    2658:	48 17       	cp	r20, r24
    265a:	59 07       	cpc	r21, r25
    265c:	6a 07       	cpc	r22, r26
    265e:	7b 07       	cpc	r23, r27
    2660:	18 f4       	brcc	.+6      	; 0x2668 <f_write+0x86>
		btw = (UINT)(0xFFFFFFFF - (DWORD)fp->fptr);
    2662:	6c 01       	movw	r12, r24
    2664:	c0 94       	com	r12
    2666:	d0 94       	com	r13
	}

	for ( ;  btw;							/* Repeat until all data written */
    2668:	c1 14       	cp	r12, r1
    266a:	d1 04       	cpc	r13, r1
    266c:	09 f4       	brne	.+2      	; 0x2670 <f_write+0x8e>
    266e:	6e c1       	rjmp	.+732    	; 0x294c <f_write+0x36a>
				fs->winsect = sect;
			}
#else
			if (fp->sect != sect && 		/* Fill sector cache with file data */
				fp->fptr < fp->obj.objsize &&
				disk_read(fs->pdrv, fp->buf, sect, 1) != RES_OK) {
    2670:	97 01       	movw	r18, r14
    2672:	2e 5d       	subi	r18, 0xDE	; 222
    2674:	3f 4f       	sbci	r19, 0xFF	; 255
    2676:	3a 87       	std	Y+10, r19	; 0x0a
    2678:	29 87       	std	Y+9, r18	; 0x09
		btw = (UINT)(0xFFFFFFFF - (DWORD)fp->fptr);
	}

	for ( ;  btw;							/* Repeat until all data written */
		btw -= wcnt, *bw += wcnt, wbuff += wcnt, fp->fptr += wcnt, fp->obj.objsize = (fp->fptr > fp->obj.objsize) ? fp->fptr : fp->obj.objsize) {
		if (fp->fptr % SS(fs) == 0) {		/* On the sector boundary? */
    267a:	f7 01       	movw	r30, r14
    267c:	80 89       	ldd	r24, Z+16	; 0x10
    267e:	91 89       	ldd	r25, Z+17	; 0x11
    2680:	a2 89       	ldd	r26, Z+18	; 0x12
    2682:	b3 89       	ldd	r27, Z+19	; 0x13
    2684:	ac 01       	movw	r20, r24
    2686:	bd 01       	movw	r22, r26
    2688:	51 70       	andi	r21, 0x01	; 1
    268a:	66 27       	eor	r22, r22
    268c:	77 27       	eor	r23, r23
    268e:	45 2b       	or	r20, r21
    2690:	46 2b       	or	r20, r22
    2692:	47 2b       	or	r20, r23
    2694:	09 f0       	breq	.+2      	; 0x2698 <f_write+0xb6>
    2696:	15 c1       	rjmp	.+554    	; 0x28c2 <f_write+0x2e0>
			csect = (UINT)(fp->fptr / SS(fs)) & (fs->csize - 1);	/* Sector offset in the cluster */
    2698:	e9 81       	ldd	r30, Y+1	; 0x01
    269a:	fa 81       	ldd	r31, Y+2	; 0x02
    269c:	61 84       	ldd	r6, Z+9	; 0x09
    269e:	72 84       	ldd	r7, Z+10	; 0x0a
    26a0:	f1 e0       	ldi	r31, 0x01	; 1
    26a2:	6f 1a       	sub	r6, r31
    26a4:	71 08       	sbc	r7, r1
    26a6:	ac 01       	movw	r20, r24
    26a8:	bd 01       	movw	r22, r26
    26aa:	03 2e       	mov	r0, r19
    26ac:	39 e0       	ldi	r19, 0x09	; 9
    26ae:	76 95       	lsr	r23
    26b0:	67 95       	ror	r22
    26b2:	57 95       	ror	r21
    26b4:	47 95       	ror	r20
    26b6:	3a 95       	dec	r19
    26b8:	d1 f7       	brne	.-12     	; 0x26ae <f_write+0xcc>
    26ba:	30 2d       	mov	r19, r0
    26bc:	64 22       	and	r6, r20
    26be:	75 22       	and	r7, r21
			if (csect == 0) {				/* On the cluster boundary? */
    26c0:	61 14       	cp	r6, r1
    26c2:	71 04       	cpc	r7, r1
    26c4:	09 f0       	breq	.+2      	; 0x26c8 <f_write+0xe6>
    26c6:	49 c0       	rjmp	.+146    	; 0x275a <f_write+0x178>
				if (fp->fptr == 0) {		/* On the top of the file? */
    26c8:	89 2b       	or	r24, r25
    26ca:	8a 2b       	or	r24, r26
    26cc:	8b 2b       	or	r24, r27
    26ce:	91 f4       	brne	.+36     	; 0x26f4 <f_write+0x112>
					clst = fp->obj.sclust;	/* Follow from the origin */
    26d0:	f7 01       	movw	r30, r14
    26d2:	66 81       	ldd	r22, Z+6	; 0x06
    26d4:	77 81       	ldd	r23, Z+7	; 0x07
    26d6:	80 85       	ldd	r24, Z+8	; 0x08
    26d8:	91 85       	ldd	r25, Z+9	; 0x09
					if (clst == 0) {		/* If no cluster is allocated, */
    26da:	61 15       	cp	r22, r1
    26dc:	71 05       	cpc	r23, r1
    26de:	81 05       	cpc	r24, r1
    26e0:	91 05       	cpc	r25, r1
    26e2:	b9 f4       	brne	.+46     	; 0x2712 <f_write+0x130>
						clst = create_chain(&fp->obj, 0);	/* create a new cluster chain */
    26e4:	40 e0       	ldi	r20, 0x00	; 0
    26e6:	50 e0       	ldi	r21, 0x00	; 0
    26e8:	ba 01       	movw	r22, r20
    26ea:	8f 81       	ldd	r24, Y+7	; 0x07
    26ec:	98 85       	ldd	r25, Y+8	; 0x08
    26ee:	0e 94 01 08 	call	0x1002	; 0x1002 <create_chain>
    26f2:	09 c0       	rjmp	.+18     	; 0x2706 <f_write+0x124>
					if (fp->cltbl) {
						clst = clmt_clust(fp, fp->fptr);	/* Get cluster# from the CLMT */
					} else
#endif
					{
						clst = create_chain(&fp->obj, fp->clust);	/* Follow or stretch cluster chain on the FAT */
    26f4:	f7 01       	movw	r30, r14
    26f6:	44 89       	ldd	r20, Z+20	; 0x14
    26f8:	55 89       	ldd	r21, Z+21	; 0x15
    26fa:	66 89       	ldd	r22, Z+22	; 0x16
    26fc:	77 89       	ldd	r23, Z+23	; 0x17
    26fe:	8f 81       	ldd	r24, Y+7	; 0x07
    2700:	98 85       	ldd	r25, Y+8	; 0x08
    2702:	0e 94 01 08 	call	0x1002	; 0x1002 <create_chain>
					}
				}
				if (clst == 0) break;		/* Could not allocate a new cluster (disk full) */
    2706:	61 15       	cp	r22, r1
    2708:	71 05       	cpc	r23, r1
    270a:	81 05       	cpc	r24, r1
    270c:	91 05       	cpc	r25, r1
    270e:	09 f4       	brne	.+2      	; 0x2712 <f_write+0x130>
    2710:	1d c1       	rjmp	.+570    	; 0x294c <f_write+0x36a>
				if (clst == 1) ABORT(fs, FR_INT_ERR);
    2712:	61 30       	cpi	r22, 0x01	; 1
    2714:	71 05       	cpc	r23, r1
    2716:	81 05       	cpc	r24, r1
    2718:	91 05       	cpc	r25, r1
    271a:	21 f4       	brne	.+8      	; 0x2724 <f_write+0x142>
    271c:	82 e0       	ldi	r24, 0x02	; 2
    271e:	f7 01       	movw	r30, r14
    2720:	87 87       	std	Z+15, r24	; 0x0f
    2722:	1b c1       	rjmp	.+566    	; 0x295a <f_write+0x378>
				if (clst == 0xFFFFFFFF) ABORT(fs, FR_DISK_ERR);
    2724:	6f 3f       	cpi	r22, 0xFF	; 255
    2726:	ff ef       	ldi	r31, 0xFF	; 255
    2728:	7f 07       	cpc	r23, r31
    272a:	8f 07       	cpc	r24, r31
    272c:	9f 07       	cpc	r25, r31
    272e:	21 f4       	brne	.+8      	; 0x2738 <f_write+0x156>
    2730:	81 e0       	ldi	r24, 0x01	; 1
    2732:	f7 01       	movw	r30, r14
    2734:	87 87       	std	Z+15, r24	; 0x0f
    2736:	11 c1       	rjmp	.+546    	; 0x295a <f_write+0x378>
				fp->clust = clst;			/* Update current cluster */
    2738:	f7 01       	movw	r30, r14
    273a:	64 8b       	std	Z+20, r22	; 0x14
    273c:	75 8b       	std	Z+21, r23	; 0x15
    273e:	86 8b       	std	Z+22, r24	; 0x16
    2740:	97 8b       	std	Z+23, r25	; 0x17
				if (fp->obj.sclust == 0) fp->obj.sclust = clst;	/* Set start cluster if the first write */
    2742:	06 81       	ldd	r16, Z+6	; 0x06
    2744:	17 81       	ldd	r17, Z+7	; 0x07
    2746:	20 85       	ldd	r18, Z+8	; 0x08
    2748:	31 85       	ldd	r19, Z+9	; 0x09
    274a:	01 2b       	or	r16, r17
    274c:	02 2b       	or	r16, r18
    274e:	03 2b       	or	r16, r19
    2750:	21 f4       	brne	.+8      	; 0x275a <f_write+0x178>
    2752:	66 83       	std	Z+6, r22	; 0x06
    2754:	77 83       	std	Z+7, r23	; 0x07
    2756:	80 87       	std	Z+8, r24	; 0x08
    2758:	91 87       	std	Z+9, r25	; 0x09
			}
#if FF_FS_TINY
			if (fs->winsect == fp->sect && sync_window(fs) != FR_OK) ABORT(fs, FR_DISK_ERR);	/* Write-back sector cache */
#else
			if (fp->flag & FA_DIRTY) {		/* Write-back sector cache */
    275a:	f7 01       	movw	r30, r14
    275c:	86 85       	ldd	r24, Z+14	; 0x0e
    275e:	88 23       	and	r24, r24
    2760:	bc f4       	brge	.+46     	; 0x2790 <f_write+0x1ae>
				if (disk_write(fs->pdrv, fp->buf, fp->sect, 1) != RES_OK) ABORT(fs, FR_DISK_ERR);
    2762:	20 8d       	ldd	r18, Z+24	; 0x18
    2764:	31 8d       	ldd	r19, Z+25	; 0x19
    2766:	42 8d       	ldd	r20, Z+26	; 0x1a
    2768:	53 8d       	ldd	r21, Z+27	; 0x1b
    276a:	e9 81       	ldd	r30, Y+1	; 0x01
    276c:	fa 81       	ldd	r31, Y+2	; 0x02
    276e:	01 e0       	ldi	r16, 0x01	; 1
    2770:	10 e0       	ldi	r17, 0x00	; 0
    2772:	69 85       	ldd	r22, Y+9	; 0x09
    2774:	7a 85       	ldd	r23, Y+10	; 0x0a
    2776:	81 81       	ldd	r24, Z+1	; 0x01
    2778:	0e 94 bf 02 	call	0x57e	; 0x57e <disk_write>
    277c:	88 23       	and	r24, r24
    277e:	21 f0       	breq	.+8      	; 0x2788 <f_write+0x1a6>
    2780:	81 e0       	ldi	r24, 0x01	; 1
    2782:	f7 01       	movw	r30, r14
    2784:	87 87       	std	Z+15, r24	; 0x0f
    2786:	e9 c0       	rjmp	.+466    	; 0x295a <f_write+0x378>
				fp->flag &= (BYTE)~FA_DIRTY;
    2788:	f7 01       	movw	r30, r14
    278a:	86 85       	ldd	r24, Z+14	; 0x0e
    278c:	8f 77       	andi	r24, 0x7F	; 127
    278e:	86 87       	std	Z+14, r24	; 0x0e
			}
#endif
			sect = clst2sect(fs, fp->clust);	/* Get current sector */
    2790:	29 81       	ldd	r18, Y+1	; 0x01
    2792:	3a 81       	ldd	r19, Y+2	; 0x02
    2794:	3e 83       	std	Y+6, r19	; 0x06
    2796:	2d 83       	std	Y+5, r18	; 0x05
    2798:	f7 01       	movw	r30, r14
    279a:	44 89       	ldd	r20, Z+20	; 0x14
    279c:	55 89       	ldd	r21, Z+21	; 0x15
    279e:	66 89       	ldd	r22, Z+22	; 0x16
    27a0:	77 89       	ldd	r23, Z+23	; 0x17
    27a2:	c9 01       	movw	r24, r18
    27a4:	0e 94 29 03 	call	0x652	; 0x652 <clst2sect>
			if (sect == 0) ABORT(fs, FR_INT_ERR);
    27a8:	61 15       	cp	r22, r1
    27aa:	71 05       	cpc	r23, r1
    27ac:	81 05       	cpc	r24, r1
    27ae:	91 05       	cpc	r25, r1
    27b0:	21 f4       	brne	.+8      	; 0x27ba <f_write+0x1d8>
    27b2:	82 e0       	ldi	r24, 0x02	; 2
    27b4:	f7 01       	movw	r30, r14
    27b6:	87 87       	std	Z+15, r24	; 0x0f
    27b8:	d0 c0       	rjmp	.+416    	; 0x295a <f_write+0x378>
			sect += csect;
    27ba:	1b 01       	movw	r2, r22
    27bc:	2c 01       	movw	r4, r24
    27be:	26 0c       	add	r2, r6
    27c0:	37 1c       	adc	r3, r7
    27c2:	41 1c       	adc	r4, r1
    27c4:	51 1c       	adc	r5, r1
			cc = btw / SS(fs);				/* When remaining bytes >= sector size, */
    27c6:	96 01       	movw	r18, r12
    27c8:	23 2f       	mov	r18, r19
    27ca:	33 27       	eor	r19, r19
    27cc:	26 95       	lsr	r18
    27ce:	3c 83       	std	Y+4, r19	; 0x04
    27d0:	2b 83       	std	Y+3, r18	; 0x03
			if (cc > 0) {					/* Write maximum contiguous sectors directly */
    27d2:	21 15       	cp	r18, r1
    27d4:	31 05       	cpc	r19, r1
    27d6:	09 f4       	brne	.+2      	; 0x27da <f_write+0x1f8>
    27d8:	47 c0       	rjmp	.+142    	; 0x2868 <f_write+0x286>
				if (csect + cc > fs->csize) {	/* Clip at cluster boundary */
    27da:	ed 81       	ldd	r30, Y+5	; 0x05
    27dc:	fe 81       	ldd	r31, Y+6	; 0x06
    27de:	81 85       	ldd	r24, Z+9	; 0x09
    27e0:	92 85       	ldd	r25, Z+10	; 0x0a
    27e2:	26 0d       	add	r18, r6
    27e4:	37 1d       	adc	r19, r7
    27e6:	82 17       	cp	r24, r18
    27e8:	93 07       	cpc	r25, r19
    27ea:	28 f4       	brcc	.+10     	; 0x27f6 <f_write+0x214>
					cc = fs->csize - csect;
    27ec:	9c 01       	movw	r18, r24
    27ee:	26 19       	sub	r18, r6
    27f0:	37 09       	sbc	r19, r7
    27f2:	3c 83       	std	Y+4, r19	; 0x04
    27f4:	2b 83       	std	Y+3, r18	; 0x03
				}
				if (disk_write(fs->pdrv, wbuff, sect, cc) != RES_OK) ABORT(fs, FR_DISK_ERR);
    27f6:	0b 81       	ldd	r16, Y+3	; 0x03
    27f8:	1c 81       	ldd	r17, Y+4	; 0x04
    27fa:	a2 01       	movw	r20, r4
    27fc:	91 01       	movw	r18, r2
    27fe:	b4 01       	movw	r22, r8
    2800:	ed 81       	ldd	r30, Y+5	; 0x05
    2802:	fe 81       	ldd	r31, Y+6	; 0x06
    2804:	81 81       	ldd	r24, Z+1	; 0x01
    2806:	0e 94 bf 02 	call	0x57e	; 0x57e <disk_write>
    280a:	88 23       	and	r24, r24
    280c:	21 f0       	breq	.+8      	; 0x2816 <f_write+0x234>
    280e:	81 e0       	ldi	r24, 0x01	; 1
    2810:	f7 01       	movw	r30, r14
    2812:	87 87       	std	Z+15, r24	; 0x0f
    2814:	a2 c0       	rjmp	.+324    	; 0x295a <f_write+0x378>
				if (fs->winsect - sect < cc) {	/* Refill sector cache if it gets invalidated by the direct write */
					mem_cpy(fs->win, wbuff + ((fs->winsect - sect) * SS(fs)), SS(fs));
					fs->wflag = 0;
				}
#else
				if (fp->sect - sect < cc) { /* Refill sector cache if it gets invalidated by the direct write */
    2816:	f7 01       	movw	r30, r14
    2818:	80 8d       	ldd	r24, Z+24	; 0x18
    281a:	91 8d       	ldd	r25, Z+25	; 0x19
    281c:	a2 8d       	ldd	r26, Z+26	; 0x1a
    281e:	b3 8d       	ldd	r27, Z+27	; 0x1b
    2820:	82 19       	sub	r24, r2
    2822:	93 09       	sbc	r25, r3
    2824:	a4 09       	sbc	r26, r4
    2826:	b5 09       	sbc	r27, r5
    2828:	2b 81       	ldd	r18, Y+3	; 0x03
    282a:	3c 81       	ldd	r19, Y+4	; 0x04
    282c:	a9 01       	movw	r20, r18
    282e:	60 e0       	ldi	r22, 0x00	; 0
    2830:	70 e0       	ldi	r23, 0x00	; 0
    2832:	84 17       	cp	r24, r20
    2834:	95 07       	cpc	r25, r21
    2836:	a6 07       	cpc	r26, r22
    2838:	b7 07       	cpc	r27, r23
    283a:	80 f4       	brcc	.+32     	; 0x285c <f_write+0x27a>
					mem_cpy(fp->buf, wbuff + ((fp->sect - sect) * SS(fs)), SS(fs));
    283c:	98 2f       	mov	r25, r24
    283e:	88 27       	eor	r24, r24
    2840:	99 0f       	add	r25, r25
    2842:	b4 01       	movw	r22, r8
    2844:	68 0f       	add	r22, r24
    2846:	79 1f       	adc	r23, r25
    2848:	40 e0       	ldi	r20, 0x00	; 0
    284a:	52 e0       	ldi	r21, 0x02	; 2
    284c:	89 85       	ldd	r24, Y+9	; 0x09
    284e:	9a 85       	ldd	r25, Y+10	; 0x0a
    2850:	0e 94 1b 03 	call	0x636	; 0x636 <mem_cpy>
					fp->flag &= (BYTE)~FA_DIRTY;
    2854:	f7 01       	movw	r30, r14
    2856:	86 85       	ldd	r24, Z+14	; 0x0e
    2858:	8f 77       	andi	r24, 0x7F	; 127
    285a:	86 87       	std	Z+14, r24	; 0x0e
				}
#endif
#endif
				wcnt = SS(fs) * cc;		/* Number of bytes transferred */
    285c:	6b 80       	ldd	r6, Y+3	; 0x03
    285e:	7c 80       	ldd	r7, Y+4	; 0x04
    2860:	76 2c       	mov	r7, r6
    2862:	66 24       	eor	r6, r6
    2864:	77 0c       	add	r7, r7
				continue;
    2866:	46 c0       	rjmp	.+140    	; 0x28f4 <f_write+0x312>
			if (fp->fptr >= fp->obj.objsize) {	/* Avoid silly cache filling on the growing edge */
				if (sync_window(fs) != FR_OK) ABORT(fs, FR_DISK_ERR);
				fs->winsect = sect;
			}
#else
			if (fp->sect != sect && 		/* Fill sector cache with file data */
    2868:	f7 01       	movw	r30, r14
    286a:	80 8d       	ldd	r24, Z+24	; 0x18
    286c:	91 8d       	ldd	r25, Z+25	; 0x19
    286e:	a2 8d       	ldd	r26, Z+26	; 0x1a
    2870:	b3 8d       	ldd	r27, Z+27	; 0x1b
    2872:	28 16       	cp	r2, r24
    2874:	39 06       	cpc	r3, r25
    2876:	4a 06       	cpc	r4, r26
    2878:	5b 06       	cpc	r5, r27
    287a:	f1 f0       	breq	.+60     	; 0x28b8 <f_write+0x2d6>
    287c:	40 89       	ldd	r20, Z+16	; 0x10
    287e:	51 89       	ldd	r21, Z+17	; 0x11
    2880:	62 89       	ldd	r22, Z+18	; 0x12
    2882:	73 89       	ldd	r23, Z+19	; 0x13
    2884:	82 85       	ldd	r24, Z+10	; 0x0a
    2886:	93 85       	ldd	r25, Z+11	; 0x0b
    2888:	a4 85       	ldd	r26, Z+12	; 0x0c
    288a:	b5 85       	ldd	r27, Z+13	; 0x0d
    288c:	48 17       	cp	r20, r24
    288e:	59 07       	cpc	r21, r25
    2890:	6a 07       	cpc	r22, r26
    2892:	7b 07       	cpc	r23, r27
    2894:	88 f4       	brcc	.+34     	; 0x28b8 <f_write+0x2d6>
				fp->fptr < fp->obj.objsize &&
				disk_read(fs->pdrv, fp->buf, sect, 1) != RES_OK) {
    2896:	01 e0       	ldi	r16, 0x01	; 1
    2898:	10 e0       	ldi	r17, 0x00	; 0
    289a:	a2 01       	movw	r20, r4
    289c:	91 01       	movw	r18, r2
    289e:	69 85       	ldd	r22, Y+9	; 0x09
    28a0:	7a 85       	ldd	r23, Y+10	; 0x0a
    28a2:	ed 81       	ldd	r30, Y+5	; 0x05
    28a4:	fe 81       	ldd	r31, Y+6	; 0x06
    28a6:	81 81       	ldd	r24, Z+1	; 0x01
    28a8:	0e 94 80 02 	call	0x500	; 0x500 <disk_read>
				if (sync_window(fs) != FR_OK) ABORT(fs, FR_DISK_ERR);
				fs->winsect = sect;
			}
#else
			if (fp->sect != sect && 		/* Fill sector cache with file data */
				fp->fptr < fp->obj.objsize &&
    28ac:	88 23       	and	r24, r24
    28ae:	21 f0       	breq	.+8      	; 0x28b8 <f_write+0x2d6>
				disk_read(fs->pdrv, fp->buf, sect, 1) != RES_OK) {
					ABORT(fs, FR_DISK_ERR);
    28b0:	81 e0       	ldi	r24, 0x01	; 1
    28b2:	f7 01       	movw	r30, r14
    28b4:	87 87       	std	Z+15, r24	; 0x0f
    28b6:	51 c0       	rjmp	.+162    	; 0x295a <f_write+0x378>
			}
#endif
			fp->sect = sect;
    28b8:	f7 01       	movw	r30, r14
    28ba:	20 8e       	std	Z+24, r2	; 0x18
    28bc:	31 8e       	std	Z+25, r3	; 0x19
    28be:	42 8e       	std	Z+26, r4	; 0x1a
    28c0:	53 8e       	std	Z+27, r5	; 0x1b
		}
		wcnt = SS(fs) - (UINT)fp->fptr % SS(fs);	/* Number of bytes remains in the sector */
    28c2:	f7 01       	movw	r30, r14
    28c4:	80 89       	ldd	r24, Z+16	; 0x10
    28c6:	91 89       	ldd	r25, Z+17	; 0x11
    28c8:	91 70       	andi	r25, 0x01	; 1
    28ca:	20 e0       	ldi	r18, 0x00	; 0
    28cc:	32 e0       	ldi	r19, 0x02	; 2
    28ce:	39 01       	movw	r6, r18
    28d0:	68 1a       	sub	r6, r24
    28d2:	79 0a       	sbc	r7, r25
    28d4:	c6 14       	cp	r12, r6
    28d6:	d7 04       	cpc	r13, r7
    28d8:	08 f4       	brcc	.+2      	; 0x28dc <f_write+0x2fa>
    28da:	36 01       	movw	r6, r12
#if FF_FS_TINY
		if (move_window(fs, fp->sect) != FR_OK) ABORT(fs, FR_DISK_ERR);	/* Move sector window */
		mem_cpy(fs->win + fp->fptr % SS(fs), wbuff, wcnt);	/* Fit data to the sector */
		fs->wflag = 1;
#else
		mem_cpy(fp->buf + fp->fptr % SS(fs), wbuff, wcnt);	/* Fit data to the sector */
    28dc:	a3 01       	movw	r20, r6
    28de:	b4 01       	movw	r22, r8
    28e0:	29 85       	ldd	r18, Y+9	; 0x09
    28e2:	3a 85       	ldd	r19, Y+10	; 0x0a
    28e4:	82 0f       	add	r24, r18
    28e6:	93 1f       	adc	r25, r19
    28e8:	0e 94 1b 03 	call	0x636	; 0x636 <mem_cpy>
		fp->flag |= FA_DIRTY;
    28ec:	f7 01       	movw	r30, r14
    28ee:	86 85       	ldd	r24, Z+14	; 0x0e
    28f0:	80 68       	ori	r24, 0x80	; 128
    28f2:	86 87       	std	Z+14, r24	; 0x0e
	if ((!FF_FS_EXFAT || fs->fs_type != FS_EXFAT) && (DWORD)(fp->fptr + btw) < (DWORD)fp->fptr) {
		btw = (UINT)(0xFFFFFFFF - (DWORD)fp->fptr);
	}

	for ( ;  btw;							/* Repeat until all data written */
		btw -= wcnt, *bw += wcnt, wbuff += wcnt, fp->fptr += wcnt, fp->obj.objsize = (fp->fptr > fp->obj.objsize) ? fp->fptr : fp->obj.objsize) {
    28f4:	c6 18       	sub	r12, r6
    28f6:	d7 08       	sbc	r13, r7
    28f8:	f5 01       	movw	r30, r10
    28fa:	80 81       	ld	r24, Z
    28fc:	91 81       	ldd	r25, Z+1	; 0x01
    28fe:	86 0d       	add	r24, r6
    2900:	97 1d       	adc	r25, r7
    2902:	91 83       	std	Z+1, r25	; 0x01
    2904:	80 83       	st	Z, r24
    2906:	86 0c       	add	r8, r6
    2908:	97 1c       	adc	r9, r7
    290a:	f7 01       	movw	r30, r14
    290c:	80 89       	ldd	r24, Z+16	; 0x10
    290e:	91 89       	ldd	r25, Z+17	; 0x11
    2910:	a2 89       	ldd	r26, Z+18	; 0x12
    2912:	b3 89       	ldd	r27, Z+19	; 0x13
    2914:	86 0d       	add	r24, r6
    2916:	97 1d       	adc	r25, r7
    2918:	a1 1d       	adc	r26, r1
    291a:	b1 1d       	adc	r27, r1
    291c:	80 8b       	std	Z+16, r24	; 0x10
    291e:	91 8b       	std	Z+17, r25	; 0x11
    2920:	a2 8b       	std	Z+18, r26	; 0x12
    2922:	b3 8b       	std	Z+19, r27	; 0x13
    2924:	42 85       	ldd	r20, Z+10	; 0x0a
    2926:	53 85       	ldd	r21, Z+11	; 0x0b
    2928:	64 85       	ldd	r22, Z+12	; 0x0c
    292a:	75 85       	ldd	r23, Z+13	; 0x0d
    292c:	48 17       	cp	r20, r24
    292e:	59 07       	cpc	r21, r25
    2930:	6a 07       	cpc	r22, r26
    2932:	7b 07       	cpc	r23, r27
    2934:	10 f4       	brcc	.+4      	; 0x293a <f_write+0x358>
    2936:	ac 01       	movw	r20, r24
    2938:	bd 01       	movw	r22, r26
    293a:	f7 01       	movw	r30, r14
    293c:	42 87       	std	Z+10, r20	; 0x0a
    293e:	53 87       	std	Z+11, r21	; 0x0b
    2940:	64 87       	std	Z+12, r22	; 0x0c
    2942:	75 87       	std	Z+13, r23	; 0x0d
	/* Check fptr wrap-around (file size cannot reach 4 GiB at FAT volume) */
	if ((!FF_FS_EXFAT || fs->fs_type != FS_EXFAT) && (DWORD)(fp->fptr + btw) < (DWORD)fp->fptr) {
		btw = (UINT)(0xFFFFFFFF - (DWORD)fp->fptr);
	}

	for ( ;  btw;							/* Repeat until all data written */
    2944:	c1 14       	cp	r12, r1
    2946:	d1 04       	cpc	r13, r1
    2948:	09 f0       	breq	.+2      	; 0x294c <f_write+0x36a>
    294a:	97 ce       	rjmp	.-722    	; 0x267a <f_write+0x98>
		mem_cpy(fp->buf + fp->fptr % SS(fs), wbuff, wcnt);	/* Fit data to the sector */
		fp->flag |= FA_DIRTY;
#endif
	}

	fp->flag |= FA_MODIFIED;				/* Set file change flag */
    294c:	f7 01       	movw	r30, r14
    294e:	86 85       	ldd	r24, Z+14	; 0x0e
    2950:	80 64       	ori	r24, 0x40	; 64
    2952:	86 87       	std	Z+14, r24	; 0x0e

	LEAVE_FF(fs, FR_OK);
    2954:	80 e0       	ldi	r24, 0x00	; 0
    2956:	01 c0       	rjmp	.+2      	; 0x295a <f_write+0x378>


	*bw = 0;	/* Clear write byte counter */
	res = validate(&fp->obj, &fs);			/* Check validity of the file object */
	if (res != FR_OK || (res = (FRESULT)fp->err) != FR_OK) LEAVE_FF(fs, res);	/* Check validity */
	if (!(fp->flag & FA_WRITE)) LEAVE_FF(fs, FR_DENIED);	/* Check access mode */
    2958:	87 e0       	ldi	r24, 0x07	; 7
	}

	fp->flag |= FA_MODIFIED;				/* Set file change flag */

	LEAVE_FF(fs, FR_OK);
}
    295a:	2a 96       	adiw	r28, 0x0a	; 10
    295c:	0f b6       	in	r0, 0x3f	; 63
    295e:	f8 94       	cli
    2960:	de bf       	out	0x3e, r29	; 62
    2962:	0f be       	out	0x3f, r0	; 63
    2964:	cd bf       	out	0x3d, r28	; 61
    2966:	df 91       	pop	r29
    2968:	cf 91       	pop	r28
    296a:	1f 91       	pop	r17
    296c:	0f 91       	pop	r16
    296e:	ff 90       	pop	r15
    2970:	ef 90       	pop	r14
    2972:	df 90       	pop	r13
    2974:	cf 90       	pop	r12
    2976:	bf 90       	pop	r11
    2978:	af 90       	pop	r10
    297a:	9f 90       	pop	r9
    297c:	8f 90       	pop	r8
    297e:	7f 90       	pop	r7
    2980:	6f 90       	pop	r6
    2982:	5f 90       	pop	r5
    2984:	4f 90       	pop	r4
    2986:	3f 90       	pop	r3
    2988:	2f 90       	pop	r2
    298a:	08 95       	ret

0000298c <f_sync>:
/*-----------------------------------------------------------------------*/

FRESULT f_sync (
	FIL* fp		/* Pointer to the file object */
)
{
    298c:	ef 92       	push	r14
    298e:	ff 92       	push	r15
    2990:	0f 93       	push	r16
    2992:	1f 93       	push	r17
    2994:	cf 93       	push	r28
    2996:	df 93       	push	r29
    2998:	1f 92       	push	r1
    299a:	1f 92       	push	r1
    299c:	cd b7       	in	r28, 0x3d	; 61
    299e:	de b7       	in	r29, 0x3e	; 62
    29a0:	7c 01       	movw	r14, r24
	FATFS *fs;
	DWORD tm;
	BYTE *dir;


	res = validate(&fp->obj, &fs);	/* Check validity of the file object */
    29a2:	be 01       	movw	r22, r28
    29a4:	6f 5f       	subi	r22, 0xFF	; 255
    29a6:	7f 4f       	sbci	r23, 0xFF	; 255
    29a8:	0e 94 87 03 	call	0x70e	; 0x70e <validate>
	if (res == FR_OK) {
    29ac:	81 11       	cpse	r24, r1
    29ae:	57 c0       	rjmp	.+174    	; 0x2a5e <f_sync+0xd2>
		if (fp->flag & FA_MODIFIED) {	/* Is there any change to the file? */
    29b0:	f7 01       	movw	r30, r14
    29b2:	86 85       	ldd	r24, Z+14	; 0x0e
    29b4:	86 ff       	sbrs	r24, 6
    29b6:	50 c0       	rjmp	.+160    	; 0x2a58 <f_sync+0xcc>
#if !FF_FS_TINY
			if (fp->flag & FA_DIRTY) {	/* Write-back cached data if needed */
    29b8:	88 23       	and	r24, r24
    29ba:	a4 f4       	brge	.+40     	; 0x29e4 <f_sync+0x58>
				if (disk_write(fs->pdrv, fp->buf, fp->sect, 1) != RES_OK) LEAVE_FF(fs, FR_DISK_ERR);
    29bc:	20 8d       	ldd	r18, Z+24	; 0x18
    29be:	31 8d       	ldd	r19, Z+25	; 0x19
    29c0:	42 8d       	ldd	r20, Z+26	; 0x1a
    29c2:	53 8d       	ldd	r21, Z+27	; 0x1b
    29c4:	e9 81       	ldd	r30, Y+1	; 0x01
    29c6:	fa 81       	ldd	r31, Y+2	; 0x02
    29c8:	01 e0       	ldi	r16, 0x01	; 1
    29ca:	10 e0       	ldi	r17, 0x00	; 0
    29cc:	b7 01       	movw	r22, r14
    29ce:	6e 5d       	subi	r22, 0xDE	; 222
    29d0:	7f 4f       	sbci	r23, 0xFF	; 255
    29d2:	81 81       	ldd	r24, Z+1	; 0x01
    29d4:	0e 94 bf 02 	call	0x57e	; 0x57e <disk_write>
    29d8:	81 11       	cpse	r24, r1
    29da:	40 c0       	rjmp	.+128    	; 0x2a5c <f_sync+0xd0>
				fp->flag &= (BYTE)~FA_DIRTY;
    29dc:	f7 01       	movw	r30, r14
    29de:	86 85       	ldd	r24, Z+14	; 0x0e
    29e0:	8f 77       	andi	r24, 0x7F	; 127
    29e2:	86 87       	std	Z+14, r24	; 0x0e
					FREE_NAMBUF();
				}
			} else
#endif
			{
				res = move_window(fs, fp->dir_sect);
    29e4:	f7 01       	movw	r30, r14
    29e6:	44 8d       	ldd	r20, Z+28	; 0x1c
    29e8:	55 8d       	ldd	r21, Z+29	; 0x1d
    29ea:	66 8d       	ldd	r22, Z+30	; 0x1e
    29ec:	77 8d       	ldd	r23, Z+31	; 0x1f
    29ee:	89 81       	ldd	r24, Y+1	; 0x01
    29f0:	9a 81       	ldd	r25, Y+2	; 0x02
    29f2:	0e 94 0b 04 	call	0x816	; 0x816 <move_window>
				if (res == FR_OK) {
    29f6:	81 11       	cpse	r24, r1
    29f8:	32 c0       	rjmp	.+100    	; 0x2a5e <f_sync+0xd2>
					dir = fp->dir_ptr;
    29fa:	f7 01       	movw	r30, r14
    29fc:	00 a1       	ldd	r16, Z+32	; 0x20
    29fe:	11 a1       	ldd	r17, Z+33	; 0x21
					dir[DIR_Attr] |= AM_ARC;						/* Set archive attribute to indicate that the file has been changed */
    2a00:	f8 01       	movw	r30, r16
    2a02:	83 85       	ldd	r24, Z+11	; 0x0b
    2a04:	80 62       	ori	r24, 0x20	; 32
    2a06:	83 87       	std	Z+11, r24	; 0x0b
					st_clust(fp->obj.fs, dir, fp->obj.sclust);		/* Update file allocation information  */
    2a08:	f7 01       	movw	r30, r14
    2a0a:	26 81       	ldd	r18, Z+6	; 0x06
    2a0c:	37 81       	ldd	r19, Z+7	; 0x07
    2a0e:	40 85       	ldd	r20, Z+8	; 0x08
    2a10:	51 85       	ldd	r21, Z+9	; 0x09
    2a12:	b8 01       	movw	r22, r16
    2a14:	80 81       	ld	r24, Z
    2a16:	91 81       	ldd	r25, Z+1	; 0x01
    2a18:	0e 94 31 06 	call	0xc62	; 0xc62 <st_clust>
					st_dword(dir + DIR_FileSize, (DWORD)fp->obj.objsize);	/* Update file size */
    2a1c:	f7 01       	movw	r30, r14
    2a1e:	32 85       	ldd	r19, Z+10	; 0x0a
    2a20:	23 85       	ldd	r18, Z+11	; 0x0b
    2a22:	94 85       	ldd	r25, Z+12	; 0x0c
    2a24:	85 85       	ldd	r24, Z+13	; 0x0d
	*ptr++ = (BYTE)val;
}

static void st_dword (BYTE* ptr, DWORD val)	/* Store a 4-byte word in little-endian */
{
	*ptr++ = (BYTE)val; val >>= 8;
    2a26:	f8 01       	movw	r30, r16
    2a28:	34 8f       	std	Z+28, r19	; 0x1c
	*ptr++ = (BYTE)val; val >>= 8;
    2a2a:	25 8f       	std	Z+29, r18	; 0x1d
	*ptr++ = (BYTE)val; val >>= 8;
    2a2c:	96 8f       	std	Z+30, r25	; 0x1e
	*ptr++ = (BYTE)val;
    2a2e:	87 8f       	std	Z+31, r24	; 0x1f
	*ptr++ = (BYTE)val;
}

static void st_dword (BYTE* ptr, DWORD val)	/* Store a 4-byte word in little-endian */
{
	*ptr++ = (BYTE)val; val >>= 8;
    2a30:	16 8a       	std	Z+22, r1	; 0x16
	*ptr++ = (BYTE)val; val >>= 8;
    2a32:	17 8a       	std	Z+23, r1	; 0x17
	*ptr++ = (BYTE)val; val >>= 8;
    2a34:	8f e6       	ldi	r24, 0x6F	; 111
    2a36:	80 8f       	std	Z+24, r24	; 0x18
	*ptr++ = (BYTE)val;
    2a38:	82 e5       	ldi	r24, 0x52	; 82
    2a3a:	81 8f       	std	Z+25, r24	; 0x19
#endif

#if !FF_FS_READONLY
static void st_word (BYTE* ptr, WORD val)	/* Store a 2-byte word in little-endian */
{
	*ptr++ = (BYTE)val; val >>= 8;
    2a3c:	12 8a       	std	Z+18, r1	; 0x12
	*ptr++ = (BYTE)val;
    2a3e:	13 8a       	std	Z+19, r1	; 0x13
					dir[DIR_Attr] |= AM_ARC;						/* Set archive attribute to indicate that the file has been changed */
					st_clust(fp->obj.fs, dir, fp->obj.sclust);		/* Update file allocation information  */
					st_dword(dir + DIR_FileSize, (DWORD)fp->obj.objsize);	/* Update file size */
					st_dword(dir + DIR_ModTime, tm);				/* Update modified time */
					st_word(dir + DIR_LstAccDate, 0);
					fs->wflag = 1;
    2a40:	89 81       	ldd	r24, Y+1	; 0x01
    2a42:	9a 81       	ldd	r25, Y+2	; 0x02
    2a44:	21 e0       	ldi	r18, 0x01	; 1
    2a46:	fc 01       	movw	r30, r24
    2a48:	23 83       	std	Z+3, r18	; 0x03
					res = sync_fs(fs);					/* Restore it to the directory */
    2a4a:	0e 94 a7 04 	call	0x94e	; 0x94e <sync_fs>
					fp->flag &= (BYTE)~FA_MODIFIED;
    2a4e:	f7 01       	movw	r30, r14
    2a50:	96 85       	ldd	r25, Z+14	; 0x0e
    2a52:	9f 7b       	andi	r25, 0xBF	; 191
    2a54:	96 87       	std	Z+14, r25	; 0x0e
    2a56:	03 c0       	rjmp	.+6      	; 0x2a5e <f_sync+0xd2>
	FATFS *fs;
	DWORD tm;
	BYTE *dir;


	res = validate(&fp->obj, &fs);	/* Check validity of the file object */
    2a58:	80 e0       	ldi	r24, 0x00	; 0
    2a5a:	01 c0       	rjmp	.+2      	; 0x2a5e <f_sync+0xd2>
	if (res == FR_OK) {
		if (fp->flag & FA_MODIFIED) {	/* Is there any change to the file? */
#if !FF_FS_TINY
			if (fp->flag & FA_DIRTY) {	/* Write-back cached data if needed */
				if (disk_write(fs->pdrv, fp->buf, fp->sect, 1) != RES_OK) LEAVE_FF(fs, FR_DISK_ERR);
    2a5c:	81 e0       	ldi	r24, 0x01	; 1
			}
		}
	}

	LEAVE_FF(fs, res);
}
    2a5e:	0f 90       	pop	r0
    2a60:	0f 90       	pop	r0
    2a62:	df 91       	pop	r29
    2a64:	cf 91       	pop	r28
    2a66:	1f 91       	pop	r17
    2a68:	0f 91       	pop	r16
    2a6a:	ff 90       	pop	r15
    2a6c:	ef 90       	pop	r14
    2a6e:	08 95       	ret

00002a70 <f_close>:
/*-----------------------------------------------------------------------*/

FRESULT f_close (
	FIL* fp		/* Pointer to the file object to be closed */
)
{
    2a70:	0f 93       	push	r16
    2a72:	1f 93       	push	r17
    2a74:	cf 93       	push	r28
    2a76:	df 93       	push	r29
    2a78:	1f 92       	push	r1
    2a7a:	1f 92       	push	r1
    2a7c:	cd b7       	in	r28, 0x3d	; 61
    2a7e:	de b7       	in	r29, 0x3e	; 62
    2a80:	8c 01       	movw	r16, r24
	FRESULT res;
	FATFS *fs;

#if !FF_FS_READONLY
	res = f_sync(fp);					/* Flush cached data */
    2a82:	84 df       	rcall	.-248    	; 0x298c <f_sync>
	if (res == FR_OK)
    2a84:	81 11       	cpse	r24, r1
    2a86:	0b c0       	rjmp	.+22     	; 0x2a9e <f_close+0x2e>
#endif
	{
		res = validate(&fp->obj, &fs);	/* Lock volume */
    2a88:	be 01       	movw	r22, r28
    2a8a:	6f 5f       	subi	r22, 0xFF	; 255
    2a8c:	7f 4f       	sbci	r23, 0xFF	; 255
    2a8e:	c8 01       	movw	r24, r16
    2a90:	0e 94 87 03 	call	0x70e	; 0x70e <validate>
		if (res == FR_OK) {
    2a94:	81 11       	cpse	r24, r1
    2a96:	03 c0       	rjmp	.+6      	; 0x2a9e <f_close+0x2e>
#if FF_FS_LOCK != 0
			res = dec_lock(fp->obj.lockid);		/* Decrement file open counter */
			if (res == FR_OK) fp->obj.fs = 0;	/* Invalidate file object */
#else
			fp->obj.fs = 0;	/* Invalidate file object */
    2a98:	f8 01       	movw	r30, r16
    2a9a:	11 82       	std	Z+1, r1	; 0x01
    2a9c:	10 82       	st	Z, r1
			unlock_fs(fs, FR_OK);		/* Unlock volume */
#endif
		}
	}
	return res;
}
    2a9e:	0f 90       	pop	r0
    2aa0:	0f 90       	pop	r0
    2aa2:	df 91       	pop	r29
    2aa4:	cf 91       	pop	r28
    2aa6:	1f 91       	pop	r17
    2aa8:	0f 91       	pop	r16
    2aaa:	08 95       	ret

00002aac <SD_sendCommand>:
	response = SD_sendCommand(ERASE_SELECTED_BLOCKS, 0); //erase all selected blocks
	if(response != 0x00) //check for SD status: 0x00 - OK (No flags set)
		return response;

	return 0; //normal return
}
    2aac:	cf 92       	push	r12
    2aae:	df 92       	push	r13
    2ab0:	ef 92       	push	r14
    2ab2:	ff 92       	push	r15
    2ab4:	1f 93       	push	r17
    2ab6:	cf 93       	push	r28
    2ab8:	df 93       	push	r29
    2aba:	18 2f       	mov	r17, r24
    2abc:	6a 01       	movw	r12, r20
    2abe:	7b 01       	movw	r14, r22
    2ac0:	80 91 97 0d 	lds	r24, 0x0D97	; 0x800d97 <SDHC_flag>
    2ac4:	81 11       	cpse	r24, r1
    2ac6:	15 c0       	rjmp	.+42     	; 0x2af2 <SD_sendCommand+0x46>
    2ac8:	8f ee       	ldi	r24, 0xEF	; 239
    2aca:	81 0f       	add	r24, r17
    2acc:	82 30       	cpi	r24, 0x02	; 2
    2ace:	40 f0       	brcs	.+16     	; 0x2ae0 <SD_sendCommand+0x34>
    2ad0:	88 ee       	ldi	r24, 0xE8	; 232
    2ad2:	81 0f       	add	r24, r17
    2ad4:	82 30       	cpi	r24, 0x02	; 2
    2ad6:	20 f0       	brcs	.+8      	; 0x2ae0 <SD_sendCommand+0x34>
    2ad8:	80 ee       	ldi	r24, 0xE0	; 224
    2ada:	81 0f       	add	r24, r17
    2adc:	82 30       	cpi	r24, 0x02	; 2
    2ade:	48 f4       	brcc	.+18     	; 0x2af2 <SD_sendCommand+0x46>
    2ae0:	0b 2e       	mov	r0, r27
    2ae2:	b9 e0       	ldi	r27, 0x09	; 9
    2ae4:	cc 0c       	add	r12, r12
    2ae6:	dd 1c       	adc	r13, r13
    2ae8:	ee 1c       	adc	r14, r14
    2aea:	ff 1c       	adc	r15, r15
    2aec:	ba 95       	dec	r27
    2aee:	d1 f7       	brne	.-12     	; 0x2ae4 <SD_sendCommand+0x38>
    2af0:	b0 2d       	mov	r27, r0
    2af2:	52 d1       	rcall	.+676    	; 0x2d98 <SPI_Chip_Select>
    2af4:	81 2f       	mov	r24, r17
    2af6:	80 64       	ori	r24, 0x40	; 64
    2af8:	42 d1       	rcall	.+644    	; 0x2d7e <SPI_transmit>
    2afa:	8f 2d       	mov	r24, r15
    2afc:	40 d1       	rcall	.+640    	; 0x2d7e <SPI_transmit>
    2afe:	8e 2d       	mov	r24, r14
    2b00:	3e d1       	rcall	.+636    	; 0x2d7e <SPI_transmit>
    2b02:	8d 2d       	mov	r24, r13
    2b04:	3c d1       	rcall	.+632    	; 0x2d7e <SPI_transmit>
    2b06:	8c 2d       	mov	r24, r12
    2b08:	3a d1       	rcall	.+628    	; 0x2d7e <SPI_transmit>
    2b0a:	18 30       	cpi	r17, 0x08	; 8
    2b0c:	19 f4       	brne	.+6      	; 0x2b14 <SD_sendCommand+0x68>
    2b0e:	87 e8       	ldi	r24, 0x87	; 135
    2b10:	36 d1       	rcall	.+620    	; 0x2d7e <SPI_transmit>
    2b12:	06 c0       	rjmp	.+12     	; 0x2b20 <SD_sendCommand+0x74>
    2b14:	85 e9       	ldi	r24, 0x95	; 149
    2b16:	33 d1       	rcall	.+614    	; 0x2d7e <SPI_transmit>
    2b18:	03 c0       	rjmp	.+6      	; 0x2b20 <SD_sendCommand+0x74>
    2b1a:	c1 50       	subi	r28, 0x01	; 1
    2b1c:	11 f4       	brne	.+4      	; 0x2b22 <SD_sendCommand+0x76>
    2b1e:	16 c0       	rjmp	.+44     	; 0x2b4c <SD_sendCommand+0xa0>
    2b20:	c0 e0       	ldi	r28, 0x00	; 0
    2b22:	33 d1       	rcall	.+614    	; 0x2d8a <SPI_receive>
    2b24:	d8 2f       	mov	r29, r24
    2b26:	8f 3f       	cpi	r24, 0xFF	; 255
    2b28:	c1 f3       	breq	.-16     	; 0x2b1a <SD_sendCommand+0x6e>
    2b2a:	81 11       	cpse	r24, r1
    2b2c:	0f c0       	rjmp	.+30     	; 0x2b4c <SD_sendCommand+0xa0>
    2b2e:	1a 33       	cpi	r17, 0x3A	; 58
    2b30:	69 f4       	brne	.+26     	; 0x2b4c <SD_sendCommand+0xa0>
    2b32:	2b d1       	rcall	.+598    	; 0x2d8a <SPI_receive>
    2b34:	86 ff       	sbrs	r24, 6
    2b36:	04 c0       	rjmp	.+8      	; 0x2b40 <SD_sendCommand+0x94>
    2b38:	81 e0       	ldi	r24, 0x01	; 1
    2b3a:	80 93 97 0d 	sts	0x0D97, r24	; 0x800d97 <SDHC_flag>
    2b3e:	02 c0       	rjmp	.+4      	; 0x2b44 <SD_sendCommand+0x98>
    2b40:	10 92 97 0d 	sts	0x0D97, r1	; 0x800d97 <SDHC_flag>
    2b44:	22 d1       	rcall	.+580    	; 0x2d8a <SPI_receive>
    2b46:	21 d1       	rcall	.+578    	; 0x2d8a <SPI_receive>
    2b48:	20 d1       	rcall	.+576    	; 0x2d8a <SPI_receive>
    2b4a:	05 c0       	rjmp	.+10     	; 0x2b56 <SD_sendCommand+0xaa>
    2b4c:	16 32       	cpi	r17, 0x26	; 38
    2b4e:	19 f4       	brne	.+6      	; 0x2b56 <SD_sendCommand+0xaa>
    2b50:	1c d1       	rcall	.+568    	; 0x2d8a <SPI_receive>
    2b52:	88 23       	and	r24, r24
    2b54:	e9 f3       	breq	.-6      	; 0x2b50 <SD_sendCommand+0xa4>
    2b56:	19 d1       	rcall	.+562    	; 0x2d8a <SPI_receive>
    2b58:	21 d1       	rcall	.+578    	; 0x2d9c <SPI_Chip_Deselect>
    2b5a:	8d 2f       	mov	r24, r29
    2b5c:	df 91       	pop	r29
    2b5e:	cf 91       	pop	r28
    2b60:	1f 91       	pop	r17
    2b62:	ff 90       	pop	r15
    2b64:	ef 90       	pop	r14
    2b66:	df 90       	pop	r13
    2b68:	cf 90       	pop	r12
    2b6a:	08 95       	ret

00002b6c <SD_init>:
    2b6c:	0f 93       	push	r16
    2b6e:	1f 93       	push	r17
    2b70:	cf 93       	push	r28
    2b72:	df 93       	push	r29
    2b74:	fc d0       	rcall	.+504    	; 0x2d6e <SPI_init>
    2b76:	1a e0       	ldi	r17, 0x0A	; 10
    2b78:	8f ef       	ldi	r24, 0xFF	; 255
    2b7a:	01 d1       	rcall	.+514    	; 0x2d7e <SPI_transmit>
    2b7c:	11 50       	subi	r17, 0x01	; 1
    2b7e:	e1 f7       	brne	.-8      	; 0x2b78 <SD_init+0xc>
    2b80:	0b d1       	rcall	.+534    	; 0x2d98 <SPI_Chip_Select>
    2b82:	40 e0       	ldi	r20, 0x00	; 0
    2b84:	50 e0       	ldi	r21, 0x00	; 0
    2b86:	ba 01       	movw	r22, r20
    2b88:	80 e0       	ldi	r24, 0x00	; 0
    2b8a:	90 df       	rcall	.-224    	; 0x2aac <SD_sendCommand>
    2b8c:	c0 e2       	ldi	r28, 0x20	; 32
    2b8e:	d0 e0       	ldi	r29, 0x00	; 0
    2b90:	08 c0       	rjmp	.+16     	; 0x2ba2 <SD_init+0x36>
    2b92:	40 e0       	ldi	r20, 0x00	; 0
    2b94:	50 e0       	ldi	r21, 0x00	; 0
    2b96:	ba 01       	movw	r22, r20
    2b98:	80 e0       	ldi	r24, 0x00	; 0
    2b9a:	88 df       	rcall	.-240    	; 0x2aac <SD_sendCommand>
    2b9c:	21 97       	sbiw	r28, 0x01	; 1
    2b9e:	09 f4       	brne	.+2      	; 0x2ba2 <SD_init+0x36>
    2ba0:	65 c0       	rjmp	.+202    	; 0x2c6c <SD_init+0x100>
    2ba2:	81 30       	cpi	r24, 0x01	; 1
    2ba4:	b1 f7       	brne	.-20     	; 0x2b92 <SD_init+0x26>
    2ba6:	fa d0       	rcall	.+500    	; 0x2d9c <SPI_Chip_Deselect>
    2ba8:	8f ef       	ldi	r24, 0xFF	; 255
    2baa:	e9 d0       	rcall	.+466    	; 0x2d7e <SPI_transmit>
    2bac:	8f ef       	ldi	r24, 0xFF	; 255
    2bae:	e7 d0       	rcall	.+462    	; 0x2d7e <SPI_transmit>
    2bb0:	4a ea       	ldi	r20, 0xAA	; 170
    2bb2:	51 e0       	ldi	r21, 0x01	; 1
    2bb4:	60 e0       	ldi	r22, 0x00	; 0
    2bb6:	70 e0       	ldi	r23, 0x00	; 0
    2bb8:	88 e0       	ldi	r24, 0x08	; 8
    2bba:	78 df       	rcall	.-272    	; 0x2aac <SD_sendCommand>
    2bbc:	ce ef       	ldi	r28, 0xFE	; 254
    2bbe:	d0 e0       	ldi	r29, 0x00	; 0
    2bc0:	0d c0       	rjmp	.+26     	; 0x2bdc <SD_init+0x70>
    2bc2:	4a ea       	ldi	r20, 0xAA	; 170
    2bc4:	51 e0       	ldi	r21, 0x01	; 1
    2bc6:	60 e0       	ldi	r22, 0x00	; 0
    2bc8:	70 e0       	ldi	r23, 0x00	; 0
    2bca:	88 e0       	ldi	r24, 0x08	; 8
    2bcc:	6f df       	rcall	.-290    	; 0x2aac <SD_sendCommand>
    2bce:	21 97       	sbiw	r28, 0x01	; 1
    2bd0:	29 f4       	brne	.+10     	; 0x2bdc <SD_init+0x70>
    2bd2:	81 e0       	ldi	r24, 0x01	; 1
    2bd4:	80 93 9c 0d 	sts	0x0D9C, r24	; 0x800d9c <cardType>
    2bd8:	01 e0       	ldi	r16, 0x01	; 1
    2bda:	03 c0       	rjmp	.+6      	; 0x2be2 <SD_init+0x76>
    2bdc:	81 30       	cpi	r24, 0x01	; 1
    2bde:	89 f7       	brne	.-30     	; 0x2bc2 <SD_init+0x56>
    2be0:	02 e0       	ldi	r16, 0x02	; 2
    2be2:	40 e0       	ldi	r20, 0x00	; 0
    2be4:	50 e0       	ldi	r21, 0x00	; 0
    2be6:	ba 01       	movw	r22, r20
    2be8:	87 e3       	ldi	r24, 0x37	; 55
    2bea:	60 df       	rcall	.-320    	; 0x2aac <SD_sendCommand>
    2bec:	40 e0       	ldi	r20, 0x00	; 0
    2bee:	50 e0       	ldi	r21, 0x00	; 0
    2bf0:	60 e0       	ldi	r22, 0x00	; 0
    2bf2:	70 e4       	ldi	r23, 0x40	; 64
    2bf4:	89 e2       	ldi	r24, 0x29	; 41
    2bf6:	5a df       	rcall	.-332    	; 0x2aac <SD_sendCommand>
    2bf8:	ce ef       	ldi	r28, 0xFE	; 254
    2bfa:	d0 e0       	ldi	r29, 0x00	; 0
    2bfc:	0d c0       	rjmp	.+26     	; 0x2c18 <SD_init+0xac>
    2bfe:	40 e0       	ldi	r20, 0x00	; 0
    2c00:	50 e0       	ldi	r21, 0x00	; 0
    2c02:	ba 01       	movw	r22, r20
    2c04:	87 e3       	ldi	r24, 0x37	; 55
    2c06:	52 df       	rcall	.-348    	; 0x2aac <SD_sendCommand>
    2c08:	40 e0       	ldi	r20, 0x00	; 0
    2c0a:	50 e0       	ldi	r21, 0x00	; 0
    2c0c:	60 e0       	ldi	r22, 0x00	; 0
    2c0e:	70 e4       	ldi	r23, 0x40	; 64
    2c10:	89 e2       	ldi	r24, 0x29	; 41
    2c12:	4c df       	rcall	.-360    	; 0x2aac <SD_sendCommand>
    2c14:	21 97       	sbiw	r28, 0x01	; 1
    2c16:	61 f1       	breq	.+88     	; 0x2c70 <SD_init+0x104>
    2c18:	81 11       	cpse	r24, r1
    2c1a:	f1 cf       	rjmp	.-30     	; 0x2bfe <SD_init+0x92>
    2c1c:	10 92 97 0d 	sts	0x0D97, r1	; 0x800d97 <SDHC_flag>
    2c20:	02 30       	cpi	r16, 0x02	; 2
    2c22:	c1 f4       	brne	.+48     	; 0x2c54 <SD_init+0xe8>
    2c24:	27 c0       	rjmp	.+78     	; 0x2c74 <SD_init+0x108>
    2c26:	40 e0       	ldi	r20, 0x00	; 0
    2c28:	50 e0       	ldi	r21, 0x00	; 0
    2c2a:	ba 01       	movw	r22, r20
    2c2c:	8a e3       	ldi	r24, 0x3A	; 58
    2c2e:	3e df       	rcall	.-388    	; 0x2aac <SD_sendCommand>
    2c30:	21 97       	sbiw	r28, 0x01	; 1
    2c32:	19 f4       	brne	.+6      	; 0x2c3a <SD_init+0xce>
    2c34:	10 92 9c 0d 	sts	0x0D9C, r1	; 0x800d9c <cardType>
    2c38:	02 c0       	rjmp	.+4      	; 0x2c3e <SD_init+0xd2>
    2c3a:	81 11       	cpse	r24, r1
    2c3c:	f4 cf       	rjmp	.-24     	; 0x2c26 <SD_init+0xba>
    2c3e:	80 91 97 0d 	lds	r24, 0x0D97	; 0x800d97 <SDHC_flag>
    2c42:	81 30       	cpi	r24, 0x01	; 1
    2c44:	21 f4       	brne	.+8      	; 0x2c4e <SD_init+0xe2>
    2c46:	82 e0       	ldi	r24, 0x02	; 2
    2c48:	80 93 9c 0d 	sts	0x0D9C, r24	; 0x800d9c <cardType>
    2c4c:	03 c0       	rjmp	.+6      	; 0x2c54 <SD_init+0xe8>
    2c4e:	83 e0       	ldi	r24, 0x03	; 3
    2c50:	80 93 9c 0d 	sts	0x0D9C, r24	; 0x800d9c <cardType>
    2c54:	40 e0       	ldi	r20, 0x00	; 0
    2c56:	50 e0       	ldi	r21, 0x00	; 0
    2c58:	ba 01       	movw	r22, r20
    2c5a:	8b e3       	ldi	r24, 0x3B	; 59
    2c5c:	27 df       	rcall	.-434    	; 0x2aac <SD_sendCommand>
    2c5e:	40 e0       	ldi	r20, 0x00	; 0
    2c60:	52 e0       	ldi	r21, 0x02	; 2
    2c62:	60 e0       	ldi	r22, 0x00	; 0
    2c64:	70 e0       	ldi	r23, 0x00	; 0
    2c66:	80 e1       	ldi	r24, 0x10	; 16
    2c68:	21 df       	rcall	.-446    	; 0x2aac <SD_sendCommand>
    2c6a:	0c c0       	rjmp	.+24     	; 0x2c84 <SD_init+0x118>
    2c6c:	11 e0       	ldi	r17, 0x01	; 1
    2c6e:	0a c0       	rjmp	.+20     	; 0x2c84 <SD_init+0x118>
    2c70:	12 e0       	ldi	r17, 0x02	; 2
    2c72:	08 c0       	rjmp	.+16     	; 0x2c84 <SD_init+0x118>
    2c74:	40 e0       	ldi	r20, 0x00	; 0
    2c76:	50 e0       	ldi	r21, 0x00	; 0
    2c78:	ba 01       	movw	r22, r20
    2c7a:	8a e3       	ldi	r24, 0x3A	; 58
    2c7c:	17 df       	rcall	.-466    	; 0x2aac <SD_sendCommand>
    2c7e:	ce ef       	ldi	r28, 0xFE	; 254
    2c80:	d0 e0       	ldi	r29, 0x00	; 0
    2c82:	db cf       	rjmp	.-74     	; 0x2c3a <SD_init+0xce>
    2c84:	81 2f       	mov	r24, r17
    2c86:	df 91       	pop	r29
    2c88:	cf 91       	pop	r28
    2c8a:	1f 91       	pop	r17
    2c8c:	0f 91       	pop	r16
    2c8e:	08 95       	ret

00002c90 <SD_readSingleBlock>:
//Arguments	: None
//return	: unsigned char; will be 0 if no error,
// 			  otherwise the response byte will be sent
//******************************************************************
unsigned char SD_readSingleBlock(unsigned long startBlock, unsigned char* ptr)
{
    2c90:	0f 93       	push	r16
    2c92:	1f 93       	push	r17
    2c94:	cf 93       	push	r28
    2c96:	df 93       	push	r29
    2c98:	ea 01       	movw	r28, r20
	unsigned char response;
	unsigned int i, retry = 0;

	response = SD_sendCommand(READ_SINGLE_BLOCK, startBlock); //CMD17 = read a Block command
    2c9a:	ab 01       	movw	r20, r22
    2c9c:	bc 01       	movw	r22, r24
    2c9e:	81 e1       	ldi	r24, 0x11	; 17
    2ca0:	05 df       	rcall	.-502    	; 0x2aac <SD_sendCommand>
 
	if(response != 0x00)
    2ca2:	81 11       	cpse	r24, r1
		return response; //check for SD status: 0x00 - OK (No flags set)

	SPI_Chip_Select();
    2ca4:	19 c0       	rjmp	.+50     	; 0x2cd8 <SD_readSingleBlock+0x48>
    2ca6:	78 d0       	rcall	.+240    	; 0x2d98 <SPI_Chip_Select>

	retry = 0;
	while(SPI_receive() != 0b11111110) //wait for start single block token (0b11111110)
    2ca8:	0a ee       	ldi	r16, 0xEA	; 234
    2caa:	1d ef       	ldi	r17, 0xFD	; 253
    2cac:	06 c0       	rjmp	.+12     	; 0x2cba <SD_readSingleBlock+0x2a>
    2cae:	01 50       	subi	r16, 0x01	; 1
	{
		if(retry++ > 65000)
    2cb0:	11 09       	sbc	r17, r1
		{
			SPI_Chip_Deselect();
    2cb2:	19 f4       	brne	.+6      	; 0x2cba <SD_readSingleBlock+0x2a>
			return 1;
    2cb4:	73 d0       	rcall	.+230    	; 0x2d9c <SPI_Chip_Deselect>
    2cb6:	81 e0       	ldi	r24, 0x01	; 1
		return response; //check for SD status: 0x00 - OK (No flags set)

	SPI_Chip_Select();

	retry = 0;
	while(SPI_receive() != 0b11111110) //wait for start single block token (0b11111110)
    2cb8:	0f c0       	rjmp	.+30     	; 0x2cd8 <SD_readSingleBlock+0x48>
    2cba:	67 d0       	rcall	.+206    	; 0x2d8a <SPI_receive>
    2cbc:	8e 3f       	cpi	r24, 0xFE	; 254
    2cbe:	b9 f7       	brne	.-18     	; 0x2cae <SD_readSingleBlock+0x1e>
    2cc0:	8e 01       	movw	r16, r28
		} //return if time-out
	}
			
	for(i = 0; i < 512; i++) //read 512 bytes
	{
		*ptr = SPI_receive();
    2cc2:	1e 5f       	subi	r17, 0xFE	; 254
    2cc4:	62 d0       	rcall	.+196    	; 0x2d8a <SPI_receive>
			SPI_Chip_Deselect();
			return 1;
		} //return if time-out
	}
			
	for(i = 0; i < 512; i++) //read 512 bytes
    2cc6:	89 93       	st	Y+, r24
	{
		*ptr = SPI_receive();
		ptr++;
	}		

	SPI_receive(); //receive incoming CRC (16-bit), CRC is ignored here
    2cc8:	c0 17       	cp	r28, r16
    2cca:	d1 07       	cpc	r29, r17
	SPI_receive();
    2ccc:	d9 f7       	brne	.-10     	; 0x2cc4 <SD_readSingleBlock+0x34>
    2cce:	5d d0       	rcall	.+186    	; 0x2d8a <SPI_receive>

	SPI_receive(); //extra 8 clock pulses
    2cd0:	5c d0       	rcall	.+184    	; 0x2d8a <SPI_receive>
    2cd2:	5b d0       	rcall	.+182    	; 0x2d8a <SPI_receive>
	SPI_Chip_Deselect();
    2cd4:	63 d0       	rcall	.+198    	; 0x2d9c <SPI_Chip_Deselect>
    2cd6:	80 e0       	ldi	r24, 0x00	; 0

	return 0;
    2cd8:	df 91       	pop	r29
}
    2cda:	cf 91       	pop	r28
    2cdc:	1f 91       	pop	r17
    2cde:	0f 91       	pop	r16
    2ce0:	08 95       	ret

00002ce2 <SD_writeSingleBlock>:
    2ce2:	0f 93       	push	r16
//Arguments	: None
//return	: unsigned char; will be 0 if no error,
// 			  otherwise the response byte will be sent
//******************************************************************
unsigned char SD_writeSingleBlock(unsigned long startBlock, unsigned char* ptr)
{
    2ce4:	1f 93       	push	r17
    2ce6:	cf 93       	push	r28
    2ce8:	df 93       	push	r29
    2cea:	ea 01       	movw	r28, r20
	unsigned char response;
	unsigned int i, retry = 0;

	response = SD_sendCommand(WRITE_SINGLE_BLOCK, startBlock); //write a Block command
    2cec:	ab 01       	movw	r20, r22
    2cee:	bc 01       	movw	r22, r24
    2cf0:	88 e1       	ldi	r24, 0x18	; 24
    2cf2:	dc de       	rcall	.-584    	; 0x2aac <SD_sendCommand>
  
	if(response != 0x00)
    2cf4:	81 11       	cpse	r24, r1
		return response; //check for SD status: 0x00 - OK (No flags set)

	SPI_Chip_Select();
    2cf6:	36 c0       	rjmp	.+108    	; 0x2d64 <SD_writeSingleBlock+0x82>

	SPI_transmit(0b11111110); //Send start single block token (0b11111110)
    2cf8:	4f d0       	rcall	.+158    	; 0x2d98 <SPI_Chip_Select>
    2cfa:	8e ef       	ldi	r24, 0xFE	; 254
    2cfc:	40 d0       	rcall	.+128    	; 0x2d7e <SPI_transmit>
    2cfe:	8e 01       	movw	r16, r28
	for(i = 0; i < 512; i++) //send 512 bytes data
	{
		SPI_transmit(*ptr);
    2d00:	1e 5f       	subi	r17, 0xFE	; 254
    2d02:	89 91       	ld	r24, Y+
    2d04:	3c d0       	rcall	.+120    	; 0x2d7e <SPI_transmit>
		return response; //check for SD status: 0x00 - OK (No flags set)

	SPI_Chip_Select();

	SPI_transmit(0b11111110); //Send start single block token (0b11111110)
	for(i = 0; i < 512; i++) //send 512 bytes data
    2d06:	0c 17       	cp	r16, r28
    2d08:	1d 07       	cpc	r17, r29
	{
		SPI_transmit(*ptr);
		ptr++;
	}
	SPI_transmit(0xff); //transmit dummy CRC (16-bit), CRC is ignored here
    2d0a:	d9 f7       	brne	.-10     	; 0x2d02 <SD_writeSingleBlock+0x20>
    2d0c:	8f ef       	ldi	r24, 0xFF	; 255
	SPI_transmit(0xff);
    2d0e:	37 d0       	rcall	.+110    	; 0x2d7e <SPI_transmit>
    2d10:	8f ef       	ldi	r24, 0xFF	; 255

	response = SPI_receive();
    2d12:	35 d0       	rcall	.+106    	; 0x2d7e <SPI_transmit>
    2d14:	3a d0       	rcall	.+116    	; 0x2d8a <SPI_receive>
    2d16:	c8 2f       	mov	r28, r24

	if( (response & 0b00011111) != 0b00000101) //response= 0bXXX0AAA1 ; AAA='010' - data accepted
    2d18:	8f 71       	andi	r24, 0x1F	; 31
    2d1a:	85 30       	cpi	r24, 0x05	; 5
    2d1c:	59 f0       	breq	.+22     	; 0x2d34 <SD_writeSingleBlock+0x52>
	{                              //AAA='101'-data rejected due to CRC error
		SPI_Chip_Deselect();       //AAA='110'-data rejected due to write error
    2d1e:	3e d0       	rcall	.+124    	; 0x2d9c <SPI_Chip_Deselect>
		return response;
    2d20:	8c 2f       	mov	r24, r28
    2d22:	20 c0       	rjmp	.+64     	; 0x2d64 <SD_writeSingleBlock+0x82>
	}

	while(SPI_receive() == 0) //wait for SD card to complete writing and get idle
	{
		if(retry++ > 65000)
    2d24:	21 96       	adiw	r28, 0x01	; 1
    2d26:	ca 3e       	cpi	r28, 0xEA	; 234
    2d28:	2d ef       	ldi	r18, 0xFD	; 253
    2d2a:	d2 07       	cpc	r29, r18
		{
			SPI_Chip_Deselect();
    2d2c:	29 f4       	brne	.+10     	; 0x2d38 <SD_writeSingleBlock+0x56>
			return 1;
    2d2e:	36 d0       	rcall	.+108    	; 0x2d9c <SPI_Chip_Deselect>
    2d30:	81 e0       	ldi	r24, 0x01	; 1
	{                              //AAA='101'-data rejected due to CRC error
		SPI_Chip_Deselect();       //AAA='110'-data rejected due to write error
		return response;
	}

	while(SPI_receive() == 0) //wait for SD card to complete writing and get idle
    2d32:	18 c0       	rjmp	.+48     	; 0x2d64 <SD_writeSingleBlock+0x82>
    2d34:	c0 e0       	ldi	r28, 0x00	; 0
    2d36:	d0 e0       	ldi	r29, 0x00	; 0
    2d38:	28 d0       	rcall	.+80     	; 0x2d8a <SPI_receive>
			SPI_Chip_Deselect();
			return 1;
		}
	}

	SPI_Chip_Deselect();
    2d3a:	88 23       	and	r24, r24
	SPI_transmit(0xff);   //just spend 8 clock cycle delay before reasserting the CS line
    2d3c:	99 f3       	breq	.-26     	; 0x2d24 <SD_writeSingleBlock+0x42>
    2d3e:	2e d0       	rcall	.+92     	; 0x2d9c <SPI_Chip_Deselect>
	SPI_Chip_Select();    //re-asserting the CS line to verify if card is still busy
    2d40:	8f ef       	ldi	r24, 0xFF	; 255
    2d42:	1d d0       	rcall	.+58     	; 0x2d7e <SPI_transmit>

	while(SPI_receive() == 0) //wait for SD card to complete writing and get idle
	{
		if(retry++ > 65000)
    2d44:	29 d0       	rcall	.+82     	; 0x2d98 <SPI_Chip_Select>
    2d46:	09 c0       	rjmp	.+18     	; 0x2d5a <SD_writeSingleBlock+0x78>
    2d48:	ce 01       	movw	r24, r28
    2d4a:	01 96       	adiw	r24, 0x01	; 1
    2d4c:	c9 3e       	cpi	r28, 0xE9	; 233
		{
			SPI_Chip_Deselect();
    2d4e:	dd 4f       	sbci	r29, 0xFD	; 253
    2d50:	18 f0       	brcs	.+6      	; 0x2d58 <SD_writeSingleBlock+0x76>
			return 1;
    2d52:	24 d0       	rcall	.+72     	; 0x2d9c <SPI_Chip_Deselect>
    2d54:	81 e0       	ldi	r24, 0x01	; 1
	SPI_transmit(0xff);   //just spend 8 clock cycle delay before reasserting the CS line
	SPI_Chip_Select();    //re-asserting the CS line to verify if card is still busy

	while(SPI_receive() == 0) //wait for SD card to complete writing and get idle
	{
		if(retry++ > 65000)
    2d56:	06 c0       	rjmp	.+12     	; 0x2d64 <SD_writeSingleBlock+0x82>

	SPI_Chip_Deselect();
	SPI_transmit(0xff);   //just spend 8 clock cycle delay before reasserting the CS line
	SPI_Chip_Select();    //re-asserting the CS line to verify if card is still busy

	while(SPI_receive() == 0) //wait for SD card to complete writing and get idle
    2d58:	ec 01       	movw	r28, r24
    2d5a:	17 d0       	rcall	.+46     	; 0x2d8a <SPI_receive>
    2d5c:	88 23       	and	r24, r24
    2d5e:	a1 f3       	breq	.-24     	; 0x2d48 <SD_writeSingleBlock+0x66>
			SPI_Chip_Deselect();
			return 1;
		}
	}			
	   
	SPI_Chip_Deselect();
    2d60:	1d d0       	rcall	.+58     	; 0x2d9c <SPI_Chip_Deselect>
    2d62:	80 e0       	ldi	r24, 0x00	; 0
	return 0;
    2d64:	df 91       	pop	r29
}
    2d66:	cf 91       	pop	r28
    2d68:	1f 91       	pop	r17
    2d6a:	0f 91       	pop	r16
    2d6c:	08 95       	ret

00002d6e <SPI_init>:
#include "SPIdriver.h"

//SPI initialize for SD card
void SPI_init(void)
{
	SPI_DDR |= 1 << SS_BIT;
    2d6e:	20 9a       	sbi	0x04, 0	; 4
	SPI_DDR |= 1 << MOSI_BIT;
    2d70:	22 9a       	sbi	0x04, 2	; 4
	SPI_DDR &= ~(1 << MISO_BIT);
    2d72:	23 98       	cbi	0x04, 3	; 4
	SPI_DDR |= 1 << SCK_BIT;
    2d74:	21 9a       	sbi	0x04, 1	; 4
	//Setup SPI: Enable, Master mode, MSB first, SCK phase low, SCK idle low, f = fosc/64 = 16 MHz/64 = 250 kHz
	SPCR = 0b01010010;
    2d76:	82 e5       	ldi	r24, 0x52	; 82
    2d78:	8c bd       	out	0x2c, r24	; 44
	SPSR = 0;
    2d7a:	1d bc       	out	0x2d, r1	; 45
    2d7c:	08 95       	ret

00002d7e <SPI_transmit>:
void SPI_transmit(unsigned char data)
{
unsigned char dummy;
	
	// Start transmission
	SPDR = data;
    2d7e:	8e bd       	out	0x2e, r24	; 46
	// Wait for transmission complete
	while(!(SPSR & (1<<SPIF)))
    2d80:	0d b4       	in	r0, 0x2d	; 45
    2d82:	07 fe       	sbrs	r0, 7
    2d84:	fd cf       	rjmp	.-6      	; 0x2d80 <SPI_transmit+0x2>
	{}
    // Clear flag 		
	dummy = SPDR;
    2d86:	8e b5       	in	r24, 0x2e	; 46
    2d88:	08 95       	ret

00002d8a <SPI_receive>:
unsigned char SPI_receive()
{
	unsigned char data;
	// Wait for reception complete

	SPDR = 0xff;
    2d8a:	8f ef       	ldi	r24, 0xFF	; 255
    2d8c:	8e bd       	out	0x2e, r24	; 46
	while(!(SPSR & (1<<SPIF)));
    2d8e:	0d b4       	in	r0, 0x2d	; 45
    2d90:	07 fe       	sbrs	r0, 7
    2d92:	fd cf       	rjmp	.-6      	; 0x2d8e <SPI_receive+0x4>
	data = SPDR;
    2d94:	8e b5       	in	r24, 0x2e	; 46

	// Return data register
	return data;
}
    2d96:	08 95       	ret

00002d98 <SPI_Chip_Select>:

// CS active (=low)
void SPI_Chip_Select()
{
	SPI_PORT &= ~(1 << SS_BIT);
    2d98:	28 98       	cbi	0x05, 0	; 5
    2d9a:	08 95       	ret

00002d9c <SPI_Chip_Deselect>:
}

// CS inactive (=high)
void SPI_Chip_Deselect()
{
	SPI_PORT |= (1 << SS_BIT);
    2d9c:	28 9a       	sbi	0x05, 0	; 5
    2d9e:	08 95       	ret

00002da0 <InitUART>:
  // Wait for new character received
  while ( (UCSRnA & (1<<7)) == 0 )
  {}                        
  // Then return it
  return UDRn;
}
    2da0:	0f 93       	push	r16
    2da2:	cf 93       	push	r28
    2da4:	df 93       	push	r29
    2da6:	ec 01       	movw	r28, r24
    2da8:	db 01       	movw	r26, r22
    2daa:	ca 01       	movw	r24, r20
    2dac:	8c 52       	subi	r24, 0x2C	; 44
    2dae:	91 40       	sbci	r25, 0x01	; 1
    2db0:	a1 09       	sbc	r26, r1
    2db2:	b1 09       	sbc	r27, r1
    2db4:	85 3d       	cpi	r24, 0xD5	; 213
    2db6:	90 4c       	sbci	r25, 0xC0	; 192
    2db8:	a1 40       	sbci	r26, 0x01	; 1
    2dba:	b1 05       	cpc	r27, r1
    2dbc:	08 f0       	brcs	.+2      	; 0x2dc0 <InitUART+0x20>
    2dbe:	40 c0       	rjmp	.+128    	; 0x2e40 <InitUART+0xa0>
    2dc0:	25 50       	subi	r18, 0x05	; 5
    2dc2:	24 30       	cpi	r18, 0x04	; 4
    2dc4:	e8 f5       	brcc	.+122    	; 0x2e40 <InitUART+0xa0>
    2dc6:	80 e2       	ldi	r24, 0x20	; 32
    2dc8:	88 83       	st	Y, r24
    2dca:	88 e1       	ldi	r24, 0x18	; 24
    2dcc:	89 83       	std	Y+1, r24	; 0x01
    2dce:	22 0f       	add	r18, r18
    2dd0:	2a 83       	std	Y+2, r18	; 0x02
    2dd2:	05 34       	cpi	r16, 0x45	; 69
    2dd4:	21 f4       	brne	.+8      	; 0x2dde <InitUART+0x3e>
    2dd6:	8a 81       	ldd	r24, Y+2	; 0x02
    2dd8:	80 62       	ori	r24, 0x20	; 32
    2dda:	8a 83       	std	Y+2, r24	; 0x02
    2ddc:	05 c0       	rjmp	.+10     	; 0x2de8 <InitUART+0x48>
    2dde:	0f 34       	cpi	r16, 0x4F	; 79
    2de0:	19 f4       	brne	.+6      	; 0x2de8 <InitUART+0x48>
    2de2:	8a 81       	ldd	r24, Y+2	; 0x02
    2de4:	80 63       	ori	r24, 0x30	; 48
    2de6:	8a 83       	std	Y+2, r24	; 0x02
    2de8:	db 01       	movw	r26, r22
    2dea:	ca 01       	movw	r24, r20
    2dec:	80 58       	subi	r24, 0x80	; 128
    2dee:	9b 47       	sbci	r25, 0x7B	; 123
    2df0:	a1 4e       	sbci	r26, 0xE1	; 225
    2df2:	bf 4f       	sbci	r27, 0xFF	; 255
    2df4:	88 0f       	add	r24, r24
    2df6:	99 1f       	adc	r25, r25
    2df8:	aa 1f       	adc	r26, r26
    2dfa:	bb 1f       	adc	r27, r27
    2dfc:	88 0f       	add	r24, r24
    2dfe:	99 1f       	adc	r25, r25
    2e00:	aa 1f       	adc	r26, r26
    2e02:	bb 1f       	adc	r27, r27
    2e04:	88 0f       	add	r24, r24
    2e06:	99 1f       	adc	r25, r25
    2e08:	aa 1f       	adc	r26, r26
    2e0a:	bb 1f       	adc	r27, r27
    2e0c:	44 0f       	add	r20, r20
    2e0e:	55 1f       	adc	r21, r21
    2e10:	66 1f       	adc	r22, r22
    2e12:	77 1f       	adc	r23, r23
    2e14:	44 0f       	add	r20, r20
    2e16:	55 1f       	adc	r21, r21
    2e18:	66 1f       	adc	r22, r22
    2e1a:	77 1f       	adc	r23, r23
    2e1c:	9a 01       	movw	r18, r20
    2e1e:	ab 01       	movw	r20, r22
    2e20:	22 0f       	add	r18, r18
    2e22:	33 1f       	adc	r19, r19
    2e24:	44 1f       	adc	r20, r20
    2e26:	55 1f       	adc	r21, r21
    2e28:	22 0f       	add	r18, r18
    2e2a:	33 1f       	adc	r19, r19
    2e2c:	44 1f       	adc	r20, r20
    2e2e:	55 1f       	adc	r21, r21
    2e30:	bc 01       	movw	r22, r24
    2e32:	cd 01       	movw	r24, r26
    2e34:	0e 94 a3 22 	call	0x4546	; 0x4546 <__udivmodsi4>
    2e38:	21 50       	subi	r18, 0x01	; 1
    2e3a:	31 09       	sbc	r19, r1
    2e3c:	3d 83       	std	Y+5, r19	; 0x05
    2e3e:	2c 83       	std	Y+4, r18	; 0x04
    2e40:	df 91       	pop	r29
    2e42:	cf 91       	pop	r28
    2e44:	0f 91       	pop	r16
    2e46:	08 95       	ret

00002e48 <SendChar>:
Then send the character.
Parameter :
	Tegn : Character for sending. 
*************************************************************************/
void SendChar(unsigned int UART_adr, char Tegn)
{
    2e48:	fc 01       	movw	r30, r24
  // Wait for transmitter register empty (ready for new character)
  while ( (UCSRnA & (1<<5)) == 0 )
    2e4a:	90 81       	ld	r25, Z
    2e4c:	95 ff       	sbrs	r25, 5
    2e4e:	fd cf       	rjmp	.-6      	; 0x2e4a <SendChar+0x2>
  {}
  // Then send the character
  UDRn = Tegn;
    2e50:	66 83       	std	Z+6, r22	; 0x06
    2e52:	08 95       	ret

00002e54 <SendString>:
Sends 0 terminated string.
Parameter:
   Streng: Pointer to the string. 
*************************************************************************/
void SendString(unsigned int UART_adr, char* Streng)
{
    2e54:	0f 93       	push	r16
    2e56:	1f 93       	push	r17
    2e58:	cf 93       	push	r28
    2e5a:	df 93       	push	r29
    2e5c:	eb 01       	movw	r28, r22
  // Repeat until zero-termination
  while (*Streng != 0)
    2e5e:	68 81       	ld	r22, Y
    2e60:	66 23       	and	r22, r22
    2e62:	39 f0       	breq	.+14     	; 0x2e72 <SendString+0x1e>
    2e64:	8c 01       	movw	r16, r24
    2e66:	21 96       	adiw	r28, 0x01	; 1
  {
    // Send the character pointed to by "Streng"
    SendChar(UART_adr, *Streng);
    2e68:	c8 01       	movw	r24, r16
    2e6a:	ee df       	rcall	.-36     	; 0x2e48 <SendChar>
   Streng: Pointer to the string. 
*************************************************************************/
void SendString(unsigned int UART_adr, char* Streng)
{
  // Repeat until zero-termination
  while (*Streng != 0)
    2e6c:	69 91       	ld	r22, Y+
    2e6e:	61 11       	cpse	r22, r1
    2e70:	fb cf       	rjmp	.-10     	; 0x2e68 <SendString+0x14>
    // Send the character pointed to by "Streng"
    SendChar(UART_adr, *Streng);
    // Advance the pointer one step
    Streng++;
  }
}
    2e72:	df 91       	pop	r29
    2e74:	cf 91       	pop	r28
    2e76:	1f 91       	pop	r17
    2e78:	0f 91       	pop	r16
    2e7a:	08 95       	ret

00002e7c <WriteCommand>:

		     WritePixel(R_back,G_back,B_back);
	     }

	     CS_PORT |= ~(1 << CS_BIT);
}
    2e7c:	88 b9       	out	0x08, r24	; 8
    2e7e:	5f 98       	cbi	0x0b, 7	; 11
    2e80:	a1 98       	cbi	0x14, 1	; 20
    2e82:	a2 98       	cbi	0x14, 2	; 20
    2e84:	00 00       	nop
    2e86:	a2 9a       	sbi	0x14, 2	; 20
    2e88:	00 00       	nop
    2e8a:	08 95       	ret

00002e8c <WriteData>:
    2e8c:	92 b9       	out	0x02, r25	; 2
    2e8e:	88 b9       	out	0x08, r24	; 8
    2e90:	5f 9a       	sbi	0x0b, 7	; 11
    2e92:	a1 98       	cbi	0x14, 1	; 20
    2e94:	a2 98       	cbi	0x14, 2	; 20
    2e96:	00 00       	nop
    2e98:	a2 9a       	sbi	0x14, 2	; 20
    2e9a:	00 00       	nop
    2e9c:	08 95       	ret

00002e9e <DisplayOn>:
    2e9e:	89 e2       	ldi	r24, 0x29	; 41
    2ea0:	ed cf       	rjmp	.-38     	; 0x2e7c <WriteCommand>
    2ea2:	08 95       	ret

00002ea4 <SleepOut>:
    2ea4:	81 e1       	ldi	r24, 0x11	; 17
    2ea6:	ea cf       	rjmp	.-44     	; 0x2e7c <WriteCommand>
    2ea8:	08 95       	ret

00002eaa <MemoryAccessControl>:
    2eaa:	cf 93       	push	r28
    2eac:	c8 2f       	mov	r28, r24
    2eae:	86 e3       	ldi	r24, 0x36	; 54
    2eb0:	e5 df       	rcall	.-54     	; 0x2e7c <WriteCommand>
    2eb2:	8c 2f       	mov	r24, r28
    2eb4:	90 e0       	ldi	r25, 0x00	; 0
    2eb6:	ea df       	rcall	.-44     	; 0x2e8c <WriteData>
    2eb8:	cf 91       	pop	r28
    2eba:	08 95       	ret

00002ebc <InterfacePixelFormat>:
    2ebc:	cf 93       	push	r28
    2ebe:	c8 2f       	mov	r28, r24
    2ec0:	8a e3       	ldi	r24, 0x3A	; 58
    2ec2:	dc df       	rcall	.-72     	; 0x2e7c <WriteCommand>
    2ec4:	8c 2f       	mov	r24, r28
    2ec6:	90 e0       	ldi	r25, 0x00	; 0
    2ec8:	e1 df       	rcall	.-62     	; 0x2e8c <WriteData>
    2eca:	cf 91       	pop	r28
    2ecc:	08 95       	ret

00002ece <DisplayInit>:
    2ece:	83 b3       	in	r24, 0x13	; 19
    2ed0:	87 60       	ori	r24, 0x07	; 7
    2ed2:	83 bb       	out	0x13, r24	; 19
    2ed4:	57 9a       	sbi	0x0a, 7	; 10
    2ed6:	8f ef       	ldi	r24, 0xFF	; 255
    2ed8:	81 b9       	out	0x01, r24	; 1
    2eda:	87 b9       	out	0x07, r24	; 7
    2edc:	84 b3       	in	r24, 0x14	; 20
    2ede:	87 60       	ori	r24, 0x07	; 7
    2ee0:	84 bb       	out	0x14, r24	; 20
    2ee2:	5f 9a       	sbi	0x0b, 7	; 11
    2ee4:	a0 98       	cbi	0x14, 0	; 20
    2ee6:	2f ef       	ldi	r18, 0xFF	; 255
    2ee8:	89 e6       	ldi	r24, 0x69	; 105
    2eea:	98 e1       	ldi	r25, 0x18	; 24
    2eec:	21 50       	subi	r18, 0x01	; 1
    2eee:	80 40       	sbci	r24, 0x00	; 0
    2ef0:	90 40       	sbci	r25, 0x00	; 0
    2ef2:	e1 f7       	brne	.-8      	; 0x2eec <DisplayInit+0x1e>
    2ef4:	00 c0       	rjmp	.+0      	; 0x2ef6 <DisplayInit+0x28>
    2ef6:	00 00       	nop
    2ef8:	a0 9a       	sbi	0x14, 0	; 20
    2efa:	2f ef       	ldi	r18, 0xFF	; 255
    2efc:	88 e5       	ldi	r24, 0x58	; 88
    2efe:	96 e0       	ldi	r25, 0x06	; 6
    2f00:	21 50       	subi	r18, 0x01	; 1
    2f02:	80 40       	sbci	r24, 0x00	; 0
    2f04:	90 40       	sbci	r25, 0x00	; 0
    2f06:	e1 f7       	brne	.-8      	; 0x2f00 <DisplayInit+0x32>
    2f08:	00 c0       	rjmp	.+0      	; 0x2f0a <DisplayInit+0x3c>
    2f0a:	00 00       	nop
    2f0c:	cb df       	rcall	.-106    	; 0x2ea4 <SleepOut>
    2f0e:	c7 df       	rcall	.-114    	; 0x2e9e <DisplayOn>
    2f10:	88 e0       	ldi	r24, 0x08	; 8
    2f12:	cb df       	rcall	.-106    	; 0x2eaa <MemoryAccessControl>
    2f14:	85 e0       	ldi	r24, 0x05	; 5
    2f16:	d2 cf       	rjmp	.-92     	; 0x2ebc <InterfacePixelFormat>
    2f18:	08 95       	ret

00002f1a <SetColumnAddress>:
    2f1a:	0f 93       	push	r16
    2f1c:	1f 93       	push	r17
    2f1e:	cf 93       	push	r28
    2f20:	df 93       	push	r29
    2f22:	08 2f       	mov	r16, r24
    2f24:	d9 2f       	mov	r29, r25
    2f26:	16 2f       	mov	r17, r22
    2f28:	c7 2f       	mov	r28, r23
    2f2a:	8a e2       	ldi	r24, 0x2A	; 42
    2f2c:	a7 df       	rcall	.-178    	; 0x2e7c <WriteCommand>
    2f2e:	8d 2f       	mov	r24, r29
    2f30:	90 e0       	ldi	r25, 0x00	; 0
    2f32:	ac df       	rcall	.-168    	; 0x2e8c <WriteData>
    2f34:	80 2f       	mov	r24, r16
    2f36:	9d 2f       	mov	r25, r29
    2f38:	a9 df       	rcall	.-174    	; 0x2e8c <WriteData>
    2f3a:	8c 2f       	mov	r24, r28
    2f3c:	90 e0       	ldi	r25, 0x00	; 0
    2f3e:	a6 df       	rcall	.-180    	; 0x2e8c <WriteData>
    2f40:	81 2f       	mov	r24, r17
    2f42:	9c 2f       	mov	r25, r28
    2f44:	a3 df       	rcall	.-186    	; 0x2e8c <WriteData>
    2f46:	df 91       	pop	r29
    2f48:	cf 91       	pop	r28
    2f4a:	1f 91       	pop	r17
    2f4c:	0f 91       	pop	r16
    2f4e:	08 95       	ret

00002f50 <SetPageAddress>:
    2f50:	0f 93       	push	r16
    2f52:	1f 93       	push	r17
    2f54:	cf 93       	push	r28
    2f56:	df 93       	push	r29
    2f58:	08 2f       	mov	r16, r24
    2f5a:	d9 2f       	mov	r29, r25
    2f5c:	16 2f       	mov	r17, r22
    2f5e:	c7 2f       	mov	r28, r23
    2f60:	8b e2       	ldi	r24, 0x2B	; 43
    2f62:	8c df       	rcall	.-232    	; 0x2e7c <WriteCommand>
    2f64:	8d 2f       	mov	r24, r29
    2f66:	90 e0       	ldi	r25, 0x00	; 0
    2f68:	91 df       	rcall	.-222    	; 0x2e8c <WriteData>
    2f6a:	80 2f       	mov	r24, r16
    2f6c:	9d 2f       	mov	r25, r29
    2f6e:	8e df       	rcall	.-228    	; 0x2e8c <WriteData>
    2f70:	8c 2f       	mov	r24, r28
    2f72:	90 e0       	ldi	r25, 0x00	; 0
    2f74:	8b df       	rcall	.-234    	; 0x2e8c <WriteData>
    2f76:	81 2f       	mov	r24, r17
    2f78:	9c 2f       	mov	r25, r28
    2f7a:	88 df       	rcall	.-240    	; 0x2e8c <WriteData>
    2f7c:	df 91       	pop	r29
    2f7e:	cf 91       	pop	r28
    2f80:	1f 91       	pop	r17
    2f82:	0f 91       	pop	r16
    2f84:	08 95       	ret

00002f86 <setDisplayNumberFont>:
    2f86:	cf 93       	push	r28
    2f88:	df 93       	push	r29
    2f8a:	eb 01       	movw	r28, r22
    2f8c:	bc 01       	movw	r22, r24
    2f8e:	69 5e       	subi	r22, 0xE9	; 233
    2f90:	7f 4f       	sbci	r23, 0xFF	; 255
    2f92:	c3 df       	rcall	.-122    	; 0x2f1a <SetColumnAddress>
    2f94:	be 01       	movw	r22, r28
    2f96:	65 5e       	subi	r22, 0xE5	; 229
    2f98:	7f 4f       	sbci	r23, 0xFF	; 255
    2f9a:	ce 01       	movw	r24, r28
    2f9c:	d9 df       	rcall	.-78     	; 0x2f50 <SetPageAddress>
    2f9e:	8c e2       	ldi	r24, 0x2C	; 44
    2fa0:	6d df       	rcall	.-294    	; 0x2e7c <WriteCommand>
    2fa2:	df 91       	pop	r29
    2fa4:	cf 91       	pop	r28
    2fa6:	08 95       	ret

00002fa8 <ClearScreen>:
    2fa8:	cf 92       	push	r12
    2faa:	df 92       	push	r13
    2fac:	ef 92       	push	r14
    2fae:	ff 92       	push	r15
    2fb0:	cf 93       	push	r28
    2fb2:	c8 2f       	mov	r28, r24
    2fb4:	90 e0       	ldi	r25, 0x00	; 0
    2fb6:	90 93 a3 0d 	sts	0x0DA3, r25	; 0x800da3 <Background_Colour+0x1>
    2fba:	80 93 a2 0d 	sts	0x0DA2, r24	; 0x800da2 <Background_Colour>
    2fbe:	6f ee       	ldi	r22, 0xEF	; 239
    2fc0:	70 e0       	ldi	r23, 0x00	; 0
    2fc2:	80 e0       	ldi	r24, 0x00	; 0
    2fc4:	90 e0       	ldi	r25, 0x00	; 0
    2fc6:	a9 df       	rcall	.-174    	; 0x2f1a <SetColumnAddress>
    2fc8:	6f e3       	ldi	r22, 0x3F	; 63
    2fca:	71 e0       	ldi	r23, 0x01	; 1
    2fcc:	80 e0       	ldi	r24, 0x00	; 0
    2fce:	90 e0       	ldi	r25, 0x00	; 0
    2fd0:	bf df       	rcall	.-130    	; 0x2f50 <SetPageAddress>
    2fd2:	8c e2       	ldi	r24, 0x2C	; 44
    2fd4:	53 df       	rcall	.-346    	; 0x2e7c <WriteCommand>
    2fd6:	8c 2f       	mov	r24, r28
    2fd8:	90 e0       	ldi	r25, 0x00	; 0
    2fda:	80 31       	cpi	r24, 0x10	; 16
    2fdc:	91 05       	cpc	r25, r1
    2fde:	08 f0       	brcs	.+2      	; 0x2fe2 <ClearScreen+0x3a>
    2fe0:	b6 c1       	rjmp	.+876    	; 0x334e <ClearScreen+0x3a6>
    2fe2:	fc 01       	movw	r30, r24
    2fe4:	88 27       	eor	r24, r24
    2fe6:	ee 58       	subi	r30, 0x8E	; 142
    2fe8:	ff 4f       	sbci	r31, 0xFF	; 255
    2fea:	8f 4f       	sbci	r24, 0xFF	; 255
    2fec:	0c 94 c5 22 	jmp	0x458a	; 0x458a <__tablejump2__>
    2ff0:	c1 2c       	mov	r12, r1
    2ff2:	d1 2c       	mov	r13, r1
    2ff4:	76 01       	movw	r14, r12
    2ff6:	c3 94       	inc	r12
    2ff8:	80 e0       	ldi	r24, 0x00	; 0
    2ffa:	90 e0       	ldi	r25, 0x00	; 0
    2ffc:	47 df       	rcall	.-370    	; 0x2e8c <WriteData>
    2ffe:	c0 92 7b 0d 	sts	0x0D7B, r12	; 0x800d7b <i.1862>
    3002:	d0 92 7c 0d 	sts	0x0D7C, r13	; 0x800d7c <i.1862+0x1>
    3006:	e0 92 7d 0d 	sts	0x0D7D, r14	; 0x800d7d <i.1862+0x2>
    300a:	f0 92 7e 0d 	sts	0x0D7E, r15	; 0x800d7e <i.1862+0x3>
    300e:	8f ef       	ldi	r24, 0xFF	; 255
    3010:	c8 1a       	sub	r12, r24
    3012:	d8 0a       	sbc	r13, r24
    3014:	e8 0a       	sbc	r14, r24
    3016:	f8 0a       	sbc	r15, r24
    3018:	81 e0       	ldi	r24, 0x01	; 1
    301a:	c8 16       	cp	r12, r24
    301c:	8c e2       	ldi	r24, 0x2C	; 44
    301e:	d8 06       	cpc	r13, r24
    3020:	81 e0       	ldi	r24, 0x01	; 1
    3022:	e8 06       	cpc	r14, r24
    3024:	f1 04       	cpc	r15, r1
    3026:	41 f7       	brne	.-48     	; 0x2ff8 <ClearScreen+0x50>
    3028:	ae c1       	rjmp	.+860    	; 0x3386 <ClearScreen+0x3de>
    302a:	c1 2c       	mov	r12, r1
    302c:	d1 2c       	mov	r13, r1
    302e:	76 01       	movw	r14, r12
    3030:	c3 94       	inc	r12
    3032:	80 e0       	ldi	r24, 0x00	; 0
    3034:	98 ef       	ldi	r25, 0xF8	; 248
    3036:	2a df       	rcall	.-428    	; 0x2e8c <WriteData>
    3038:	c0 92 7b 0d 	sts	0x0D7B, r12	; 0x800d7b <i.1862>
    303c:	d0 92 7c 0d 	sts	0x0D7C, r13	; 0x800d7c <i.1862+0x1>
    3040:	e0 92 7d 0d 	sts	0x0D7D, r14	; 0x800d7d <i.1862+0x2>
    3044:	f0 92 7e 0d 	sts	0x0D7E, r15	; 0x800d7e <i.1862+0x3>
    3048:	8f ef       	ldi	r24, 0xFF	; 255
    304a:	c8 1a       	sub	r12, r24
    304c:	d8 0a       	sbc	r13, r24
    304e:	e8 0a       	sbc	r14, r24
    3050:	f8 0a       	sbc	r15, r24
    3052:	81 e0       	ldi	r24, 0x01	; 1
    3054:	c8 16       	cp	r12, r24
    3056:	8c e2       	ldi	r24, 0x2C	; 44
    3058:	d8 06       	cpc	r13, r24
    305a:	81 e0       	ldi	r24, 0x01	; 1
    305c:	e8 06       	cpc	r14, r24
    305e:	f1 04       	cpc	r15, r1
    3060:	41 f7       	brne	.-48     	; 0x3032 <ClearScreen+0x8a>
    3062:	91 c1       	rjmp	.+802    	; 0x3386 <ClearScreen+0x3de>
    3064:	c1 2c       	mov	r12, r1
    3066:	d1 2c       	mov	r13, r1
    3068:	76 01       	movw	r14, r12
    306a:	c3 94       	inc	r12
    306c:	80 e6       	ldi	r24, 0x60	; 96
    306e:	9b ef       	ldi	r25, 0xFB	; 251
    3070:	0d df       	rcall	.-486    	; 0x2e8c <WriteData>
    3072:	c0 92 7b 0d 	sts	0x0D7B, r12	; 0x800d7b <i.1862>
    3076:	d0 92 7c 0d 	sts	0x0D7C, r13	; 0x800d7c <i.1862+0x1>
    307a:	e0 92 7d 0d 	sts	0x0D7D, r14	; 0x800d7d <i.1862+0x2>
    307e:	f0 92 7e 0d 	sts	0x0D7E, r15	; 0x800d7e <i.1862+0x3>
    3082:	8f ef       	ldi	r24, 0xFF	; 255
    3084:	c8 1a       	sub	r12, r24
    3086:	d8 0a       	sbc	r13, r24
    3088:	e8 0a       	sbc	r14, r24
    308a:	f8 0a       	sbc	r15, r24
    308c:	81 e0       	ldi	r24, 0x01	; 1
    308e:	c8 16       	cp	r12, r24
    3090:	8c e2       	ldi	r24, 0x2C	; 44
    3092:	d8 06       	cpc	r13, r24
    3094:	81 e0       	ldi	r24, 0x01	; 1
    3096:	e8 06       	cpc	r14, r24
    3098:	f1 04       	cpc	r15, r1
    309a:	41 f7       	brne	.-48     	; 0x306c <ClearScreen+0xc4>
    309c:	74 c1       	rjmp	.+744    	; 0x3386 <ClearScreen+0x3de>
    309e:	c1 2c       	mov	r12, r1
    30a0:	d1 2c       	mov	r13, r1
    30a2:	76 01       	movw	r14, r12
    30a4:	c3 94       	inc	r12
    30a6:	80 ee       	ldi	r24, 0xE0	; 224
    30a8:	9f ef       	ldi	r25, 0xFF	; 255
    30aa:	f0 de       	rcall	.-544    	; 0x2e8c <WriteData>
    30ac:	c0 92 7b 0d 	sts	0x0D7B, r12	; 0x800d7b <i.1862>
    30b0:	d0 92 7c 0d 	sts	0x0D7C, r13	; 0x800d7c <i.1862+0x1>
    30b4:	e0 92 7d 0d 	sts	0x0D7D, r14	; 0x800d7d <i.1862+0x2>
    30b8:	f0 92 7e 0d 	sts	0x0D7E, r15	; 0x800d7e <i.1862+0x3>
    30bc:	8f ef       	ldi	r24, 0xFF	; 255
    30be:	c8 1a       	sub	r12, r24
    30c0:	d8 0a       	sbc	r13, r24
    30c2:	e8 0a       	sbc	r14, r24
    30c4:	f8 0a       	sbc	r15, r24
    30c6:	81 e0       	ldi	r24, 0x01	; 1
    30c8:	c8 16       	cp	r12, r24
    30ca:	8c e2       	ldi	r24, 0x2C	; 44
    30cc:	d8 06       	cpc	r13, r24
    30ce:	81 e0       	ldi	r24, 0x01	; 1
    30d0:	e8 06       	cpc	r14, r24
    30d2:	f1 04       	cpc	r15, r1
    30d4:	41 f7       	brne	.-48     	; 0x30a6 <ClearScreen+0xfe>
    30d6:	57 c1       	rjmp	.+686    	; 0x3386 <ClearScreen+0x3de>
    30d8:	c1 2c       	mov	r12, r1
    30da:	d1 2c       	mov	r13, r1
    30dc:	76 01       	movw	r14, r12
    30de:	80 ee       	ldi	r24, 0xE0	; 224
    30e0:	9f e1       	ldi	r25, 0x1F	; 31
    30e2:	d4 de       	rcall	.-600    	; 0x2e8c <WriteData>
    30e4:	8f ef       	ldi	r24, 0xFF	; 255
    30e6:	c8 1a       	sub	r12, r24
    30e8:	d8 0a       	sbc	r13, r24
    30ea:	e8 0a       	sbc	r14, r24
    30ec:	f8 0a       	sbc	r15, r24
    30ee:	c0 92 7b 0d 	sts	0x0D7B, r12	; 0x800d7b <i.1862>
    30f2:	d0 92 7c 0d 	sts	0x0D7C, r13	; 0x800d7c <i.1862+0x1>
    30f6:	e0 92 7d 0d 	sts	0x0D7D, r14	; 0x800d7d <i.1862+0x2>
    30fa:	f0 92 7e 0d 	sts	0x0D7E, r15	; 0x800d7e <i.1862+0x3>
    30fe:	c1 14       	cp	r12, r1
    3100:	8c e2       	ldi	r24, 0x2C	; 44
    3102:	d8 06       	cpc	r13, r24
    3104:	81 e0       	ldi	r24, 0x01	; 1
    3106:	e8 06       	cpc	r14, r24
    3108:	f1 04       	cpc	r15, r1
    310a:	49 f7       	brne	.-46     	; 0x30de <ClearScreen+0x136>
    310c:	3c c1       	rjmp	.+632    	; 0x3386 <ClearScreen+0x3de>
    310e:	c1 2c       	mov	r12, r1
    3110:	d1 2c       	mov	r13, r1
    3112:	76 01       	movw	r14, r12
    3114:	c3 94       	inc	r12
    3116:	8f ef       	ldi	r24, 0xFF	; 255
    3118:	90 e0       	ldi	r25, 0x00	; 0
    311a:	b8 de       	rcall	.-656    	; 0x2e8c <WriteData>
    311c:	c0 92 7b 0d 	sts	0x0D7B, r12	; 0x800d7b <i.1862>
    3120:	d0 92 7c 0d 	sts	0x0D7C, r13	; 0x800d7c <i.1862+0x1>
    3124:	e0 92 7d 0d 	sts	0x0D7D, r14	; 0x800d7d <i.1862+0x2>
    3128:	f0 92 7e 0d 	sts	0x0D7E, r15	; 0x800d7e <i.1862+0x3>
    312c:	8f ef       	ldi	r24, 0xFF	; 255
    312e:	c8 1a       	sub	r12, r24
    3130:	d8 0a       	sbc	r13, r24
    3132:	e8 0a       	sbc	r14, r24
    3134:	f8 0a       	sbc	r15, r24
    3136:	81 e0       	ldi	r24, 0x01	; 1
    3138:	c8 16       	cp	r12, r24
    313a:	8c e2       	ldi	r24, 0x2C	; 44
    313c:	d8 06       	cpc	r13, r24
    313e:	81 e0       	ldi	r24, 0x01	; 1
    3140:	e8 06       	cpc	r14, r24
    3142:	f1 04       	cpc	r15, r1
    3144:	41 f7       	brne	.-48     	; 0x3116 <ClearScreen+0x16e>
    3146:	1f c1       	rjmp	.+574    	; 0x3386 <ClearScreen+0x3de>
    3148:	c1 2c       	mov	r12, r1
    314a:	d1 2c       	mov	r13, r1
    314c:	76 01       	movw	r14, r12
    314e:	c3 94       	inc	r12
    3150:	8f ef       	ldi	r24, 0xFF	; 255
    3152:	90 e2       	ldi	r25, 0x20	; 32
    3154:	9b de       	rcall	.-714    	; 0x2e8c <WriteData>
    3156:	c0 92 7b 0d 	sts	0x0D7B, r12	; 0x800d7b <i.1862>
    315a:	d0 92 7c 0d 	sts	0x0D7C, r13	; 0x800d7c <i.1862+0x1>
    315e:	e0 92 7d 0d 	sts	0x0D7D, r14	; 0x800d7d <i.1862+0x2>
    3162:	f0 92 7e 0d 	sts	0x0D7E, r15	; 0x800d7e <i.1862+0x3>
    3166:	8f ef       	ldi	r24, 0xFF	; 255
    3168:	c8 1a       	sub	r12, r24
    316a:	d8 0a       	sbc	r13, r24
    316c:	e8 0a       	sbc	r14, r24
    316e:	f8 0a       	sbc	r15, r24
    3170:	81 e0       	ldi	r24, 0x01	; 1
    3172:	c8 16       	cp	r12, r24
    3174:	8c e2       	ldi	r24, 0x2C	; 44
    3176:	d8 06       	cpc	r13, r24
    3178:	81 e0       	ldi	r24, 0x01	; 1
    317a:	e8 06       	cpc	r14, r24
    317c:	f1 04       	cpc	r15, r1
    317e:	41 f7       	brne	.-48     	; 0x3150 <ClearScreen+0x1a8>
    3180:	02 c1       	rjmp	.+516    	; 0x3386 <ClearScreen+0x3de>
    3182:	c1 2c       	mov	r12, r1
    3184:	d1 2c       	mov	r13, r1
    3186:	76 01       	movw	r14, r12
    3188:	c3 94       	inc	r12
    318a:	80 e8       	ldi	r24, 0x80	; 128
    318c:	90 e1       	ldi	r25, 0x10	; 16
    318e:	7e de       	rcall	.-772    	; 0x2e8c <WriteData>
    3190:	c0 92 7b 0d 	sts	0x0D7B, r12	; 0x800d7b <i.1862>
    3194:	d0 92 7c 0d 	sts	0x0D7C, r13	; 0x800d7c <i.1862+0x1>
    3198:	e0 92 7d 0d 	sts	0x0D7D, r14	; 0x800d7d <i.1862+0x2>
    319c:	f0 92 7e 0d 	sts	0x0D7E, r15	; 0x800d7e <i.1862+0x3>
    31a0:	8f ef       	ldi	r24, 0xFF	; 255
    31a2:	c8 1a       	sub	r12, r24
    31a4:	d8 0a       	sbc	r13, r24
    31a6:	e8 0a       	sbc	r14, r24
    31a8:	f8 0a       	sbc	r15, r24
    31aa:	81 e0       	ldi	r24, 0x01	; 1
    31ac:	c8 16       	cp	r12, r24
    31ae:	8c e2       	ldi	r24, 0x2C	; 44
    31b0:	d8 06       	cpc	r13, r24
    31b2:	81 e0       	ldi	r24, 0x01	; 1
    31b4:	e8 06       	cpc	r14, r24
    31b6:	f1 04       	cpc	r15, r1
    31b8:	41 f7       	brne	.-48     	; 0x318a <ClearScreen+0x1e2>
    31ba:	e5 c0       	rjmp	.+458    	; 0x3386 <ClearScreen+0x3de>
    31bc:	c1 2c       	mov	r12, r1
    31be:	d1 2c       	mov	r13, r1
    31c0:	76 01       	movw	r14, r12
    31c2:	c3 94       	inc	r12
    31c4:	8f ef       	ldi	r24, 0xFF	; 255
    31c6:	9f ef       	ldi	r25, 0xFF	; 255
    31c8:	61 de       	rcall	.-830    	; 0x2e8c <WriteData>
    31ca:	c0 92 7b 0d 	sts	0x0D7B, r12	; 0x800d7b <i.1862>
    31ce:	d0 92 7c 0d 	sts	0x0D7C, r13	; 0x800d7c <i.1862+0x1>
    31d2:	e0 92 7d 0d 	sts	0x0D7D, r14	; 0x800d7d <i.1862+0x2>
    31d6:	f0 92 7e 0d 	sts	0x0D7E, r15	; 0x800d7e <i.1862+0x3>
    31da:	8f ef       	ldi	r24, 0xFF	; 255
    31dc:	c8 1a       	sub	r12, r24
    31de:	d8 0a       	sbc	r13, r24
    31e0:	e8 0a       	sbc	r14, r24
    31e2:	f8 0a       	sbc	r15, r24
    31e4:	81 e0       	ldi	r24, 0x01	; 1
    31e6:	c8 16       	cp	r12, r24
    31e8:	8c e2       	ldi	r24, 0x2C	; 44
    31ea:	d8 06       	cpc	r13, r24
    31ec:	81 e0       	ldi	r24, 0x01	; 1
    31ee:	e8 06       	cpc	r14, r24
    31f0:	f1 04       	cpc	r15, r1
    31f2:	41 f7       	brne	.-48     	; 0x31c4 <ClearScreen+0x21c>
    31f4:	c8 c0       	rjmp	.+400    	; 0x3386 <ClearScreen+0x3de>
    31f6:	c1 2c       	mov	r12, r1
    31f8:	d1 2c       	mov	r13, r1
    31fa:	76 01       	movw	r14, r12
    31fc:	c3 94       	inc	r12
    31fe:	8f ef       	ldi	r24, 0xFF	; 255
    3200:	98 ef       	ldi	r25, 0xF8	; 248
    3202:	44 de       	rcall	.-888    	; 0x2e8c <WriteData>
    3204:	c0 92 7b 0d 	sts	0x0D7B, r12	; 0x800d7b <i.1862>
    3208:	d0 92 7c 0d 	sts	0x0D7C, r13	; 0x800d7c <i.1862+0x1>
    320c:	e0 92 7d 0d 	sts	0x0D7D, r14	; 0x800d7d <i.1862+0x2>
    3210:	f0 92 7e 0d 	sts	0x0D7E, r15	; 0x800d7e <i.1862+0x3>
    3214:	8f ef       	ldi	r24, 0xFF	; 255
    3216:	c8 1a       	sub	r12, r24
    3218:	d8 0a       	sbc	r13, r24
    321a:	e8 0a       	sbc	r14, r24
    321c:	f8 0a       	sbc	r15, r24
    321e:	81 e0       	ldi	r24, 0x01	; 1
    3220:	c8 16       	cp	r12, r24
    3222:	8c e2       	ldi	r24, 0x2C	; 44
    3224:	d8 06       	cpc	r13, r24
    3226:	81 e0       	ldi	r24, 0x01	; 1
    3228:	e8 06       	cpc	r14, r24
    322a:	f1 04       	cpc	r15, r1
    322c:	41 f7       	brne	.-48     	; 0x31fe <ClearScreen+0x256>
    322e:	ab c0       	rjmp	.+342    	; 0x3386 <ClearScreen+0x3de>
    3230:	c1 2c       	mov	r12, r1
    3232:	d1 2c       	mov	r13, r1
    3234:	76 01       	movw	r14, r12
    3236:	c3 94       	inc	r12
    3238:	80 ee       	ldi	r24, 0xE0	; 224
    323a:	9f e7       	ldi	r25, 0x7F	; 127
    323c:	27 de       	rcall	.-946    	; 0x2e8c <WriteData>
    323e:	c0 92 7b 0d 	sts	0x0D7B, r12	; 0x800d7b <i.1862>
    3242:	d0 92 7c 0d 	sts	0x0D7C, r13	; 0x800d7c <i.1862+0x1>
    3246:	e0 92 7d 0d 	sts	0x0D7D, r14	; 0x800d7d <i.1862+0x2>
    324a:	f0 92 7e 0d 	sts	0x0D7E, r15	; 0x800d7e <i.1862+0x3>
    324e:	8f ef       	ldi	r24, 0xFF	; 255
    3250:	c8 1a       	sub	r12, r24
    3252:	d8 0a       	sbc	r13, r24
    3254:	e8 0a       	sbc	r14, r24
    3256:	f8 0a       	sbc	r15, r24
    3258:	81 e0       	ldi	r24, 0x01	; 1
    325a:	c8 16       	cp	r12, r24
    325c:	8c e2       	ldi	r24, 0x2C	; 44
    325e:	d8 06       	cpc	r13, r24
    3260:	81 e0       	ldi	r24, 0x01	; 1
    3262:	e8 06       	cpc	r14, r24
    3264:	f1 04       	cpc	r15, r1
    3266:	41 f7       	brne	.-48     	; 0x3238 <ClearScreen+0x290>
    3268:	8e c0       	rjmp	.+284    	; 0x3386 <ClearScreen+0x3de>
    326a:	c1 2c       	mov	r12, r1
    326c:	d1 2c       	mov	r13, r1
    326e:	76 01       	movw	r14, r12
    3270:	c3 94       	inc	r12
    3272:	8e ec       	ldi	r24, 0xCE	; 206
    3274:	9f e7       	ldi	r25, 0x7F	; 127
    3276:	0a de       	rcall	.-1004   	; 0x2e8c <WriteData>
    3278:	c0 92 7b 0d 	sts	0x0D7B, r12	; 0x800d7b <i.1862>
    327c:	d0 92 7c 0d 	sts	0x0D7C, r13	; 0x800d7c <i.1862+0x1>
    3280:	e0 92 7d 0d 	sts	0x0D7D, r14	; 0x800d7d <i.1862+0x2>
    3284:	f0 92 7e 0d 	sts	0x0D7E, r15	; 0x800d7e <i.1862+0x3>
    3288:	8f ef       	ldi	r24, 0xFF	; 255
    328a:	c8 1a       	sub	r12, r24
    328c:	d8 0a       	sbc	r13, r24
    328e:	e8 0a       	sbc	r14, r24
    3290:	f8 0a       	sbc	r15, r24
    3292:	81 e0       	ldi	r24, 0x01	; 1
    3294:	c8 16       	cp	r12, r24
    3296:	8c e2       	ldi	r24, 0x2C	; 44
    3298:	d8 06       	cpc	r13, r24
    329a:	81 e0       	ldi	r24, 0x01	; 1
    329c:	e8 06       	cpc	r14, r24
    329e:	f1 04       	cpc	r15, r1
    32a0:	41 f7       	brne	.-48     	; 0x3272 <ClearScreen+0x2ca>
    32a2:	71 c0       	rjmp	.+226    	; 0x3386 <ClearScreen+0x3de>
    32a4:	c1 2c       	mov	r12, r1
    32a6:	d1 2c       	mov	r13, r1
    32a8:	76 01       	movw	r14, r12
    32aa:	c3 94       	inc	r12
    32ac:	8f ef       	ldi	r24, 0xFF	; 255
    32ae:	9f e1       	ldi	r25, 0x1F	; 31
    32b0:	ed dd       	rcall	.-1062   	; 0x2e8c <WriteData>
    32b2:	c0 92 7b 0d 	sts	0x0D7B, r12	; 0x800d7b <i.1862>
    32b6:	d0 92 7c 0d 	sts	0x0D7C, r13	; 0x800d7c <i.1862+0x1>
    32ba:	e0 92 7d 0d 	sts	0x0D7D, r14	; 0x800d7d <i.1862+0x2>
    32be:	f0 92 7e 0d 	sts	0x0D7E, r15	; 0x800d7e <i.1862+0x3>
    32c2:	8f ef       	ldi	r24, 0xFF	; 255
    32c4:	c8 1a       	sub	r12, r24
    32c6:	d8 0a       	sbc	r13, r24
    32c8:	e8 0a       	sbc	r14, r24
    32ca:	f8 0a       	sbc	r15, r24
    32cc:	81 e0       	ldi	r24, 0x01	; 1
    32ce:	c8 16       	cp	r12, r24
    32d0:	8c e2       	ldi	r24, 0x2C	; 44
    32d2:	d8 06       	cpc	r13, r24
    32d4:	81 e0       	ldi	r24, 0x01	; 1
    32d6:	e8 06       	cpc	r14, r24
    32d8:	f1 04       	cpc	r15, r1
    32da:	41 f7       	brne	.-48     	; 0x32ac <ClearScreen+0x304>
    32dc:	54 c0       	rjmp	.+168    	; 0x3386 <ClearScreen+0x3de>
    32de:	c1 2c       	mov	r12, r1
    32e0:	d1 2c       	mov	r13, r1
    32e2:	76 01       	movw	r14, r12
    32e4:	85 ef       	ldi	r24, 0xF5	; 245
    32e6:	9e ef       	ldi	r25, 0xFE	; 254
    32e8:	d1 dd       	rcall	.-1118   	; 0x2e8c <WriteData>
    32ea:	8f ef       	ldi	r24, 0xFF	; 255
    32ec:	c8 1a       	sub	r12, r24
    32ee:	d8 0a       	sbc	r13, r24
    32f0:	e8 0a       	sbc	r14, r24
    32f2:	f8 0a       	sbc	r15, r24
    32f4:	c0 92 7b 0d 	sts	0x0D7B, r12	; 0x800d7b <i.1862>
    32f8:	d0 92 7c 0d 	sts	0x0D7C, r13	; 0x800d7c <i.1862+0x1>
    32fc:	e0 92 7d 0d 	sts	0x0D7D, r14	; 0x800d7d <i.1862+0x2>
    3300:	f0 92 7e 0d 	sts	0x0D7E, r15	; 0x800d7e <i.1862+0x3>
    3304:	c1 14       	cp	r12, r1
    3306:	8c e2       	ldi	r24, 0x2C	; 44
    3308:	d8 06       	cpc	r13, r24
    330a:	81 e0       	ldi	r24, 0x01	; 1
    330c:	e8 06       	cpc	r14, r24
    330e:	f1 04       	cpc	r15, r1
    3310:	49 f7       	brne	.-46     	; 0x32e4 <ClearScreen+0x33c>
    3312:	39 c0       	rjmp	.+114    	; 0x3386 <ClearScreen+0x3de>
    3314:	c1 2c       	mov	r12, r1
    3316:	d1 2c       	mov	r13, r1
    3318:	76 01       	movw	r14, r12
    331a:	c3 94       	inc	r12
    331c:	87 eb       	ldi	r24, 0xB7	; 183
    331e:	9f e7       	ldi	r25, 0x7F	; 127
    3320:	b5 dd       	rcall	.-1174   	; 0x2e8c <WriteData>
    3322:	c0 92 7b 0d 	sts	0x0D7B, r12	; 0x800d7b <i.1862>
    3326:	d0 92 7c 0d 	sts	0x0D7C, r13	; 0x800d7c <i.1862+0x1>
    332a:	e0 92 7d 0d 	sts	0x0D7D, r14	; 0x800d7d <i.1862+0x2>
    332e:	f0 92 7e 0d 	sts	0x0D7E, r15	; 0x800d7e <i.1862+0x3>
    3332:	8f ef       	ldi	r24, 0xFF	; 255
    3334:	c8 1a       	sub	r12, r24
    3336:	d8 0a       	sbc	r13, r24
    3338:	e8 0a       	sbc	r14, r24
    333a:	f8 0a       	sbc	r15, r24
    333c:	81 e0       	ldi	r24, 0x01	; 1
    333e:	c8 16       	cp	r12, r24
    3340:	8c e2       	ldi	r24, 0x2C	; 44
    3342:	d8 06       	cpc	r13, r24
    3344:	81 e0       	ldi	r24, 0x01	; 1
    3346:	e8 06       	cpc	r14, r24
    3348:	f1 04       	cpc	r15, r1
    334a:	41 f7       	brne	.-48     	; 0x331c <ClearScreen+0x374>
    334c:	1c c0       	rjmp	.+56     	; 0x3386 <ClearScreen+0x3de>
    334e:	c1 2c       	mov	r12, r1
    3350:	d1 2c       	mov	r13, r1
    3352:	76 01       	movw	r14, r12
    3354:	c3 94       	inc	r12
    3356:	8e ec       	ldi	r24, 0xCE	; 206
    3358:	9f e7       	ldi	r25, 0x7F	; 127
    335a:	98 dd       	rcall	.-1232   	; 0x2e8c <WriteData>
    335c:	c0 92 7b 0d 	sts	0x0D7B, r12	; 0x800d7b <i.1862>
    3360:	d0 92 7c 0d 	sts	0x0D7C, r13	; 0x800d7c <i.1862+0x1>
    3364:	e0 92 7d 0d 	sts	0x0D7D, r14	; 0x800d7d <i.1862+0x2>
    3368:	f0 92 7e 0d 	sts	0x0D7E, r15	; 0x800d7e <i.1862+0x3>
    336c:	8f ef       	ldi	r24, 0xFF	; 255
    336e:	c8 1a       	sub	r12, r24
    3370:	d8 0a       	sbc	r13, r24
    3372:	e8 0a       	sbc	r14, r24
    3374:	f8 0a       	sbc	r15, r24
    3376:	81 e0       	ldi	r24, 0x01	; 1
    3378:	c8 16       	cp	r12, r24
    337a:	8c e2       	ldi	r24, 0x2C	; 44
    337c:	d8 06       	cpc	r13, r24
    337e:	81 e0       	ldi	r24, 0x01	; 1
    3380:	e8 06       	cpc	r14, r24
    3382:	f1 04       	cpc	r15, r1
    3384:	41 f7       	brne	.-48     	; 0x3356 <ClearScreen+0x3ae>
    3386:	80 91 a2 0d 	lds	r24, 0x0DA2	; 0x800da2 <Background_Colour>
    338a:	90 91 a3 0d 	lds	r25, 0x0DA3	; 0x800da3 <Background_Colour+0x1>
    338e:	cf 91       	pop	r28
    3390:	ff 90       	pop	r15
    3392:	ef 90       	pop	r14
    3394:	df 90       	pop	r13
    3396:	cf 90       	pop	r12
    3398:	08 95       	ret

0000339a <setpixelColour>:
    339a:	9c 01       	movw	r18, r24
    339c:	80 31       	cpi	r24, 0x10	; 16
    339e:	91 05       	cpc	r25, r1
    33a0:	08 f0       	brcs	.+2      	; 0x33a4 <setpixelColour+0xa>
    33a2:	87 c0       	rjmp	.+270    	; 0x34b2 <setpixelColour+0x118>
    33a4:	fc 01       	movw	r30, r24
    33a6:	88 27       	eor	r24, r24
    33a8:	ee 57       	subi	r30, 0x7E	; 126
    33aa:	ff 4f       	sbci	r31, 0xFF	; 255
    33ac:	8f 4f       	sbci	r24, 0xFF	; 255
    33ae:	0c 94 c5 22 	jmp	0x458a	; 0x458a <__tablejump2__>
    33b2:	10 92 a7 0d 	sts	0x0DA7, r1	; 0x800da7 <R>
    33b6:	10 92 a5 0d 	sts	0x0DA5, r1	; 0x800da5 <G>
    33ba:	10 92 a1 0d 	sts	0x0DA1, r1	; 0x800da1 <B>
    33be:	7f c0       	rjmp	.+254    	; 0x34be <setpixelColour+0x124>
    33c0:	8f ef       	ldi	r24, 0xFF	; 255
    33c2:	80 93 a7 0d 	sts	0x0DA7, r24	; 0x800da7 <R>
    33c6:	10 92 a5 0d 	sts	0x0DA5, r1	; 0x800da5 <G>
    33ca:	10 92 a1 0d 	sts	0x0DA1, r1	; 0x800da1 <B>
    33ce:	77 c0       	rjmp	.+238    	; 0x34be <setpixelColour+0x124>
    33d0:	8f ef       	ldi	r24, 0xFF	; 255
    33d2:	80 93 a7 0d 	sts	0x0DA7, r24	; 0x800da7 <R>
    33d6:	8b e9       	ldi	r24, 0x9B	; 155
    33d8:	80 93 a5 0d 	sts	0x0DA5, r24	; 0x800da5 <G>
    33dc:	10 92 a1 0d 	sts	0x0DA1, r1	; 0x800da1 <B>
    33e0:	6e c0       	rjmp	.+220    	; 0x34be <setpixelColour+0x124>
    33e2:	8f ef       	ldi	r24, 0xFF	; 255
    33e4:	80 93 a7 0d 	sts	0x0DA7, r24	; 0x800da7 <R>
    33e8:	80 93 a5 0d 	sts	0x0DA5, r24	; 0x800da5 <G>
    33ec:	10 92 a1 0d 	sts	0x0DA1, r1	; 0x800da1 <B>
    33f0:	66 c0       	rjmp	.+204    	; 0x34be <setpixelColour+0x124>
    33f2:	10 92 a7 0d 	sts	0x0DA7, r1	; 0x800da7 <R>
    33f6:	8f ef       	ldi	r24, 0xFF	; 255
    33f8:	80 93 a5 0d 	sts	0x0DA5, r24	; 0x800da5 <G>
    33fc:	10 92 a1 0d 	sts	0x0DA1, r1	; 0x800da1 <B>
    3400:	5e c0       	rjmp	.+188    	; 0x34be <setpixelColour+0x124>
    3402:	10 92 a7 0d 	sts	0x0DA7, r1	; 0x800da7 <R>
    3406:	10 92 a5 0d 	sts	0x0DA5, r1	; 0x800da5 <G>
    340a:	8f ef       	ldi	r24, 0xFF	; 255
    340c:	80 93 a1 0d 	sts	0x0DA1, r24	; 0x800da1 <B>
    3410:	56 c0       	rjmp	.+172    	; 0x34be <setpixelColour+0x124>
    3412:	84 ec       	ldi	r24, 0xC4	; 196
    3414:	80 93 a7 0d 	sts	0x0DA7, r24	; 0x800da7 <R>
    3418:	10 92 a5 0d 	sts	0x0DA5, r1	; 0x800da5 <G>
    341c:	8f ef       	ldi	r24, 0xFF	; 255
    341e:	80 93 a1 0d 	sts	0x0DA1, r24	; 0x800da1 <B>
    3422:	4d c0       	rjmp	.+154    	; 0x34be <setpixelColour+0x124>
    3424:	80 e8       	ldi	r24, 0x80	; 128
    3426:	80 93 a7 0d 	sts	0x0DA7, r24	; 0x800da7 <R>
    342a:	80 93 a5 0d 	sts	0x0DA5, r24	; 0x800da5 <G>
    342e:	80 93 a1 0d 	sts	0x0DA1, r24	; 0x800da1 <B>
    3432:	45 c0       	rjmp	.+138    	; 0x34be <setpixelColour+0x124>
    3434:	8f ef       	ldi	r24, 0xFF	; 255
    3436:	80 93 a7 0d 	sts	0x0DA7, r24	; 0x800da7 <R>
    343a:	80 93 a5 0d 	sts	0x0DA5, r24	; 0x800da5 <G>
    343e:	80 93 a1 0d 	sts	0x0DA1, r24	; 0x800da1 <B>
    3442:	3d c0       	rjmp	.+122    	; 0x34be <setpixelColour+0x124>
    3444:	8f ef       	ldi	r24, 0xFF	; 255
    3446:	80 93 a7 0d 	sts	0x0DA7, r24	; 0x800da7 <R>
    344a:	10 92 a5 0d 	sts	0x0DA5, r1	; 0x800da5 <G>
    344e:	80 93 a1 0d 	sts	0x0DA1, r24	; 0x800da1 <B>
    3452:	35 c0       	rjmp	.+106    	; 0x34be <setpixelColour+0x124>
    3454:	8f e6       	ldi	r24, 0x6F	; 111
    3456:	80 93 a7 0d 	sts	0x0DA7, r24	; 0x800da7 <R>
    345a:	8f ef       	ldi	r24, 0xFF	; 255
    345c:	80 93 a5 0d 	sts	0x0DA5, r24	; 0x800da5 <G>
    3460:	10 92 a1 0d 	sts	0x0DA1, r1	; 0x800da1 <B>
    3464:	2c c0       	rjmp	.+88     	; 0x34be <setpixelColour+0x124>
    3466:	8d e8       	ldi	r24, 0x8D	; 141
    3468:	80 93 a7 0d 	sts	0x0DA7, r24	; 0x800da7 <R>
    346c:	8a eb       	ldi	r24, 0xBA	; 186
    346e:	80 93 a5 0d 	sts	0x0DA5, r24	; 0x800da5 <G>
    3472:	8e ec       	ldi	r24, 0xCE	; 206
    3474:	80 93 a1 0d 	sts	0x0DA1, r24	; 0x800da1 <B>
    3478:	22 c0       	rjmp	.+68     	; 0x34be <setpixelColour+0x124>
    347a:	10 92 a7 0d 	sts	0x0DA7, r1	; 0x800da7 <R>
    347e:	8f ef       	ldi	r24, 0xFF	; 255
    3480:	80 93 a5 0d 	sts	0x0DA5, r24	; 0x800da5 <G>
    3484:	80 93 a1 0d 	sts	0x0DA1, r24	; 0x800da1 <B>
    3488:	1a c0       	rjmp	.+52     	; 0x34be <setpixelColour+0x124>
    348a:	8f ef       	ldi	r24, 0xFF	; 255
    348c:	80 93 a7 0d 	sts	0x0DA7, r24	; 0x800da7 <R>
    3490:	80 ef       	ldi	r24, 0xF0	; 240
    3492:	80 93 a5 0d 	sts	0x0DA5, r24	; 0x800da5 <G>
    3496:	85 ef       	ldi	r24, 0xF5	; 245
    3498:	80 93 a1 0d 	sts	0x0DA1, r24	; 0x800da1 <B>
    349c:	10 c0       	rjmp	.+32     	; 0x34be <setpixelColour+0x124>
    349e:	8f ec       	ldi	r24, 0xCF	; 207
    34a0:	80 93 a7 0d 	sts	0x0DA7, r24	; 0x800da7 <R>
    34a4:	89 eb       	ldi	r24, 0xB9	; 185
    34a6:	80 93 a5 0d 	sts	0x0DA5, r24	; 0x800da5 <G>
    34aa:	87 e9       	ldi	r24, 0x97	; 151
    34ac:	80 93 a1 0d 	sts	0x0DA1, r24	; 0x800da1 <B>
    34b0:	06 c0       	rjmp	.+12     	; 0x34be <setpixelColour+0x124>
    34b2:	10 92 a7 0d 	sts	0x0DA7, r1	; 0x800da7 <R>
    34b6:	10 92 a5 0d 	sts	0x0DA5, r1	; 0x800da5 <G>
    34ba:	10 92 a1 0d 	sts	0x0DA1, r1	; 0x800da1 <B>
    34be:	e0 91 a2 0d 	lds	r30, 0x0DA2	; 0x800da2 <Background_Colour>
    34c2:	f0 91 a3 0d 	lds	r31, 0x0DA3	; 0x800da3 <Background_Colour+0x1>
    34c6:	e0 31       	cpi	r30, 0x10	; 16
    34c8:	f1 05       	cpc	r31, r1
    34ca:	08 f0       	brcs	.+2      	; 0x34ce <setpixelColour+0x134>
    34cc:	86 c0       	rjmp	.+268    	; 0x35da <setpixelColour+0x240>
    34ce:	88 27       	eor	r24, r24
    34d0:	ee 56       	subi	r30, 0x6E	; 110
    34d2:	ff 4f       	sbci	r31, 0xFF	; 255
    34d4:	8f 4f       	sbci	r24, 0xFF	; 255
    34d6:	0c 94 c5 22 	jmp	0x458a	; 0x458a <__tablejump2__>
    34da:	10 92 a0 0d 	sts	0x0DA0, r1	; 0x800da0 <R_back>
    34de:	10 92 a8 0d 	sts	0x0DA8, r1	; 0x800da8 <G_back>
    34e2:	10 92 9d 0d 	sts	0x0D9D, r1	; 0x800d9d <B_back>
    34e6:	7f c0       	rjmp	.+254    	; 0x35e6 <setpixelColour+0x24c>
    34e8:	8f ef       	ldi	r24, 0xFF	; 255
    34ea:	80 93 a0 0d 	sts	0x0DA0, r24	; 0x800da0 <R_back>
    34ee:	10 92 a8 0d 	sts	0x0DA8, r1	; 0x800da8 <G_back>
    34f2:	10 92 9d 0d 	sts	0x0D9D, r1	; 0x800d9d <B_back>
    34f6:	77 c0       	rjmp	.+238    	; 0x35e6 <setpixelColour+0x24c>
    34f8:	8f ef       	ldi	r24, 0xFF	; 255
    34fa:	80 93 a0 0d 	sts	0x0DA0, r24	; 0x800da0 <R_back>
    34fe:	8b e9       	ldi	r24, 0x9B	; 155
    3500:	80 93 a8 0d 	sts	0x0DA8, r24	; 0x800da8 <G_back>
    3504:	10 92 9d 0d 	sts	0x0D9D, r1	; 0x800d9d <B_back>
    3508:	6e c0       	rjmp	.+220    	; 0x35e6 <setpixelColour+0x24c>
    350a:	8f ef       	ldi	r24, 0xFF	; 255
    350c:	80 93 a0 0d 	sts	0x0DA0, r24	; 0x800da0 <R_back>
    3510:	80 93 a8 0d 	sts	0x0DA8, r24	; 0x800da8 <G_back>
    3514:	10 92 9d 0d 	sts	0x0D9D, r1	; 0x800d9d <B_back>
    3518:	66 c0       	rjmp	.+204    	; 0x35e6 <setpixelColour+0x24c>
    351a:	10 92 a0 0d 	sts	0x0DA0, r1	; 0x800da0 <R_back>
    351e:	8f ef       	ldi	r24, 0xFF	; 255
    3520:	80 93 a8 0d 	sts	0x0DA8, r24	; 0x800da8 <G_back>
    3524:	10 92 9d 0d 	sts	0x0D9D, r1	; 0x800d9d <B_back>
    3528:	5e c0       	rjmp	.+188    	; 0x35e6 <setpixelColour+0x24c>
    352a:	10 92 a0 0d 	sts	0x0DA0, r1	; 0x800da0 <R_back>
    352e:	10 92 a8 0d 	sts	0x0DA8, r1	; 0x800da8 <G_back>
    3532:	8f ef       	ldi	r24, 0xFF	; 255
    3534:	80 93 9d 0d 	sts	0x0D9D, r24	; 0x800d9d <B_back>
    3538:	56 c0       	rjmp	.+172    	; 0x35e6 <setpixelColour+0x24c>
    353a:	84 ec       	ldi	r24, 0xC4	; 196
    353c:	80 93 a0 0d 	sts	0x0DA0, r24	; 0x800da0 <R_back>
    3540:	10 92 a8 0d 	sts	0x0DA8, r1	; 0x800da8 <G_back>
    3544:	8f ef       	ldi	r24, 0xFF	; 255
    3546:	80 93 9d 0d 	sts	0x0D9D, r24	; 0x800d9d <B_back>
    354a:	4d c0       	rjmp	.+154    	; 0x35e6 <setpixelColour+0x24c>
    354c:	80 e8       	ldi	r24, 0x80	; 128
    354e:	80 93 a0 0d 	sts	0x0DA0, r24	; 0x800da0 <R_back>
    3552:	80 93 a8 0d 	sts	0x0DA8, r24	; 0x800da8 <G_back>
    3556:	80 93 9d 0d 	sts	0x0D9D, r24	; 0x800d9d <B_back>
    355a:	45 c0       	rjmp	.+138    	; 0x35e6 <setpixelColour+0x24c>
    355c:	8f ef       	ldi	r24, 0xFF	; 255
    355e:	80 93 a0 0d 	sts	0x0DA0, r24	; 0x800da0 <R_back>
    3562:	80 93 a8 0d 	sts	0x0DA8, r24	; 0x800da8 <G_back>
    3566:	80 93 9d 0d 	sts	0x0D9D, r24	; 0x800d9d <B_back>
    356a:	3d c0       	rjmp	.+122    	; 0x35e6 <setpixelColour+0x24c>
    356c:	8f ef       	ldi	r24, 0xFF	; 255
    356e:	80 93 a0 0d 	sts	0x0DA0, r24	; 0x800da0 <R_back>
    3572:	10 92 a8 0d 	sts	0x0DA8, r1	; 0x800da8 <G_back>
    3576:	80 93 9d 0d 	sts	0x0D9D, r24	; 0x800d9d <B_back>
    357a:	35 c0       	rjmp	.+106    	; 0x35e6 <setpixelColour+0x24c>
    357c:	8f e6       	ldi	r24, 0x6F	; 111
    357e:	80 93 a0 0d 	sts	0x0DA0, r24	; 0x800da0 <R_back>
    3582:	8f ef       	ldi	r24, 0xFF	; 255
    3584:	80 93 a8 0d 	sts	0x0DA8, r24	; 0x800da8 <G_back>
    3588:	10 92 9d 0d 	sts	0x0D9D, r1	; 0x800d9d <B_back>
    358c:	2c c0       	rjmp	.+88     	; 0x35e6 <setpixelColour+0x24c>
    358e:	8d e8       	ldi	r24, 0x8D	; 141
    3590:	80 93 a0 0d 	sts	0x0DA0, r24	; 0x800da0 <R_back>
    3594:	8a eb       	ldi	r24, 0xBA	; 186
    3596:	80 93 a8 0d 	sts	0x0DA8, r24	; 0x800da8 <G_back>
    359a:	8e ec       	ldi	r24, 0xCE	; 206
    359c:	80 93 9d 0d 	sts	0x0D9D, r24	; 0x800d9d <B_back>
    35a0:	22 c0       	rjmp	.+68     	; 0x35e6 <setpixelColour+0x24c>
    35a2:	10 92 a0 0d 	sts	0x0DA0, r1	; 0x800da0 <R_back>
    35a6:	8f ef       	ldi	r24, 0xFF	; 255
    35a8:	80 93 a8 0d 	sts	0x0DA8, r24	; 0x800da8 <G_back>
    35ac:	80 93 9d 0d 	sts	0x0D9D, r24	; 0x800d9d <B_back>
    35b0:	1a c0       	rjmp	.+52     	; 0x35e6 <setpixelColour+0x24c>
    35b2:	8f ef       	ldi	r24, 0xFF	; 255
    35b4:	80 93 a0 0d 	sts	0x0DA0, r24	; 0x800da0 <R_back>
    35b8:	80 ef       	ldi	r24, 0xF0	; 240
    35ba:	80 93 a8 0d 	sts	0x0DA8, r24	; 0x800da8 <G_back>
    35be:	85 ef       	ldi	r24, 0xF5	; 245
    35c0:	80 93 9d 0d 	sts	0x0D9D, r24	; 0x800d9d <B_back>
    35c4:	10 c0       	rjmp	.+32     	; 0x35e6 <setpixelColour+0x24c>
    35c6:	8f ec       	ldi	r24, 0xCF	; 207
    35c8:	80 93 a0 0d 	sts	0x0DA0, r24	; 0x800da0 <R_back>
    35cc:	89 eb       	ldi	r24, 0xB9	; 185
    35ce:	80 93 a8 0d 	sts	0x0DA8, r24	; 0x800da8 <G_back>
    35d2:	87 e9       	ldi	r24, 0x97	; 151
    35d4:	80 93 9d 0d 	sts	0x0D9D, r24	; 0x800d9d <B_back>
    35d8:	06 c0       	rjmp	.+12     	; 0x35e6 <setpixelColour+0x24c>
    35da:	10 92 a0 0d 	sts	0x0DA0, r1	; 0x800da0 <R_back>
    35de:	10 92 a8 0d 	sts	0x0DA8, r1	; 0x800da8 <G_back>
    35e2:	10 92 9d 0d 	sts	0x0D9D, r1	; 0x800d9d <B_back>
    35e6:	c9 01       	movw	r24, r18
    35e8:	08 95       	ret

000035ea <WriteNumber>:

void WriteNumber(unsigned int X_pos, unsigned int Y_pos, unsigned int Colour, int NumberToWrite)
{
    35ea:	9f 92       	push	r9
    35ec:	af 92       	push	r10
    35ee:	bf 92       	push	r11
    35f0:	cf 92       	push	r12
    35f2:	df 92       	push	r13
    35f4:	ef 92       	push	r14
    35f6:	ff 92       	push	r15
    35f8:	0f 93       	push	r16
    35fa:	1f 93       	push	r17
    35fc:	cf 93       	push	r28
    35fe:	df 93       	push	r29
    3600:	8c 01       	movw	r16, r24
    3602:	7b 01       	movw	r14, r22
    3604:	ca 01       	movw	r24, r20
    3606:	e9 01       	movw	r28, r18
		static unsigned char dataout=0;
		static unsigned int i=1;
		static unsigned int jj=0;
		unsigned int Pixel_Colour = 0x00 | Colour;
		
		setpixelColour(Colour);
    3608:	c8 de       	rcall	.-624    	; 0x339a <setpixelColour>
		setDisplayNumberFont(X_pos,Y_pos);
    360a:	b7 01       	movw	r22, r14
    360c:	c8 01       	movw	r24, r16
    360e:	bb dc       	rcall	.-1674   	; 0x2f86 <setDisplayNumberFont>
		if(NumberToWrite == 0)
    3610:	20 97       	sbiw	r28, 0x00	; 0
    3612:	09 f0       	breq	.+2      	; 0x3616 <WriteNumber+0x2c>
    3614:	6c c0       	rjmp	.+216    	; 0x36ee <WriteNumber+0x104>
		{
			for (jj=Number_Font_Length_Bytes; jj>Number_Font_Start; jj--)
    3616:	81 e5       	ldi	r24, 0x51	; 81
    3618:	90 e0       	ldi	r25, 0x00	; 0
    361a:	90 93 7a 0d 	sts	0x0D7A, r25	; 0x800d7a <jj.1986+0x1>
    361e:	80 93 79 0d 	sts	0x0D79, r24	; 0x800d79 <jj.1986>
    3622:	0f 2e       	mov	r0, r31
    3624:	f4 e7       	ldi	r31, 0x74	; 116
    3626:	ef 2e       	mov	r14, r31
    3628:	f3 e0       	ldi	r31, 0x03	; 3
    362a:	ff 2e       	mov	r15, r31
    362c:	f0 2d       	mov	r31, r0
    362e:	0f 2e       	mov	r0, r31
    3630:	f1 e5       	ldi	r31, 0x51	; 81
    3632:	af 2e       	mov	r10, r31
    3634:	b1 2c       	mov	r11, r1
    3636:	f0 2d       	mov	r31, r0
					}
						i=i<<1;

						if (i>=256)
						{
							i=1;
    3638:	cc 24       	eor	r12, r12
    363a:	c3 94       	inc	r12
    363c:	d1 2c       	mov	r13, r1
		setDisplayNumberFont(X_pos,Y_pos);
		if(NumberToWrite == 0)
		{
			for (jj=Number_Font_Length_Bytes; jj>Number_Font_Start; jj--)
			{  
				for (x=0; x<8; x++)
    363e:	10 92 78 0d 	sts	0x0D78, r1	; 0x800d78 <x.1983>
    3642:	11 e0       	ldi	r17, 0x01	; 1
				{
					dataout = Number_Font[jj] &i;
    3644:	c0 91 0e 02 	lds	r28, 0x020E	; 0x80020e <i.1985>
    3648:	d0 91 0f 02 	lds	r29, 0x020F	; 0x80020f <i.1985+0x1>
					if (dataout >=1)
    364c:	f7 01       	movw	r30, r14
    364e:	80 81       	ld	r24, Z
    3650:	8c 23       	and	r24, r28
    3652:	a9 f0       	breq	.+42     	; 0x367e <WriteNumber+0x94>
// Red 0-31, Green 0-63, Blue 0-31
void WritePixel(unsigned char Red, unsigned char Green, unsigned char Blue)
{
	unsigned int data = 0;
	data |= Red << 11;
	data |= Green << 5;
    3654:	80 91 a7 0d 	lds	r24, 0x0DA7	; 0x800da7 <R>
    3658:	90 e0       	ldi	r25, 0x00	; 0
    365a:	98 2f       	mov	r25, r24
    365c:	88 27       	eor	r24, r24
    365e:	99 0f       	add	r25, r25
    3660:	99 0f       	add	r25, r25
    3662:	99 0f       	add	r25, r25
    3664:	20 91 a5 0d 	lds	r18, 0x0DA5	; 0x800da5 <G>
    3668:	40 e2       	ldi	r20, 0x20	; 32
    366a:	24 9f       	mul	r18, r20
    366c:	90 01       	movw	r18, r0
    366e:	11 24       	eor	r1, r1
    3670:	82 2b       	or	r24, r18
    3672:	93 2b       	or	r25, r19
	data |= Blue;
	
	WriteData(data);
    3674:	20 91 a1 0d 	lds	r18, 0x0DA1	; 0x800da1 <B>
    3678:	82 2b       	or	r24, r18
    367a:	08 dc       	rcall	.-2032   	; 0x2e8c <WriteData>
    367c:	14 c0       	rjmp	.+40     	; 0x36a6 <WriteNumber+0xbc>
// Red 0-31, Green 0-63, Blue 0-31
void WritePixel(unsigned char Red, unsigned char Green, unsigned char Blue)
{
	unsigned int data = 0;
	data |= Red << 11;
	data |= Green << 5;
    367e:	80 91 a0 0d 	lds	r24, 0x0DA0	; 0x800da0 <R_back>
    3682:	90 e0       	ldi	r25, 0x00	; 0
    3684:	98 2f       	mov	r25, r24
    3686:	88 27       	eor	r24, r24
    3688:	99 0f       	add	r25, r25
    368a:	99 0f       	add	r25, r25
    368c:	99 0f       	add	r25, r25
    368e:	20 91 a8 0d 	lds	r18, 0x0DA8	; 0x800da8 <G_back>
    3692:	e0 e2       	ldi	r30, 0x20	; 32
    3694:	2e 9f       	mul	r18, r30
    3696:	90 01       	movw	r18, r0
    3698:	11 24       	eor	r1, r1
    369a:	82 2b       	or	r24, r18
    369c:	93 2b       	or	r25, r19
	data |= Blue;
	
	WriteData(data);
    369e:	20 91 9d 0d 	lds	r18, 0x0D9D	; 0x800d9d <B_back>
    36a2:	82 2b       	or	r24, r18
    36a4:	f3 db       	rcall	.-2074   	; 0x2e8c <WriteData>
					} 
					else
					{
						WritePixel(R_back,G_back,B_back);
					}
						i=i<<1;
    36a6:	cc 0f       	add	r28, r28
    36a8:	dd 1f       	adc	r29, r29

						if (i>=256)
    36aa:	cf 3f       	cpi	r28, 0xFF	; 255
    36ac:	d1 05       	cpc	r29, r1
    36ae:	09 f0       	breq	.+2      	; 0x36b2 <WriteNumber+0xc8>
    36b0:	28 f4       	brcc	.+10     	; 0x36bc <WriteNumber+0xd2>
					} 
					else
					{
						WritePixel(R_back,G_back,B_back);
					}
						i=i<<1;
    36b2:	d0 93 0f 02 	sts	0x020F, r29	; 0x80020f <i.1985+0x1>
    36b6:	c0 93 0e 02 	sts	0x020E, r28	; 0x80020e <i.1985>
    36ba:	04 c0       	rjmp	.+8      	; 0x36c4 <WriteNumber+0xda>

						if (i>=256)
						{
							i=1;
    36bc:	d0 92 0f 02 	sts	0x020F, r13	; 0x80020f <i.1985+0x1>
    36c0:	c0 92 0e 02 	sts	0x020E, r12	; 0x80020e <i.1985>
		setDisplayNumberFont(X_pos,Y_pos);
		if(NumberToWrite == 0)
		{
			for (jj=Number_Font_Length_Bytes; jj>Number_Font_Start; jj--)
			{  
				for (x=0; x<8; x++)
    36c4:	10 93 78 0d 	sts	0x0D78, r17	; 0x800d78 <x.1983>
    36c8:	1f 5f       	subi	r17, 0xFF	; 255
    36ca:	19 30       	cpi	r17, 0x09	; 9
    36cc:	09 f0       	breq	.+2      	; 0x36d0 <WriteNumber+0xe6>
    36ce:	ba cf       	rjmp	.-140    	; 0x3644 <WriteNumber+0x5a>
		
		setpixelColour(Colour);
		setDisplayNumberFont(X_pos,Y_pos);
		if(NumberToWrite == 0)
		{
			for (jj=Number_Font_Length_Bytes; jj>Number_Font_Start; jj--)
    36d0:	f1 e0       	ldi	r31, 0x01	; 1
    36d2:	af 1a       	sub	r10, r31
    36d4:	b1 08       	sbc	r11, r1
    36d6:	b0 92 7a 0d 	sts	0x0D7A, r11	; 0x800d7a <jj.1986+0x1>
    36da:	a0 92 79 0d 	sts	0x0D79, r10	; 0x800d79 <jj.1986>
    36de:	42 e0       	ldi	r20, 0x02	; 2
    36e0:	e4 1a       	sub	r14, r20
    36e2:	f1 08       	sbc	r15, r1
    36e4:	a1 14       	cp	r10, r1
    36e6:	b1 04       	cpc	r11, r1
    36e8:	09 f0       	breq	.+2      	; 0x36ec <WriteNumber+0x102>
    36ea:	a9 cf       	rjmp	.-174    	; 0x363e <WriteNumber+0x54>
    36ec:	72 c0       	rjmp	.+228    	; 0x37d2 <WriteNumber+0x1e8>
				}
			}
		}
		else
		{
			for (jj=Number_Font_Length_Bytes*(NumberToWrite+1); jj>Number_Font_Length_Bytes*NumberToWrite; jj--)
    36ee:	21 96       	adiw	r28, 0x01	; 1
    36f0:	81 e5       	ldi	r24, 0x51	; 81
    36f2:	8c 9f       	mul	r24, r28
    36f4:	60 01       	movw	r12, r0
    36f6:	8d 9f       	mul	r24, r29
    36f8:	d0 0c       	add	r13, r0
    36fa:	11 24       	eor	r1, r1
    36fc:	d0 92 7a 0d 	sts	0x0D7A, r13	; 0x800d7a <jj.1986+0x1>
    3700:	c0 92 79 0d 	sts	0x0D79, r12	; 0x800d79 <jj.1986>
    3704:	56 01       	movw	r10, r12
    3706:	81 e5       	ldi	r24, 0x51	; 81
    3708:	a8 1a       	sub	r10, r24
    370a:	b1 08       	sbc	r11, r1
    370c:	ac 14       	cp	r10, r12
    370e:	bd 04       	cpc	r11, r13
    3710:	08 f0       	brcs	.+2      	; 0x3714 <WriteNumber+0x12a>
    3712:	5f c0       	rjmp	.+190    	; 0x37d2 <WriteNumber+0x1e8>
    3714:	86 01       	movw	r16, r12
    3716:	00 0f       	add	r16, r16
    3718:	11 1f       	adc	r17, r17
    371a:	0e 52       	subi	r16, 0x2E	; 46
    371c:	1d 4f       	sbci	r17, 0xFD	; 253
					WritePixel(R_back,G_back,B_back); }

					i=i<<1;

					if (i>=256){
					i=1;}
    371e:	ee 24       	eor	r14, r14
    3720:	e3 94       	inc	r14
    3722:	f1 2c       	mov	r15, r1
		}
		else
		{
			for (jj=Number_Font_Length_Bytes*(NumberToWrite+1); jj>Number_Font_Length_Bytes*NumberToWrite; jj--)
			{    
				for (x=0; x<8; x++){
    3724:	10 92 78 0d 	sts	0x0D78, r1	; 0x800d78 <x.1983>
    3728:	99 24       	eor	r9, r9
    372a:	93 94       	inc	r9

					dataout = Number_Font[jj] &i;
    372c:	c0 91 0e 02 	lds	r28, 0x020E	; 0x80020e <i.1985>
    3730:	d0 91 0f 02 	lds	r29, 0x020F	; 0x80020f <i.1985+0x1>

					if (dataout >=1){
    3734:	f8 01       	movw	r30, r16
    3736:	80 81       	ld	r24, Z
    3738:	8c 23       	and	r24, r28
    373a:	a9 f0       	breq	.+42     	; 0x3766 <WriteNumber+0x17c>
// Red 0-31, Green 0-63, Blue 0-31
void WritePixel(unsigned char Red, unsigned char Green, unsigned char Blue)
{
	unsigned int data = 0;
	data |= Red << 11;
	data |= Green << 5;
    373c:	80 91 a7 0d 	lds	r24, 0x0DA7	; 0x800da7 <R>
    3740:	90 e0       	ldi	r25, 0x00	; 0
    3742:	98 2f       	mov	r25, r24
    3744:	88 27       	eor	r24, r24
    3746:	99 0f       	add	r25, r25
    3748:	99 0f       	add	r25, r25
    374a:	99 0f       	add	r25, r25
    374c:	20 91 a5 0d 	lds	r18, 0x0DA5	; 0x800da5 <G>
    3750:	40 e2       	ldi	r20, 0x20	; 32
    3752:	24 9f       	mul	r18, r20
    3754:	90 01       	movw	r18, r0
    3756:	11 24       	eor	r1, r1
    3758:	82 2b       	or	r24, r18
	data |= Blue;
	
	WriteData(data);
    375a:	93 2b       	or	r25, r19
    375c:	20 91 a1 0d 	lds	r18, 0x0DA1	; 0x800da1 <B>
    3760:	82 2b       	or	r24, r18
    3762:	94 db       	rcall	.-2264   	; 0x2e8c <WriteData>
    3764:	14 c0       	rjmp	.+40     	; 0x378e <WriteNumber+0x1a4>
// Red 0-31, Green 0-63, Blue 0-31
void WritePixel(unsigned char Red, unsigned char Green, unsigned char Blue)
{
	unsigned int data = 0;
	data |= Red << 11;
	data |= Green << 5;
    3766:	80 91 a0 0d 	lds	r24, 0x0DA0	; 0x800da0 <R_back>
    376a:	90 e0       	ldi	r25, 0x00	; 0
    376c:	98 2f       	mov	r25, r24
    376e:	88 27       	eor	r24, r24
    3770:	99 0f       	add	r25, r25
    3772:	99 0f       	add	r25, r25
    3774:	99 0f       	add	r25, r25
    3776:	20 91 a8 0d 	lds	r18, 0x0DA8	; 0x800da8 <G_back>
    377a:	e0 e2       	ldi	r30, 0x20	; 32
    377c:	2e 9f       	mul	r18, r30
    377e:	90 01       	movw	r18, r0
    3780:	11 24       	eor	r1, r1
    3782:	82 2b       	or	r24, r18
	data |= Blue;
	
	WriteData(data);
    3784:	93 2b       	or	r25, r19
    3786:	20 91 9d 0d 	lds	r18, 0x0D9D	; 0x800d9d <B_back>
    378a:	82 2b       	or	r24, r18
    378c:	7f db       	rcall	.-2306   	; 0x2e8c <WriteData>
						WritePixel(R,G,B);
					} else
					{
					WritePixel(R_back,G_back,B_back); }

					i=i<<1;
    378e:	cc 0f       	add	r28, r28
    3790:	dd 1f       	adc	r29, r29

					if (i>=256){
    3792:	cf 3f       	cpi	r28, 0xFF	; 255
    3794:	d1 05       	cpc	r29, r1
    3796:	09 f0       	breq	.+2      	; 0x379a <WriteNumber+0x1b0>
    3798:	28 f4       	brcc	.+10     	; 0x37a4 <WriteNumber+0x1ba>
						WritePixel(R,G,B);
					} else
					{
					WritePixel(R_back,G_back,B_back); }

					i=i<<1;
    379a:	d0 93 0f 02 	sts	0x020F, r29	; 0x80020f <i.1985+0x1>
    379e:	c0 93 0e 02 	sts	0x020E, r28	; 0x80020e <i.1985>
    37a2:	04 c0       	rjmp	.+8      	; 0x37ac <WriteNumber+0x1c2>

					if (i>=256){
					i=1;}
    37a4:	f0 92 0f 02 	sts	0x020F, r15	; 0x80020f <i.1985+0x1>
    37a8:	e0 92 0e 02 	sts	0x020E, r14	; 0x80020e <i.1985>
		}
		else
		{
			for (jj=Number_Font_Length_Bytes*(NumberToWrite+1); jj>Number_Font_Length_Bytes*NumberToWrite; jj--)
			{    
				for (x=0; x<8; x++){
    37ac:	90 92 78 0d 	sts	0x0D78, r9	; 0x800d78 <x.1983>
    37b0:	93 94       	inc	r9
    37b2:	f9 e0       	ldi	r31, 0x09	; 9
    37b4:	9f 12       	cpse	r9, r31
    37b6:	ba cf       	rjmp	.-140    	; 0x372c <WriteNumber+0x142>
				}
			}
		}
		else
		{
			for (jj=Number_Font_Length_Bytes*(NumberToWrite+1); jj>Number_Font_Length_Bytes*NumberToWrite; jj--)
    37b8:	41 e0       	ldi	r20, 0x01	; 1
    37ba:	c4 1a       	sub	r12, r20
    37bc:	d1 08       	sbc	r13, r1
    37be:	d0 92 7a 0d 	sts	0x0D7A, r13	; 0x800d7a <jj.1986+0x1>
    37c2:	c0 92 79 0d 	sts	0x0D79, r12	; 0x800d79 <jj.1986>
    37c6:	02 50       	subi	r16, 0x02	; 2
    37c8:	11 09       	sbc	r17, r1
    37ca:	ac 14       	cp	r10, r12
    37cc:	bd 04       	cpc	r11, r13
    37ce:	08 f4       	brcc	.+2      	; 0x37d2 <WriteNumber+0x1e8>
    37d0:	a9 cf       	rjmp	.-174    	; 0x3724 <WriteNumber+0x13a>
					if (i>=256){
					i=1;}
				}
			}
		}
}
    37d2:	df 91       	pop	r29
    37d4:	cf 91       	pop	r28
    37d6:	1f 91       	pop	r17
    37d8:	0f 91       	pop	r16
    37da:	ff 90       	pop	r15
    37dc:	ef 90       	pop	r14
    37de:	df 90       	pop	r13
    37e0:	cf 90       	pop	r12
    37e2:	bf 90       	pop	r11
    37e4:	af 90       	pop	r10
    37e6:	9f 90       	pop	r9
    37e8:	08 95       	ret

000037ea <WriteNumberFromADC>:
	
	
void WriteNumberFromADC(unsigned int X_Position, unsigned int Y_Position, unsigned int setColour, float num)
{
    37ea:	2f 92       	push	r2
    37ec:	3f 92       	push	r3
    37ee:	4f 92       	push	r4
    37f0:	5f 92       	push	r5
    37f2:	6f 92       	push	r6
    37f4:	7f 92       	push	r7
    37f6:	8f 92       	push	r8
    37f8:	9f 92       	push	r9
    37fa:	af 92       	push	r10
    37fc:	bf 92       	push	r11
    37fe:	cf 92       	push	r12
    3800:	df 92       	push	r13
    3802:	ef 92       	push	r14
    3804:	ff 92       	push	r15
    3806:	0f 93       	push	r16
    3808:	1f 93       	push	r17
    380a:	cf 93       	push	r28
    380c:	df 93       	push	r29
    380e:	cd b7       	in	r28, 0x3d	; 61
    3810:	de b7       	in	r29, 0x3e	; 62
    3812:	c0 54       	subi	r28, 0x40	; 64
    3814:	d1 09       	sbc	r29, r1
    3816:	0f b6       	in	r0, 0x3f	; 63
    3818:	f8 94       	cli
    381a:	de bf       	out	0x3e, r29	; 62
    381c:	0f be       	out	0x3f, r0	; 63
    381e:	cd bf       	out	0x3d, r28	; 61
    3820:	7c 01       	movw	r14, r24
    3822:	6b 01       	movw	r12, r22
    3824:	5a 01       	movw	r10, r20
    3826:	0b ab       	std	Y+51, r16	; 0x33
    3828:	1c ab       	std	Y+52, r17	; 0x34
    382a:	2d ab       	std	Y+53, r18	; 0x35
    382c:	3e ab       	std	Y+54, r19	; 0x36
	unsigned int Font_Width;
	Font_Width = Number_Font_Width + Number_Font_Spacing;
	unsigned int pos1 = X_Position;
	unsigned int pos2 = X_Position + Font_Width;
    382e:	49 96       	adiw	r24, 0x19	; 25
    3830:	9c af       	std	Y+60, r25	; 0x3c
    3832:	8b af       	std	Y+59, r24	; 0x3b
	unsigned int pos3 = X_Position + Font_Width*2;
    3834:	d7 01       	movw	r26, r14
    3836:	d2 96       	adiw	r26, 0x32	; 50
    3838:	be af       	std	Y+62, r27	; 0x3e
    383a:	ad af       	std	Y+61, r26	; 0x3d
	unsigned int pos4 = X_Position + Font_Width*3;
    383c:	c2 96       	adiw	r24, 0x32	; 50
    383e:	21 96       	adiw	r28, 0x01	; 1
    3840:	9f af       	std	Y+63, r25	; 0x3f
    3842:	8e af       	std	Y+62, r24	; 0x3e
    3844:	21 97       	sbiw	r28, 0x01	; 1
	unsigned int pos5 = X_Position + Font_Width*4;
    3846:	17 01       	movw	r2, r14
    3848:	94 e6       	ldi	r25, 0x64	; 100
    384a:	29 0e       	add	r2, r25
    384c:	31 1c       	adc	r3, r1
	unsigned int pos6 = X_Position + Font_Width*5;
    384e:	27 01       	movw	r4, r14
    3850:	ad e7       	ldi	r26, 0x7D	; 125
    3852:	4a 0e       	add	r4, r26
    3854:	51 1c       	adc	r5, r1
	unsigned int pos7 = X_Position + Font_Width*6;
    3856:	37 01       	movw	r6, r14
    3858:	b6 e9       	ldi	r27, 0x96	; 150
    385a:	6b 0e       	add	r6, r27
    385c:	71 1c       	adc	r7, r1
	unsigned int pos8 = X_Position + Font_Width*7;
	unsigned int posDot = X_Position + Font_Width*0.5;
    385e:	b7 01       	movw	r22, r14
    3860:	80 e0       	ldi	r24, 0x00	; 0
    3862:	90 e0       	ldi	r25, 0x00	; 0
    3864:	1a d4       	rcall	.+2100   	; 0x409a <__floatunsisf>
    3866:	20 e0       	ldi	r18, 0x00	; 0
    3868:	30 e0       	ldi	r19, 0x00	; 0
    386a:	48 e4       	ldi	r20, 0x48	; 72
    386c:	51 e4       	ldi	r21, 0x41	; 65
    386e:	1d d3       	rcall	.+1594   	; 0x3eaa <__addsf3>
    3870:	e8 d3       	rcall	.+2000   	; 0x4042 <__fixunssfsi>
    3872:	6f ab       	std	Y+55, r22	; 0x37
    3874:	78 af       	std	Y+56, r23	; 0x38
    3876:	89 af       	std	Y+57, r24	; 0x39
    3878:	9a af       	std	Y+58, r25	; 0x3a

	// === FOR DEBUGGING === //
	char debugMsg[50];
	char debugString[20];
	
	dtostrf(num, 3, 3, numberstring);     // Converts input unsigned long integer number to a string
    387a:	02 e7       	ldi	r16, 0x72	; 114
    387c:	1d e0       	ldi	r17, 0x0D	; 13
    387e:	23 e0       	ldi	r18, 0x03	; 3
    3880:	30 e0       	ldi	r19, 0x00	; 0
    3882:	43 e0       	ldi	r20, 0x03	; 3
    3884:	50 e0       	ldi	r21, 0x00	; 0
    3886:	6b a9       	ldd	r22, Y+51	; 0x33
    3888:	7c a9       	ldd	r23, Y+52	; 0x34
    388a:	8d a9       	ldd	r24, Y+53	; 0x35
    388c:	9e a9       	ldd	r25, Y+54	; 0x36
    388e:	9e d6       	rcall	.+3388   	; 0x45cc <dtostrf>
	sprintf(debugMsg, "WriteNumber is %6s\r\n", numberstring);
    3890:	1f 93       	push	r17
    3892:	0f 93       	push	r16
    3894:	8d eb       	ldi	r24, 0xBD	; 189
    3896:	92 e0       	ldi	r25, 0x02	; 2
    3898:	9f 93       	push	r25
    389a:	8f 93       	push	r24
    389c:	ce 01       	movw	r24, r28
    389e:	01 96       	adiw	r24, 0x01	; 1
    38a0:	4c 01       	movw	r8, r24
    38a2:	9f 93       	push	r25
    38a4:	8f 93       	push	r24
	SendString(UART0, debugMsg );
    38a6:	b8 d6       	rcall	.+3440   	; 0x4618 <sprintf>
    38a8:	b4 01       	movw	r22, r8
    38aa:	80 ec       	ldi	r24, 0xC0	; 192
    38ac:	90 e0       	ldi	r25, 0x00	; 0
    38ae:	d2 da       	rcall	.-2652   	; 0x2e54 <SendString>

	switch (numberstring[0])  {  //units position
    38b0:	0f 90       	pop	r0
    38b2:	0f 90       	pop	r0
    38b4:	0f 90       	pop	r0
    38b6:	0f 90       	pop	r0
    38b8:	0f 90       	pop	r0
    38ba:	0f 90       	pop	r0
    38bc:	d8 01       	movw	r26, r16
    38be:	ec 91       	ld	r30, X
    38c0:	8e 2f       	mov	r24, r30
    38c2:	90 e0       	ldi	r25, 0x00	; 0
    38c4:	fc 01       	movw	r30, r24
    38c6:	f0 97       	sbiw	r30, 0x30	; 48
    38c8:	ea 30       	cpi	r30, 0x0A	; 10
    38ca:	f1 05       	cpc	r31, r1
    38cc:	08 f0       	brcs	.+2      	; 0x38d0 <WriteNumberFromADC+0xe6>
    38ce:	4a c0       	rjmp	.+148    	; 0x3964 <WriteNumberFromADC+0x17a>
    38d0:	88 27       	eor	r24, r24
    38d2:	ee 55       	subi	r30, 0x5E	; 94
    38d4:	ff 4f       	sbci	r31, 0xFF	; 255
    38d6:	8f 4f       	sbci	r24, 0xFF	; 255

		case 48:    X_Position = pos1;
		WriteNumber(X_Position,Y_Position, setColour, 0);
    38d8:	58 c6       	rjmp	.+3248   	; 0x458a <__tablejump2__>
    38da:	20 e0       	ldi	r18, 0x00	; 0
    38dc:	30 e0       	ldi	r19, 0x00	; 0
    38de:	a5 01       	movw	r20, r10
    38e0:	b6 01       	movw	r22, r12
    38e2:	c7 01       	movw	r24, r14
		break;
    38e4:	82 de       	rcall	.-764    	; 0x35ea <WriteNumber>
		case 49:    X_Position = pos1;
		WriteNumber(X_Position,Y_Position, setColour, 1);
    38e6:	3e c0       	rjmp	.+124    	; 0x3964 <WriteNumberFromADC+0x17a>
    38e8:	21 e0       	ldi	r18, 0x01	; 1
    38ea:	30 e0       	ldi	r19, 0x00	; 0
    38ec:	a5 01       	movw	r20, r10
    38ee:	b6 01       	movw	r22, r12
    38f0:	c7 01       	movw	r24, r14
		break;
    38f2:	7b de       	rcall	.-778    	; 0x35ea <WriteNumber>
		case 50:    X_Position = pos1;
		WriteNumber(X_Position,Y_Position, setColour, 2);
    38f4:	37 c0       	rjmp	.+110    	; 0x3964 <WriteNumberFromADC+0x17a>
    38f6:	22 e0       	ldi	r18, 0x02	; 2
    38f8:	30 e0       	ldi	r19, 0x00	; 0
    38fa:	a5 01       	movw	r20, r10
    38fc:	b6 01       	movw	r22, r12
    38fe:	c7 01       	movw	r24, r14
		break;
    3900:	74 de       	rcall	.-792    	; 0x35ea <WriteNumber>
		case 51:    X_Position = pos1;
		WriteNumber(X_Position,Y_Position, setColour, 3);
    3902:	30 c0       	rjmp	.+96     	; 0x3964 <WriteNumberFromADC+0x17a>
    3904:	23 e0       	ldi	r18, 0x03	; 3
    3906:	30 e0       	ldi	r19, 0x00	; 0
    3908:	a5 01       	movw	r20, r10
    390a:	b6 01       	movw	r22, r12
    390c:	c7 01       	movw	r24, r14
		break;
    390e:	6d de       	rcall	.-806    	; 0x35ea <WriteNumber>
		case 52:
		WriteNumber(X_Position,Y_Position, setColour, 4);
    3910:	29 c0       	rjmp	.+82     	; 0x3964 <WriteNumberFromADC+0x17a>
    3912:	24 e0       	ldi	r18, 0x04	; 4
    3914:	30 e0       	ldi	r19, 0x00	; 0
    3916:	a5 01       	movw	r20, r10
    3918:	b6 01       	movw	r22, r12
    391a:	c7 01       	movw	r24, r14
		break;
    391c:	66 de       	rcall	.-820    	; 0x35ea <WriteNumber>
		case 53:    X_Position = pos1;
		WriteNumber(X_Position,Y_Position, setColour, 5);
    391e:	22 c0       	rjmp	.+68     	; 0x3964 <WriteNumberFromADC+0x17a>
    3920:	25 e0       	ldi	r18, 0x05	; 5
    3922:	30 e0       	ldi	r19, 0x00	; 0
    3924:	a5 01       	movw	r20, r10
    3926:	b6 01       	movw	r22, r12
    3928:	c7 01       	movw	r24, r14
		break;
		case 54:    X_Position = pos1;
		WriteNumber(X_Position,Y_Position, setColour, 6);
    392a:	5f de       	rcall	.-834    	; 0x35ea <WriteNumber>
    392c:	1b c0       	rjmp	.+54     	; 0x3964 <WriteNumberFromADC+0x17a>
    392e:	26 e0       	ldi	r18, 0x06	; 6
    3930:	30 e0       	ldi	r19, 0x00	; 0
    3932:	a5 01       	movw	r20, r10
    3934:	b6 01       	movw	r22, r12
		break;
    3936:	c7 01       	movw	r24, r14
		case 55:    X_Position = pos1;
		WriteNumber(X_Position,Y_Position, setColour, 7);
    3938:	58 de       	rcall	.-848    	; 0x35ea <WriteNumber>
    393a:	14 c0       	rjmp	.+40     	; 0x3964 <WriteNumberFromADC+0x17a>
    393c:	27 e0       	ldi	r18, 0x07	; 7
    393e:	30 e0       	ldi	r19, 0x00	; 0
    3940:	a5 01       	movw	r20, r10
    3942:	b6 01       	movw	r22, r12
		break;
    3944:	c7 01       	movw	r24, r14
		case 56:    X_Position = pos1;
		WriteNumber(X_Position,Y_Position, setColour, 8);
    3946:	51 de       	rcall	.-862    	; 0x35ea <WriteNumber>
    3948:	0d c0       	rjmp	.+26     	; 0x3964 <WriteNumberFromADC+0x17a>
    394a:	28 e0       	ldi	r18, 0x08	; 8
    394c:	30 e0       	ldi	r19, 0x00	; 0
    394e:	a5 01       	movw	r20, r10
    3950:	b6 01       	movw	r22, r12
		break;
    3952:	c7 01       	movw	r24, r14
		case 57:    X_Position = pos1;
		WriteNumber(X_Position,Y_Position, setColour, 9);
    3954:	4a de       	rcall	.-876    	; 0x35ea <WriteNumber>
    3956:	06 c0       	rjmp	.+12     	; 0x3964 <WriteNumberFromADC+0x17a>
    3958:	29 e0       	ldi	r18, 0x09	; 9
    395a:	30 e0       	ldi	r19, 0x00	; 0
    395c:	a5 01       	movw	r20, r10
    395e:	b6 01       	movw	r22, r12
    3960:	c7 01       	movw	r24, r14
		break;
		default:    break;
	}
	
	WriteNumber(posDot, Y_Position, setColour, 16);
    3962:	43 de       	rcall	.-890    	; 0x35ea <WriteNumber>
    3964:	20 e1       	ldi	r18, 0x10	; 16
    3966:	30 e0       	ldi	r19, 0x00	; 0
    3968:	a5 01       	movw	r20, r10
    396a:	b6 01       	movw	r22, r12
    396c:	8f a9       	ldd	r24, Y+55	; 0x37
    396e:	98 ad       	ldd	r25, Y+56	; 0x38
	
	switch (numberstring[2])  {  //units position
    3970:	3c de       	rcall	.-904    	; 0x35ea <WriteNumber>
    3972:	e0 91 74 0d 	lds	r30, 0x0D74	; 0x800d74 <numberstring.2016+0x2>
    3976:	8e 2f       	mov	r24, r30
    3978:	90 e0       	ldi	r25, 0x00	; 0
    397a:	fc 01       	movw	r30, r24
    397c:	f0 97       	sbiw	r30, 0x30	; 48
    397e:	ea 30       	cpi	r30, 0x0A	; 10
    3980:	f1 05       	cpc	r31, r1
    3982:	08 f0       	brcs	.+2      	; 0x3986 <WriteNumberFromADC+0x19c>
    3984:	54 c0       	rjmp	.+168    	; 0x3a2e <WriteNumberFromADC+0x244>
    3986:	88 27       	eor	r24, r24
    3988:	e4 55       	subi	r30, 0x54	; 84
    398a:	ff 4f       	sbci	r31, 0xFF	; 255

		case 48:    X_Position = pos2;
		WriteNumber(X_Position,Y_Position, setColour, 0);
    398c:	8f 4f       	sbci	r24, 0xFF	; 255
    398e:	fd c5       	rjmp	.+3066   	; 0x458a <__tablejump2__>
    3990:	20 e0       	ldi	r18, 0x00	; 0
    3992:	30 e0       	ldi	r19, 0x00	; 0
    3994:	a5 01       	movw	r20, r10
    3996:	b6 01       	movw	r22, r12
    3998:	8b ad       	ldd	r24, Y+59	; 0x3b
		break;
    399a:	9c ad       	ldd	r25, Y+60	; 0x3c
		case 49:    X_Position = pos2;
		WriteNumber(X_Position,Y_Position, setColour, 1);
    399c:	26 de       	rcall	.-948    	; 0x35ea <WriteNumber>
    399e:	47 c0       	rjmp	.+142    	; 0x3a2e <WriteNumberFromADC+0x244>
    39a0:	21 e0       	ldi	r18, 0x01	; 1
    39a2:	30 e0       	ldi	r19, 0x00	; 0
    39a4:	a5 01       	movw	r20, r10
    39a6:	b6 01       	movw	r22, r12
    39a8:	8b ad       	ldd	r24, Y+59	; 0x3b
		break;
    39aa:	9c ad       	ldd	r25, Y+60	; 0x3c
		case 50:    X_Position = pos2;
		WriteNumber(X_Position,Y_Position, setColour, 2);
    39ac:	1e de       	rcall	.-964    	; 0x35ea <WriteNumber>
    39ae:	3f c0       	rjmp	.+126    	; 0x3a2e <WriteNumberFromADC+0x244>
    39b0:	22 e0       	ldi	r18, 0x02	; 2
    39b2:	30 e0       	ldi	r19, 0x00	; 0
    39b4:	a5 01       	movw	r20, r10
    39b6:	b6 01       	movw	r22, r12
    39b8:	8b ad       	ldd	r24, Y+59	; 0x3b
		break;
    39ba:	9c ad       	ldd	r25, Y+60	; 0x3c
		case 51:    X_Position = pos2;
		WriteNumber(X_Position,Y_Position, setColour, 3);
    39bc:	16 de       	rcall	.-980    	; 0x35ea <WriteNumber>
    39be:	37 c0       	rjmp	.+110    	; 0x3a2e <WriteNumberFromADC+0x244>
    39c0:	23 e0       	ldi	r18, 0x03	; 3
    39c2:	30 e0       	ldi	r19, 0x00	; 0
    39c4:	a5 01       	movw	r20, r10
    39c6:	b6 01       	movw	r22, r12
    39c8:	8b ad       	ldd	r24, Y+59	; 0x3b
		break;
		case 52:	X_Position = pos2;
		WriteNumber(X_Position,Y_Position, setColour, 4);
    39ca:	9c ad       	ldd	r25, Y+60	; 0x3c
    39cc:	0e de       	rcall	.-996    	; 0x35ea <WriteNumber>
    39ce:	2f c0       	rjmp	.+94     	; 0x3a2e <WriteNumberFromADC+0x244>
    39d0:	24 e0       	ldi	r18, 0x04	; 4
    39d2:	30 e0       	ldi	r19, 0x00	; 0
    39d4:	a5 01       	movw	r20, r10
    39d6:	b6 01       	movw	r22, r12
		break;
    39d8:	8b ad       	ldd	r24, Y+59	; 0x3b
		case 53:    X_Position = pos2;
		WriteNumber(X_Position,Y_Position, setColour, 5);
    39da:	9c ad       	ldd	r25, Y+60	; 0x3c
    39dc:	06 de       	rcall	.-1012   	; 0x35ea <WriteNumber>
    39de:	27 c0       	rjmp	.+78     	; 0x3a2e <WriteNumberFromADC+0x244>
    39e0:	25 e0       	ldi	r18, 0x05	; 5
    39e2:	30 e0       	ldi	r19, 0x00	; 0
    39e4:	a5 01       	movw	r20, r10
    39e6:	b6 01       	movw	r22, r12
		break;
    39e8:	8b ad       	ldd	r24, Y+59	; 0x3b
		case 54:    X_Position = pos2;
		WriteNumber(X_Position,Y_Position, setColour, 6);
    39ea:	9c ad       	ldd	r25, Y+60	; 0x3c
    39ec:	fe dd       	rcall	.-1028   	; 0x35ea <WriteNumber>
    39ee:	1f c0       	rjmp	.+62     	; 0x3a2e <WriteNumberFromADC+0x244>
    39f0:	26 e0       	ldi	r18, 0x06	; 6
    39f2:	30 e0       	ldi	r19, 0x00	; 0
    39f4:	a5 01       	movw	r20, r10
    39f6:	b6 01       	movw	r22, r12
		break;
    39f8:	8b ad       	ldd	r24, Y+59	; 0x3b
		case 55:    X_Position = pos2;
		WriteNumber(X_Position,Y_Position, setColour, 7);
    39fa:	9c ad       	ldd	r25, Y+60	; 0x3c
    39fc:	f6 dd       	rcall	.-1044   	; 0x35ea <WriteNumber>
    39fe:	17 c0       	rjmp	.+46     	; 0x3a2e <WriteNumberFromADC+0x244>
    3a00:	27 e0       	ldi	r18, 0x07	; 7
    3a02:	30 e0       	ldi	r19, 0x00	; 0
    3a04:	a5 01       	movw	r20, r10
    3a06:	b6 01       	movw	r22, r12
    3a08:	8b ad       	ldd	r24, Y+59	; 0x3b
		break;
    3a0a:	9c ad       	ldd	r25, Y+60	; 0x3c
		case 56:    X_Position = pos2;
		WriteNumber(X_Position,Y_Position, setColour, 8);
    3a0c:	ee dd       	rcall	.-1060   	; 0x35ea <WriteNumber>
    3a0e:	0f c0       	rjmp	.+30     	; 0x3a2e <WriteNumberFromADC+0x244>
    3a10:	28 e0       	ldi	r18, 0x08	; 8
    3a12:	30 e0       	ldi	r19, 0x00	; 0
    3a14:	a5 01       	movw	r20, r10
    3a16:	b6 01       	movw	r22, r12
    3a18:	8b ad       	ldd	r24, Y+59	; 0x3b
		break;
    3a1a:	9c ad       	ldd	r25, Y+60	; 0x3c
		case 57:    X_Position = pos2;
		WriteNumber(X_Position,Y_Position, setColour, 9);
    3a1c:	e6 dd       	rcall	.-1076   	; 0x35ea <WriteNumber>
    3a1e:	07 c0       	rjmp	.+14     	; 0x3a2e <WriteNumberFromADC+0x244>
    3a20:	29 e0       	ldi	r18, 0x09	; 9
    3a22:	30 e0       	ldi	r19, 0x00	; 0
    3a24:	a5 01       	movw	r20, r10
    3a26:	b6 01       	movw	r22, r12
    3a28:	8b ad       	ldd	r24, Y+59	; 0x3b
		break;
		default:    break;
	}
	
	switch (numberstring[3])  {  //units position
    3a2a:	9c ad       	ldd	r25, Y+60	; 0x3c
    3a2c:	de dd       	rcall	.-1092   	; 0x35ea <WriteNumber>
    3a2e:	e0 91 75 0d 	lds	r30, 0x0D75	; 0x800d75 <numberstring.2016+0x3>
    3a32:	8e 2f       	mov	r24, r30
    3a34:	90 e0       	ldi	r25, 0x00	; 0
    3a36:	fc 01       	movw	r30, r24
    3a38:	f0 97       	sbiw	r30, 0x30	; 48
    3a3a:	ea 30       	cpi	r30, 0x0A	; 10
    3a3c:	f1 05       	cpc	r31, r1
    3a3e:	08 f0       	brcs	.+2      	; 0x3a42 <WriteNumberFromADC+0x258>
    3a40:	54 c0       	rjmp	.+168    	; 0x3aea <WriteNumberFromADC+0x300>
    3a42:	88 27       	eor	r24, r24
    3a44:	ea 54       	subi	r30, 0x4A	; 74

		case 48:    X_Position = pos3;
		WriteNumber(X_Position,Y_Position, setColour, 0);
    3a46:	ff 4f       	sbci	r31, 0xFF	; 255
    3a48:	8f 4f       	sbci	r24, 0xFF	; 255
    3a4a:	9f c5       	rjmp	.+2878   	; 0x458a <__tablejump2__>
    3a4c:	20 e0       	ldi	r18, 0x00	; 0
    3a4e:	30 e0       	ldi	r19, 0x00	; 0
    3a50:	a5 01       	movw	r20, r10
    3a52:	b6 01       	movw	r22, r12
		break;
		case 49:    X_Position = pos3;
		WriteNumber(X_Position,Y_Position, setColour, 1);
    3a54:	8d ad       	ldd	r24, Y+61	; 0x3d
    3a56:	9e ad       	ldd	r25, Y+62	; 0x3e
    3a58:	c8 dd       	rcall	.-1136   	; 0x35ea <WriteNumber>
    3a5a:	47 c0       	rjmp	.+142    	; 0x3aea <WriteNumberFromADC+0x300>
    3a5c:	21 e0       	ldi	r18, 0x01	; 1
    3a5e:	30 e0       	ldi	r19, 0x00	; 0
    3a60:	a5 01       	movw	r20, r10
		break;
    3a62:	b6 01       	movw	r22, r12
		case 50:    X_Position = pos3;
		WriteNumber(X_Position,Y_Position, setColour, 2);
    3a64:	8d ad       	ldd	r24, Y+61	; 0x3d
    3a66:	9e ad       	ldd	r25, Y+62	; 0x3e
    3a68:	c0 dd       	rcall	.-1152   	; 0x35ea <WriteNumber>
    3a6a:	3f c0       	rjmp	.+126    	; 0x3aea <WriteNumberFromADC+0x300>
    3a6c:	22 e0       	ldi	r18, 0x02	; 2
    3a6e:	30 e0       	ldi	r19, 0x00	; 0
    3a70:	a5 01       	movw	r20, r10
		break;
    3a72:	b6 01       	movw	r22, r12
		case 51:    X_Position = pos3;
		WriteNumber(X_Position,Y_Position, setColour, 3);
    3a74:	8d ad       	ldd	r24, Y+61	; 0x3d
    3a76:	9e ad       	ldd	r25, Y+62	; 0x3e
    3a78:	b8 dd       	rcall	.-1168   	; 0x35ea <WriteNumber>
    3a7a:	37 c0       	rjmp	.+110    	; 0x3aea <WriteNumberFromADC+0x300>
    3a7c:	23 e0       	ldi	r18, 0x03	; 3
    3a7e:	30 e0       	ldi	r19, 0x00	; 0
    3a80:	a5 01       	movw	r20, r10
		break;
    3a82:	b6 01       	movw	r22, r12
		case 52:	X_Position = pos3;
		WriteNumber(X_Position,Y_Position, setColour, 4);
    3a84:	8d ad       	ldd	r24, Y+61	; 0x3d
    3a86:	9e ad       	ldd	r25, Y+62	; 0x3e
    3a88:	b0 dd       	rcall	.-1184   	; 0x35ea <WriteNumber>
    3a8a:	2f c0       	rjmp	.+94     	; 0x3aea <WriteNumberFromADC+0x300>
    3a8c:	24 e0       	ldi	r18, 0x04	; 4
    3a8e:	30 e0       	ldi	r19, 0x00	; 0
    3a90:	a5 01       	movw	r20, r10
		break;
    3a92:	b6 01       	movw	r22, r12
		case 53:    X_Position = pos3;
		WriteNumber(X_Position,Y_Position, setColour, 5);
    3a94:	8d ad       	ldd	r24, Y+61	; 0x3d
    3a96:	9e ad       	ldd	r25, Y+62	; 0x3e
    3a98:	a8 dd       	rcall	.-1200   	; 0x35ea <WriteNumber>
    3a9a:	27 c0       	rjmp	.+78     	; 0x3aea <WriteNumberFromADC+0x300>
    3a9c:	25 e0       	ldi	r18, 0x05	; 5
    3a9e:	30 e0       	ldi	r19, 0x00	; 0
    3aa0:	a5 01       	movw	r20, r10
		break;
    3aa2:	b6 01       	movw	r22, r12
		case 54:    X_Position = pos3;
		WriteNumber(X_Position,Y_Position, setColour, 6);
    3aa4:	8d ad       	ldd	r24, Y+61	; 0x3d
    3aa6:	9e ad       	ldd	r25, Y+62	; 0x3e
    3aa8:	a0 dd       	rcall	.-1216   	; 0x35ea <WriteNumber>
    3aaa:	1f c0       	rjmp	.+62     	; 0x3aea <WriteNumberFromADC+0x300>
    3aac:	26 e0       	ldi	r18, 0x06	; 6
    3aae:	30 e0       	ldi	r19, 0x00	; 0
    3ab0:	a5 01       	movw	r20, r10
    3ab2:	b6 01       	movw	r22, r12
		break;
    3ab4:	8d ad       	ldd	r24, Y+61	; 0x3d
		case 55:    X_Position = pos3;
		WriteNumber(X_Position,Y_Position, setColour, 7);
    3ab6:	9e ad       	ldd	r25, Y+62	; 0x3e
    3ab8:	98 dd       	rcall	.-1232   	; 0x35ea <WriteNumber>
    3aba:	17 c0       	rjmp	.+46     	; 0x3aea <WriteNumberFromADC+0x300>
    3abc:	27 e0       	ldi	r18, 0x07	; 7
    3abe:	30 e0       	ldi	r19, 0x00	; 0
    3ac0:	a5 01       	movw	r20, r10
    3ac2:	b6 01       	movw	r22, r12
		break;
    3ac4:	8d ad       	ldd	r24, Y+61	; 0x3d
		case 56:    X_Position = pos3;
		WriteNumber(X_Position,Y_Position, setColour, 8);
    3ac6:	9e ad       	ldd	r25, Y+62	; 0x3e
    3ac8:	90 dd       	rcall	.-1248   	; 0x35ea <WriteNumber>
    3aca:	0f c0       	rjmp	.+30     	; 0x3aea <WriteNumberFromADC+0x300>
    3acc:	28 e0       	ldi	r18, 0x08	; 8
    3ace:	30 e0       	ldi	r19, 0x00	; 0
    3ad0:	a5 01       	movw	r20, r10
    3ad2:	b6 01       	movw	r22, r12
		break;
    3ad4:	8d ad       	ldd	r24, Y+61	; 0x3d
		case 57:    X_Position = pos3;
		WriteNumber(X_Position,Y_Position, setColour, 9);
    3ad6:	9e ad       	ldd	r25, Y+62	; 0x3e
    3ad8:	88 dd       	rcall	.-1264   	; 0x35ea <WriteNumber>
    3ada:	07 c0       	rjmp	.+14     	; 0x3aea <WriteNumberFromADC+0x300>
    3adc:	29 e0       	ldi	r18, 0x09	; 9
    3ade:	30 e0       	ldi	r19, 0x00	; 0
    3ae0:	a5 01       	movw	r20, r10
    3ae2:	b6 01       	movw	r22, r12
		break;
		default:    break;
	}
	
	switch (numberstring[4])  {  //units position
    3ae4:	8d ad       	ldd	r24, Y+61	; 0x3d
    3ae6:	9e ad       	ldd	r25, Y+62	; 0x3e
    3ae8:	80 dd       	rcall	.-1280   	; 0x35ea <WriteNumber>
    3aea:	e0 91 76 0d 	lds	r30, 0x0D76	; 0x800d76 <numberstring.2016+0x4>
    3aee:	8e 2f       	mov	r24, r30
    3af0:	90 e0       	ldi	r25, 0x00	; 0
    3af2:	fc 01       	movw	r30, r24
    3af4:	f0 97       	sbiw	r30, 0x30	; 48
    3af6:	ea 30       	cpi	r30, 0x0A	; 10
    3af8:	f1 05       	cpc	r31, r1
    3afa:	08 f0       	brcs	.+2      	; 0x3afe <WriteNumberFromADC+0x314>
    3afc:	68 c0       	rjmp	.+208    	; 0x3bce <WriteNumberFromADC+0x3e4>
    3afe:	88 27       	eor	r24, r24

		case 48:    X_Position = pos4;
		WriteNumber(X_Position,Y_Position, setColour, 0);
    3b00:	e0 54       	subi	r30, 0x40	; 64
    3b02:	ff 4f       	sbci	r31, 0xFF	; 255
    3b04:	8f 4f       	sbci	r24, 0xFF	; 255
    3b06:	41 c5       	rjmp	.+2690   	; 0x458a <__tablejump2__>
    3b08:	20 e0       	ldi	r18, 0x00	; 0
    3b0a:	30 e0       	ldi	r19, 0x00	; 0
    3b0c:	a5 01       	movw	r20, r10
    3b0e:	b6 01       	movw	r22, r12
    3b10:	21 96       	adiw	r28, 0x01	; 1
		break;
    3b12:	8e ad       	ldd	r24, Y+62	; 0x3e
		case 49:    X_Position = pos4;
		WriteNumber(X_Position,Y_Position, setColour, 1);
    3b14:	9f ad       	ldd	r25, Y+63	; 0x3f
    3b16:	21 97       	sbiw	r28, 0x01	; 1
    3b18:	68 dd       	rcall	.-1328   	; 0x35ea <WriteNumber>
    3b1a:	59 c0       	rjmp	.+178    	; 0x3bce <WriteNumberFromADC+0x3e4>
    3b1c:	21 e0       	ldi	r18, 0x01	; 1
    3b1e:	30 e0       	ldi	r19, 0x00	; 0
    3b20:	a5 01       	movw	r20, r10
    3b22:	b6 01       	movw	r22, r12
    3b24:	21 96       	adiw	r28, 0x01	; 1
		break;
    3b26:	8e ad       	ldd	r24, Y+62	; 0x3e
		case 50:    X_Position = pos4;
		WriteNumber(X_Position,Y_Position, setColour, 2);
    3b28:	9f ad       	ldd	r25, Y+63	; 0x3f
    3b2a:	21 97       	sbiw	r28, 0x01	; 1
    3b2c:	5e dd       	rcall	.-1348   	; 0x35ea <WriteNumber>
    3b2e:	4f c0       	rjmp	.+158    	; 0x3bce <WriteNumberFromADC+0x3e4>
    3b30:	22 e0       	ldi	r18, 0x02	; 2
    3b32:	30 e0       	ldi	r19, 0x00	; 0
    3b34:	a5 01       	movw	r20, r10
    3b36:	b6 01       	movw	r22, r12
    3b38:	21 96       	adiw	r28, 0x01	; 1
		break;
    3b3a:	8e ad       	ldd	r24, Y+62	; 0x3e
		case 51:    X_Position = pos4;
		WriteNumber(X_Position,Y_Position, setColour, 3);
    3b3c:	9f ad       	ldd	r25, Y+63	; 0x3f
    3b3e:	21 97       	sbiw	r28, 0x01	; 1
    3b40:	54 dd       	rcall	.-1368   	; 0x35ea <WriteNumber>
    3b42:	45 c0       	rjmp	.+138    	; 0x3bce <WriteNumberFromADC+0x3e4>
    3b44:	23 e0       	ldi	r18, 0x03	; 3
    3b46:	30 e0       	ldi	r19, 0x00	; 0
    3b48:	a5 01       	movw	r20, r10
    3b4a:	b6 01       	movw	r22, r12
    3b4c:	21 96       	adiw	r28, 0x01	; 1
		break;
    3b4e:	8e ad       	ldd	r24, Y+62	; 0x3e
		case 52:	X_Position = pos4;
		WriteNumber(X_Position,Y_Position, setColour, 4);
    3b50:	9f ad       	ldd	r25, Y+63	; 0x3f
    3b52:	21 97       	sbiw	r28, 0x01	; 1
    3b54:	4a dd       	rcall	.-1388   	; 0x35ea <WriteNumber>
    3b56:	3b c0       	rjmp	.+118    	; 0x3bce <WriteNumberFromADC+0x3e4>
    3b58:	24 e0       	ldi	r18, 0x04	; 4
    3b5a:	30 e0       	ldi	r19, 0x00	; 0
    3b5c:	a5 01       	movw	r20, r10
    3b5e:	b6 01       	movw	r22, r12
    3b60:	21 96       	adiw	r28, 0x01	; 1
		break;
    3b62:	8e ad       	ldd	r24, Y+62	; 0x3e
		case 53:    X_Position = pos4;
		WriteNumber(X_Position,Y_Position, setColour, 5);
    3b64:	9f ad       	ldd	r25, Y+63	; 0x3f
    3b66:	21 97       	sbiw	r28, 0x01	; 1
    3b68:	40 dd       	rcall	.-1408   	; 0x35ea <WriteNumber>
    3b6a:	31 c0       	rjmp	.+98     	; 0x3bce <WriteNumberFromADC+0x3e4>
    3b6c:	25 e0       	ldi	r18, 0x05	; 5
    3b6e:	30 e0       	ldi	r19, 0x00	; 0
    3b70:	a5 01       	movw	r20, r10
    3b72:	b6 01       	movw	r22, r12
		break;
    3b74:	21 96       	adiw	r28, 0x01	; 1
		case 54:    X_Position = pos4;
		WriteNumber(X_Position,Y_Position, setColour, 6);
    3b76:	8e ad       	ldd	r24, Y+62	; 0x3e
    3b78:	9f ad       	ldd	r25, Y+63	; 0x3f
    3b7a:	21 97       	sbiw	r28, 0x01	; 1
    3b7c:	36 dd       	rcall	.-1428   	; 0x35ea <WriteNumber>
    3b7e:	27 c0       	rjmp	.+78     	; 0x3bce <WriteNumberFromADC+0x3e4>
    3b80:	26 e0       	ldi	r18, 0x06	; 6
    3b82:	30 e0       	ldi	r19, 0x00	; 0
    3b84:	a5 01       	movw	r20, r10
    3b86:	b6 01       	movw	r22, r12
		break;
    3b88:	21 96       	adiw	r28, 0x01	; 1
		case 55:    X_Position = pos4;
		WriteNumber(X_Position,Y_Position, setColour, 7);
    3b8a:	8e ad       	ldd	r24, Y+62	; 0x3e
    3b8c:	9f ad       	ldd	r25, Y+63	; 0x3f
    3b8e:	21 97       	sbiw	r28, 0x01	; 1
    3b90:	2c dd       	rcall	.-1448   	; 0x35ea <WriteNumber>
    3b92:	1d c0       	rjmp	.+58     	; 0x3bce <WriteNumberFromADC+0x3e4>
    3b94:	27 e0       	ldi	r18, 0x07	; 7
    3b96:	30 e0       	ldi	r19, 0x00	; 0
    3b98:	a5 01       	movw	r20, r10
    3b9a:	b6 01       	movw	r22, r12
    3b9c:	21 96       	adiw	r28, 0x01	; 1
		break;
    3b9e:	8e ad       	ldd	r24, Y+62	; 0x3e
		case 56:    X_Position = pos4;
		WriteNumber(X_Position,Y_Position, setColour, 8);
    3ba0:	9f ad       	ldd	r25, Y+63	; 0x3f
    3ba2:	21 97       	sbiw	r28, 0x01	; 1
    3ba4:	22 dd       	rcall	.-1468   	; 0x35ea <WriteNumber>
    3ba6:	13 c0       	rjmp	.+38     	; 0x3bce <WriteNumberFromADC+0x3e4>
    3ba8:	28 e0       	ldi	r18, 0x08	; 8
    3baa:	30 e0       	ldi	r19, 0x00	; 0
    3bac:	a5 01       	movw	r20, r10
    3bae:	b6 01       	movw	r22, r12
    3bb0:	21 96       	adiw	r28, 0x01	; 1
    3bb2:	8e ad       	ldd	r24, Y+62	; 0x3e
		break;
    3bb4:	9f ad       	ldd	r25, Y+63	; 0x3f
		case 57:    X_Position = pos4;
		WriteNumber(X_Position,Y_Position, setColour, 9);
    3bb6:	21 97       	sbiw	r28, 0x01	; 1
    3bb8:	18 dd       	rcall	.-1488   	; 0x35ea <WriteNumber>
    3bba:	09 c0       	rjmp	.+18     	; 0x3bce <WriteNumberFromADC+0x3e4>
    3bbc:	29 e0       	ldi	r18, 0x09	; 9
    3bbe:	30 e0       	ldi	r19, 0x00	; 0
    3bc0:	a5 01       	movw	r20, r10
    3bc2:	b6 01       	movw	r22, r12
    3bc4:	21 96       	adiw	r28, 0x01	; 1
    3bc6:	8e ad       	ldd	r24, Y+62	; 0x3e
    3bc8:	9f ad       	ldd	r25, Y+63	; 0x3f
		default:    break;
	}
	
		//BAC AFTER
		X_Position = pos5;
		WriteNumber(X_Position , Y_Position, setColour, 13 );
    3bca:	21 97       	sbiw	r28, 0x01	; 1
    3bcc:	0e dd       	rcall	.-1508   	; 0x35ea <WriteNumber>
    3bce:	2d e0       	ldi	r18, 0x0D	; 13
    3bd0:	30 e0       	ldi	r19, 0x00	; 0
    3bd2:	a5 01       	movw	r20, r10
    3bd4:	b6 01       	movw	r22, r12
    3bd6:	c1 01       	movw	r24, r2
		X_Position = pos6;
		WriteNumber(X_Position , Y_Position, setColour, 14 );
    3bd8:	08 dd       	rcall	.-1520   	; 0x35ea <WriteNumber>
    3bda:	2e e0       	ldi	r18, 0x0E	; 14
    3bdc:	30 e0       	ldi	r19, 0x00	; 0
    3bde:	a5 01       	movw	r20, r10
    3be0:	b6 01       	movw	r22, r12
    3be2:	c2 01       	movw	r24, r4
    3be4:	02 dd       	rcall	.-1532   	; 0x35ea <WriteNumber>
		X_Position = pos7;
		WriteNumber(X_Position , Y_Position, setColour, 15 );
    3be6:	2f e0       	ldi	r18, 0x0F	; 15
    3be8:	30 e0       	ldi	r19, 0x00	; 0
    3bea:	a5 01       	movw	r20, r10
    3bec:	b6 01       	movw	r22, r12
    3bee:	c3 01       	movw	r24, r6
    3bf0:	fc dc       	rcall	.-1544   	; 0x35ea <WriteNumber>
    3bf2:	c0 5c       	subi	r28, 0xC0	; 192
}
    3bf4:	df 4f       	sbci	r29, 0xFF	; 255
    3bf6:	0f b6       	in	r0, 0x3f	; 63
    3bf8:	f8 94       	cli
    3bfa:	de bf       	out	0x3e, r29	; 62
    3bfc:	0f be       	out	0x3f, r0	; 63
    3bfe:	cd bf       	out	0x3d, r28	; 61
    3c00:	df 91       	pop	r29
    3c02:	cf 91       	pop	r28
    3c04:	1f 91       	pop	r17
    3c06:	0f 91       	pop	r16
    3c08:	ff 90       	pop	r15
    3c0a:	ef 90       	pop	r14
    3c0c:	df 90       	pop	r13
    3c0e:	cf 90       	pop	r12
    3c10:	bf 90       	pop	r11
    3c12:	af 90       	pop	r10
    3c14:	9f 90       	pop	r9
    3c16:	8f 90       	pop	r8
    3c18:	7f 90       	pop	r7
    3c1a:	6f 90       	pop	r6
    3c1c:	5f 90       	pop	r5
    3c1e:	4f 90       	pop	r4
    3c20:	3f 90       	pop	r3
    3c22:	2f 90       	pop	r2
    3c24:	08 95       	ret

00003c26 <main>:

FATFS FatFs;		/* FatFs work area needed for each volume */
FIL Fil;			/* File object needed for each open file */

int main(void)
{
    3c26:	cf 93       	push	r28
    3c28:	df 93       	push	r29
    3c2a:	cd b7       	in	r28, 0x3d	; 61
    3c2c:	de b7       	in	r29, 0x3e	; 62
    3c2e:	cc 5b       	subi	r28, 0xBC	; 188
    3c30:	d1 09       	sbc	r29, r1
    3c32:	0f b6       	in	r0, 0x3f	; 63
    3c34:	f8 94       	cli
    3c36:	de bf       	out	0x3e, r29	; 62
    3c38:	0f be       	out	0x3f, r0	; 63
    3c3a:	cd bf       	out	0x3d, r28	; 61
	DDRB = 0; // Set Digital Pin 13 to input (Actually Pin 8-13 are all inputs now)
    3c3c:	14 b8       	out	0x04, r1	; 4
	PORTB = 0;
    3c3e:	15 b8       	out	0x05, r1	; 5
	
	// FOR DEBUGGING;
	char debugMsg[50];
	char debugString[20];
	
	InitUART(UART0, 9600, 8,'A');
    3c40:	01 e4       	ldi	r16, 0x41	; 65
    3c42:	28 e0       	ldi	r18, 0x08	; 8
    3c44:	40 e8       	ldi	r20, 0x80	; 128
    3c46:	55 e2       	ldi	r21, 0x25	; 37
    3c48:	60 e0       	ldi	r22, 0x00	; 0
    3c4a:	70 e0       	ldi	r23, 0x00	; 0
    3c4c:	80 ec       	ldi	r24, 0xC0	; 192
    3c4e:	90 e0       	ldi	r25, 0x00	; 0
    3c50:	a7 d8       	rcall	.-3762   	; 0x2da0 <InitUART>
	SendString(UART0, "UART Initialized\r\n");
    3c52:	66 e8       	ldi	r22, 0x86	; 134
    3c54:	7c e0       	ldi	r23, 0x0C	; 12
    3c56:	80 ec       	ldi	r24, 0xC0	; 192
    3c58:	90 e0       	ldi	r25, 0x00	; 0
    3c5a:	fc d8       	rcall	.-3592   	; 0x2e54 <SendString>
	
	breathalyzerInit();
    3c5c:	0e 94 b3 01 	call	0x366	; 0x366 <breathalyzerInit>
	//Breathalyzer BA_Inst;
	float BAC = 0;
	SendString(UART0, "Breathalyzer Initialized\r\n");
    3c60:	69 e9       	ldi	r22, 0x99	; 153
    3c62:	7c e0       	ldi	r23, 0x0C	; 12
    3c64:	80 ec       	ldi	r24, 0xC0	; 192
    3c66:	90 e0       	ldi	r25, 0x00	; 0
	
	// Initialize the display
	DisplayInit();
    3c68:	f5 d8       	rcall	.-3606   	; 0x2e54 <SendString>
    3c6a:	31 d9       	rcall	.-3486   	; 0x2ece <DisplayInit>
	SendString(UART0, "TFT Display Initialized\r\n");
    3c6c:	64 eb       	ldi	r22, 0xB4	; 180
    3c6e:	7c e0       	ldi	r23, 0x0C	; 12
    3c70:	80 ec       	ldi	r24, 0xC0	; 192
    3c72:	90 e0       	ldi	r25, 0x00	; 0
    3c74:	ef d8       	rcall	.-3618   	; 0x2e54 <SendString>
	ClearScreen(Black);
    3c76:	80 e0       	ldi	r24, 0x00	; 0
    3c78:	97 d9       	rcall	.-3282   	; 0x2fa8 <ClearScreen>
	
	// Setup of SD card
	UINT bw;
	FRESULT fr;
	f_mount(&FatFs, "", 0);											/* Give a work area to the default drive */
    3c7a:	40 e0       	ldi	r20, 0x00	; 0
    3c7c:	64 ef       	ldi	r22, 0xF4	; 244
    3c7e:	7c e0       	ldi	r23, 0x0C	; 12
    3c80:	89 ea       	ldi	r24, 0xA9	; 169
    3c82:	9d e0       	ldi	r25, 0x0D	; 13
    3c84:	0e 94 d9 10 	call	0x21b2	; 0x21b2 <f_mount>
	
	fr = f_open(&Fil, "Datalog.txt", FA_WRITE | FA_CREATE_ALWAYS);	// Change to FA_CREATE_NEW to only create a new one when no file exists
    3c88:	4a e0       	ldi	r20, 0x0A	; 10
    3c8a:	6e ec       	ldi	r22, 0xCE	; 206
    3c8c:	7c e0       	ldi	r23, 0x0C	; 12
    3c8e:	88 ed       	ldi	r24, 0xD8	; 216
    3c90:	9f e0       	ldi	r25, 0x0F	; 15
    3c92:	0e 94 1d 11 	call	0x223a	; 0x223a <f_open>
	
	char msg[50];
	int btw = 0;
	btw = sprintf(msg, "Breathalyzer Datalogger!\r\n");
    3c96:	9b e1       	ldi	r25, 0x1B	; 27
    3c98:	ea ed       	ldi	r30, 0xDA	; 218
    3c9a:	fc e0       	ldi	r31, 0x0C	; 12
    3c9c:	de 01       	movw	r26, r28
    3c9e:	a7 5b       	subi	r26, 0xB7	; 183
    3ca0:	bf 4f       	sbci	r27, 0xFF	; 255
    3ca2:	01 90       	ld	r0, Z+
    3ca4:	0d 92       	st	X+, r0
    3ca6:	9a 95       	dec	r25
    3ca8:	e1 f7       	brne	.-8      	; 0x3ca2 <main+0x7c>
	
	if (fr == FR_OK) {
    3caa:	81 11       	cpse	r24, r1
    3cac:	1d c0       	rjmp	.+58     	; 0x3ce8 <main+0xc2>
		f_write(&Fil, msg, btw, &bw);
    3cae:	9e 01       	movw	r18, r28
    3cb0:	29 5b       	subi	r18, 0xB9	; 185
    3cb2:	3f 4f       	sbci	r19, 0xFF	; 255
    3cb4:	4a e1       	ldi	r20, 0x1A	; 26
    3cb6:	50 e0       	ldi	r21, 0x00	; 0
    3cb8:	be 01       	movw	r22, r28
    3cba:	67 5b       	subi	r22, 0xB7	; 183
    3cbc:	7f 4f       	sbci	r23, 0xFF	; 255
    3cbe:	88 ed       	ldi	r24, 0xD8	; 216
    3cc0:	9f e0       	ldi	r25, 0x0F	; 15
    3cc2:	0e 94 f1 12 	call	0x25e2	; 0x25e2 <f_write>
		fr = f_close(&Fil);
    3cc6:	88 ed       	ldi	r24, 0xD8	; 216
    3cc8:	9f e0       	ldi	r25, 0x0F	; 15
    3cca:	0e 94 38 15 	call	0x2a70	; 0x2a70 <f_close>
		if (fr == FR_OK && bw == btw) {
    3cce:	81 11       	cpse	r24, r1
    3cd0:	0b c0       	rjmp	.+22     	; 0x3ce8 <main+0xc2>
    3cd2:	29 96       	adiw	r28, 0x09	; 9
    3cd4:	8e ad       	ldd	r24, Y+62	; 0x3e
    3cd6:	9f ad       	ldd	r25, Y+63	; 0x3f
    3cd8:	29 97       	sbiw	r28, 0x09	; 9
    3cda:	4a 97       	sbiw	r24, 0x1a	; 26
			SendString(UART0,"Datalog.txt er oprettet!\r\n");
    3cdc:	29 f4       	brne	.+10     	; 0x3ce8 <main+0xc2>
    3cde:	65 ef       	ldi	r22, 0xF5	; 245
    3ce0:	7c e0       	ldi	r23, 0x0C	; 12
    3ce2:	80 ec       	ldi	r24, 0xC0	; 192
    3ce4:	90 e0       	ldi	r25, 0x00	; 0
    3ce6:	b6 d8       	rcall	.-3732   	; 0x2e54 <SendString>
		DisplayOff();
		_delay_ms(1000);*/
		_delay_ms(500);
	
		// === FOR DEBUGGING === //
		memset(debugMsg,'0', strlen(debugMsg));
    3ce8:	ce 01       	movw	r24, r28
    3cea:	01 96       	adiw	r24, 0x01	; 1
    3cec:	6c 01       	movw	r12, r24
		memset(debugString,'0', strlen(debugString));
    3cee:	7e 01       	movw	r14, r28
    3cf0:	93 e3       	ldi	r25, 0x33	; 51
    3cf2:	e9 0e       	add	r14, r25
    3cf4:	f1 1c       	adc	r15, r1
	
		dtostrf(BAC, 3, 3, debugString);
		sprintf(debugMsg, "BAC Level is %6s\r\n", debugString);
    3cf6:	0f 2e       	mov	r0, r31
    3cf8:	f0 e4       	ldi	r31, 0x40	; 64
    3cfa:	af 2e       	mov	r10, r31
    3cfc:	fd e0       	ldi	r31, 0x0D	; 13
    3cfe:	bf 2e       	mov	r11, r31
    3d00:	f0 2d       	mov	r31, r0
		DisplayOff();
		_delay_ms(1000);*/
		_delay_ms(500);
	
		// === FOR DEBUGGING === //
		memset(debugMsg,'0', strlen(debugMsg));
    3d02:	2c 2c       	mov	r2, r12
    3d04:	3d 2c       	mov	r3, r13
		memset(debugString,'0', strlen(debugString));
    3d06:	8e 2c       	mov	r8, r14
    3d08:	9f 2c       	mov	r9, r15
			char stringBAC[10];													// String used to store value of converted float
			char msg[50];														// String to store Datalogging msg.
			int btw;															// Size of string msg.
		
			//dtostrf(BA_Inst._BAC, 3, 3, stringBAC);							// Convert float to string
			dtostrf(BAC, 3, 3, stringBAC);
    3d0a:	ce 01       	movw	r24, r28
    3d0c:	83 55       	subi	r24, 0x53	; 83
    3d0e:	9f 4f       	sbci	r25, 0xFF	; 255
    3d10:	c9 54       	subi	r28, 0x49	; 73
    3d12:	df 4f       	sbci	r29, 0xFF	; 255
    3d14:	99 83       	std	Y+1, r25	; 0x01
    3d16:	88 83       	st	Y, r24
    3d18:	c7 5b       	subi	r28, 0xB7	; 183
    3d1a:	d0 40       	sbci	r29, 0x00	; 0
			btw = sprintf(msg, "Your BAC Level is %6s %%\n", stringBAC);
    3d1c:	c2 97       	sbiw	r24, 0x32	; 50
    3d1e:	c7 54       	subi	r28, 0x47	; 71
    3d20:	df 4f       	sbci	r29, 0xFF	; 255
    3d22:	99 83       	std	Y+1, r25	; 0x01
    3d24:	88 83       	st	Y, r24
    3d26:	c9 5b       	subi	r28, 0xB9	; 185
	}
	float x = 1;
  while(1) // Check if Pin 13 (= 7th Pin in PINB) is set
  {
	
	if((PINB & 0b10000000) != 0){ // Check if Pin 13 (= 7th Pin in PINB) is set
    3d28:	d0 40       	sbci	r29, 0x00	; 0
    3d2a:	1f 9b       	sbis	0x03, 7	; 3
		
		

		SendString(UART0, "PINB7 Button Pressed\r\n");
    3d2c:	fe cf       	rjmp	.-4      	; 0x3d2a <main+0x104>
    3d2e:	60 e1       	ldi	r22, 0x10	; 16
    3d30:	7d e0       	ldi	r23, 0x0D	; 13
    3d32:	80 ec       	ldi	r24, 0xC0	; 192
    3d34:	90 e0       	ldi	r25, 0x00	; 0
		SendString(UART0, "BLOW INTO THE SENSOR!!!!");
    3d36:	8e d8       	rcall	.-3812   	; 0x2e54 <SendString>
    3d38:	67 e2       	ldi	r22, 0x27	; 39
    3d3a:	7d e0       	ldi	r23, 0x0D	; 13
    3d3c:	80 ec       	ldi	r24, 0xC0	; 192
    3d3e:	90 e0       	ldi	r25, 0x00	; 0
    3d40:	89 d8       	rcall	.-3822   	; 0x2e54 <SendString>
		//checkR0Value();														// Jsed first time the MQ-3 Sensor started up to get R0 value
		//BacLevel(&BA_Inst);													// Get the current BAC Level
	    BAC = BacLevel();
    3d42:	0e 94 b5 01 	call	0x36a	; 0x36a <BacLevel>
    3d46:	2b 01       	movw	r4, r22
    3d48:	3c 01       	movw	r6, r24
	#else
		//round up by default
		__ticks_dc = (uint32_t)(ceil(fabs(__tmp)));
	#endif

	__builtin_avr_delay_cycles(__ticks_dc);
    3d4a:	9f ef       	ldi	r25, 0xFF	; 255
    3d4c:	29 e6       	ldi	r18, 0x69	; 105
    3d4e:	88 e1       	ldi	r24, 0x18	; 24
    3d50:	91 50       	subi	r25, 0x01	; 1
    3d52:	20 40       	sbci	r18, 0x00	; 0
    3d54:	80 40       	sbci	r24, 0x00	; 0
    3d56:	e1 f7       	brne	.-8      	; 0x3d50 <main+0x12a>
    3d58:	00 c0       	rjmp	.+0      	; 0x3d5a <main+0x134>
    3d5a:	00 00       	nop
		DisplayOff();
		_delay_ms(1000);*/
		_delay_ms(500);
	
		// === FOR DEBUGGING === //
		memset(debugMsg,'0', strlen(debugMsg));
    3d5c:	f6 01       	movw	r30, r12
    3d5e:	01 90       	ld	r0, Z+
    3d60:	00 20       	and	r0, r0
    3d62:	e9 f7       	brne	.-6      	; 0x3d5e <main+0x138>
    3d64:	31 97       	sbiw	r30, 0x01	; 1
    3d66:	af 01       	movw	r20, r30
    3d68:	4c 19       	sub	r20, r12
    3d6a:	5d 09       	sbc	r21, r13
    3d6c:	60 e3       	ldi	r22, 0x30	; 48
    3d6e:	70 e0       	ldi	r23, 0x00	; 0
    3d70:	82 2d       	mov	r24, r2
    3d72:	93 2d       	mov	r25, r3
    3d74:	4a d4       	rcall	.+2196   	; 0x460a <memset>
		memset(debugString,'0', strlen(debugString));
    3d76:	f7 01       	movw	r30, r14
    3d78:	01 90       	ld	r0, Z+
    3d7a:	00 20       	and	r0, r0
    3d7c:	e9 f7       	brne	.-6      	; 0x3d78 <main+0x152>
    3d7e:	31 97       	sbiw	r30, 0x01	; 1
    3d80:	af 01       	movw	r20, r30
    3d82:	4e 19       	sub	r20, r14
    3d84:	5f 09       	sbc	r21, r15
    3d86:	60 e3       	ldi	r22, 0x30	; 48
    3d88:	70 e0       	ldi	r23, 0x00	; 0
    3d8a:	88 2d       	mov	r24, r8
    3d8c:	99 2d       	mov	r25, r9
    3d8e:	3d d4       	rcall	.+2170   	; 0x460a <memset>
	
		dtostrf(BAC, 3, 3, debugString);
    3d90:	08 2d       	mov	r16, r8
    3d92:	19 2d       	mov	r17, r9
    3d94:	23 e0       	ldi	r18, 0x03	; 3
    3d96:	43 e0       	ldi	r20, 0x03	; 3
    3d98:	c3 01       	movw	r24, r6
    3d9a:	b2 01       	movw	r22, r4
    3d9c:	17 d4       	rcall	.+2094   	; 0x45cc <dtostrf>
		sprintf(debugMsg, "BAC Level is %6s\r\n", debugString);
    3d9e:	ff 92       	push	r15
    3da0:	ef 92       	push	r14
    3da2:	bf 92       	push	r11
    3da4:	af 92       	push	r10
    3da6:	df 92       	push	r13
    3da8:	cf 92       	push	r12
    3daa:	36 d4       	rcall	.+2156   	; 0x4618 <sprintf>
		SendString(UART0, debugMsg);
    3dac:	62 2d       	mov	r22, r2
    3dae:	73 2d       	mov	r23, r3
    3db0:	80 ec       	ldi	r24, 0xC0	; 192
    3db2:	90 e0       	ldi	r25, 0x00	; 0
    3db4:	4f d8       	rcall	.-3938   	; 0x2e54 <SendString>
    3db6:	42 e3       	ldi	r20, 0x32	; 50
		// ===================== //
	
		fr = f_open(&Fil, "Datalog.txt", FA_WRITE | FA_OPEN_APPEND);			// Open the existing Datalog file
    3db8:	6e ec       	ldi	r22, 0xCE	; 206
    3dba:	7c e0       	ldi	r23, 0x0C	; 12
    3dbc:	88 ed       	ldi	r24, 0xD8	; 216
    3dbe:	9f e0       	ldi	r25, 0x0F	; 15
    3dc0:	0e 94 1d 11 	call	0x223a	; 0x223a <f_open>
    3dc4:	0f 90       	pop	r0
		if (fr == FR_OK)
    3dc6:	0f 90       	pop	r0
    3dc8:	0f 90       	pop	r0
    3dca:	0f 90       	pop	r0
    3dcc:	0f 90       	pop	r0
    3dce:	0f 90       	pop	r0
    3dd0:	81 11       	cpse	r24, r1
    3dd2:	ab cf       	rjmp	.-170    	; 0x3d2a <main+0x104>
    3dd4:	8e 01       	movw	r16, r28
			char stringBAC[10];													// String used to store value of converted float
			char msg[50];														// String to store Datalogging msg.
			int btw;															// Size of string msg.
		
			//dtostrf(BA_Inst._BAC, 3, 3, stringBAC);							// Convert float to string
			dtostrf(BAC, 3, 3, stringBAC);
    3dd6:	03 55       	subi	r16, 0x53	; 83
    3dd8:	1f 4f       	sbci	r17, 0xFF	; 255
    3dda:	23 e0       	ldi	r18, 0x03	; 3
    3ddc:	43 e0       	ldi	r20, 0x03	; 3
    3dde:	c3 01       	movw	r24, r6
    3de0:	b2 01       	movw	r22, r4
    3de2:	f4 d3       	rcall	.+2024   	; 0x45cc <dtostrf>
    3de4:	c8 54       	subi	r28, 0x48	; 72
			btw = sprintf(msg, "Your BAC Level is %6s %%\n", stringBAC);
    3de6:	df 4f       	sbci	r29, 0xFF	; 255
    3de8:	98 81       	ld	r25, Y
    3dea:	c8 5b       	subi	r28, 0xB8	; 184
    3dec:	d0 40       	sbci	r29, 0x00	; 0
    3dee:	9f 93       	push	r25
    3df0:	c9 54       	subi	r28, 0x49	; 73
    3df2:	df 4f       	sbci	r29, 0xFF	; 255
    3df4:	28 81       	ld	r18, Y
    3df6:	c7 5b       	subi	r28, 0xB7	; 183
    3df8:	d0 40       	sbci	r29, 0x00	; 0
    3dfa:	2f 93       	push	r18
    3dfc:	83 e5       	ldi	r24, 0x53	; 83
    3dfe:	9d e0       	ldi	r25, 0x0D	; 13
    3e00:	9f 93       	push	r25
    3e02:	8f 93       	push	r24
    3e04:	c6 54       	subi	r28, 0x46	; 70
    3e06:	df 4f       	sbci	r29, 0xFF	; 255
    3e08:	88 81       	ld	r24, Y
    3e0a:	ca 5b       	subi	r28, 0xBA	; 186
    3e0c:	d0 40       	sbci	r29, 0x00	; 0
    3e0e:	8f 93       	push	r24
    3e10:	c7 54       	subi	r28, 0x47	; 71
    3e12:	df 4f       	sbci	r29, 0xFF	; 255
    3e14:	98 81       	ld	r25, Y
    3e16:	c9 5b       	subi	r28, 0xB9	; 185
    3e18:	d0 40       	sbci	r29, 0x00	; 0
    3e1a:	9f 93       	push	r25
    3e1c:	fd d3       	rcall	.+2042   	; 0x4618 <sprintf>
    3e1e:	c5 54       	subi	r28, 0x45	; 69
    3e20:	df 4f       	sbci	r29, 0xFF	; 255
    3e22:	88 83       	st	Y, r24
    3e24:	cb 5b       	subi	r28, 0xBB	; 187
    3e26:	d0 40       	sbci	r29, 0x00	; 0
    3e28:	c4 54       	subi	r28, 0x44	; 68
    3e2a:	df 4f       	sbci	r29, 0xFF	; 255
    3e2c:	98 83       	st	Y, r25
    3e2e:	cc 5b       	subi	r28, 0xBC	; 188
    3e30:	d0 40       	sbci	r29, 0x00	; 0
    3e32:	93 01       	movw	r18, r6
			WriteNumberFromADC(100, 140, White, BAC);
    3e34:	82 01       	movw	r16, r4
    3e36:	49 e0       	ldi	r20, 0x09	; 9
    3e38:	50 e0       	ldi	r21, 0x00	; 0
    3e3a:	6c e8       	ldi	r22, 0x8C	; 140
    3e3c:	70 e0       	ldi	r23, 0x00	; 0
    3e3e:	84 e6       	ldi	r24, 0x64	; 100
    3e40:	90 e0       	ldi	r25, 0x00	; 0
    3e42:	d3 dc       	rcall	.-1626   	; 0x37ea <WriteNumberFromADC>
    3e44:	c5 54       	subi	r28, 0x45	; 69
			f_write(&Fil, msg, btw, &bw);										// Writes the msg onto the SD Card
    3e46:	df 4f       	sbci	r29, 0xFF	; 255
    3e48:	68 80       	ld	r6, Y
    3e4a:	cb 5b       	subi	r28, 0xBB	; 187
    3e4c:	d0 40       	sbci	r29, 0x00	; 0
    3e4e:	c4 54       	subi	r28, 0x44	; 68
    3e50:	df 4f       	sbci	r29, 0xFF	; 255
    3e52:	78 80       	ld	r7, Y
    3e54:	cc 5b       	subi	r28, 0xBC	; 188
    3e56:	d0 40       	sbci	r29, 0x00	; 0
    3e58:	9e 01       	movw	r18, r28
    3e5a:	29 5b       	subi	r18, 0xB9	; 185
    3e5c:	3f 4f       	sbci	r19, 0xFF	; 255
    3e5e:	46 2d       	mov	r20, r6
    3e60:	57 2d       	mov	r21, r7
    3e62:	be 01       	movw	r22, r28
    3e64:	65 58       	subi	r22, 0x85	; 133
    3e66:	7f 4f       	sbci	r23, 0xFF	; 255
    3e68:	88 ed       	ldi	r24, 0xD8	; 216
    3e6a:	9f e0       	ldi	r25, 0x0F	; 15
    3e6c:	0e 94 f1 12 	call	0x25e2	; 0x25e2 <f_write>
    3e70:	88 ed       	ldi	r24, 0xD8	; 216
		
			fr = f_close(&Fil);													// Closes the opened file
    3e72:	9f e0       	ldi	r25, 0x0F	; 15
    3e74:	0e 94 38 15 	call	0x2a70	; 0x2a70 <f_close>
    3e78:	0f 90       	pop	r0
		
			if (fr == FR_OK && bw == btw)										// If it was successful, send a UART message.
    3e7a:	0f 90       	pop	r0
    3e7c:	0f 90       	pop	r0
    3e7e:	0f 90       	pop	r0
    3e80:	0f 90       	pop	r0
    3e82:	0f 90       	pop	r0
    3e84:	81 11       	cpse	r24, r1
    3e86:	51 cf       	rjmp	.-350    	; 0x3d2a <main+0x104>
    3e88:	29 96       	adiw	r28, 0x09	; 9
    3e8a:	8e ad       	ldd	r24, Y+62	; 0x3e
    3e8c:	9f ad       	ldd	r25, Y+63	; 0x3f
    3e8e:	29 97       	sbiw	r28, 0x09	; 9
    3e90:	68 16       	cp	r6, r24
    3e92:	79 06       	cpc	r7, r25
    3e94:	09 f0       	breq	.+2      	; 0x3e98 <main+0x272>
    3e96:	49 cf       	rjmp	.-366    	; 0x3d2a <main+0x104>
    3e98:	be 01       	movw	r22, r28
			{
				SendString(UART0, msg);
    3e9a:	65 58       	subi	r22, 0x85	; 133
    3e9c:	7f 4f       	sbci	r23, 0xFF	; 255
    3e9e:	80 ec       	ldi	r24, 0xC0	; 192
    3ea0:	90 e0       	ldi	r25, 0x00	; 0
    3ea2:	0e 94 2a 17 	call	0x2e54	; 0x2e54 <SendString>
    3ea6:	41 cf       	rjmp	.-382    	; 0x3d2a <main+0x104>

00003ea8 <__subsf3>:
    3ea8:	50 58       	subi	r21, 0x80	; 128

00003eaa <__addsf3>:
    3eaa:	bb 27       	eor	r27, r27
    3eac:	aa 27       	eor	r26, r26
    3eae:	0e d0       	rcall	.+28     	; 0x3ecc <__addsf3x>
    3eb0:	48 c1       	rjmp	.+656    	; 0x4142 <__fp_round>
    3eb2:	39 d1       	rcall	.+626    	; 0x4126 <__fp_pscA>
    3eb4:	30 f0       	brcs	.+12     	; 0x3ec2 <__addsf3+0x18>
    3eb6:	3e d1       	rcall	.+636    	; 0x4134 <__fp_pscB>
    3eb8:	20 f0       	brcs	.+8      	; 0x3ec2 <__addsf3+0x18>
    3eba:	31 f4       	brne	.+12     	; 0x3ec8 <__addsf3+0x1e>
    3ebc:	9f 3f       	cpi	r25, 0xFF	; 255
    3ebe:	11 f4       	brne	.+4      	; 0x3ec4 <__addsf3+0x1a>
    3ec0:	1e f4       	brtc	.+6      	; 0x3ec8 <__addsf3+0x1e>
    3ec2:	2e c1       	rjmp	.+604    	; 0x4120 <__fp_nan>
    3ec4:	0e f4       	brtc	.+2      	; 0x3ec8 <__addsf3+0x1e>
    3ec6:	e0 95       	com	r30
    3ec8:	e7 fb       	bst	r30, 7
    3eca:	24 c1       	rjmp	.+584    	; 0x4114 <__fp_inf>

00003ecc <__addsf3x>:
    3ecc:	e9 2f       	mov	r30, r25
    3ece:	4a d1       	rcall	.+660    	; 0x4164 <__fp_split3>
    3ed0:	80 f3       	brcs	.-32     	; 0x3eb2 <__addsf3+0x8>
    3ed2:	ba 17       	cp	r27, r26
    3ed4:	62 07       	cpc	r22, r18
    3ed6:	73 07       	cpc	r23, r19
    3ed8:	84 07       	cpc	r24, r20
    3eda:	95 07       	cpc	r25, r21
    3edc:	18 f0       	brcs	.+6      	; 0x3ee4 <__addsf3x+0x18>
    3ede:	71 f4       	brne	.+28     	; 0x3efc <__addsf3x+0x30>
    3ee0:	9e f5       	brtc	.+102    	; 0x3f48 <__addsf3x+0x7c>
    3ee2:	62 c1       	rjmp	.+708    	; 0x41a8 <__fp_zero>
    3ee4:	0e f4       	brtc	.+2      	; 0x3ee8 <__addsf3x+0x1c>
    3ee6:	e0 95       	com	r30
    3ee8:	0b 2e       	mov	r0, r27
    3eea:	ba 2f       	mov	r27, r26
    3eec:	a0 2d       	mov	r26, r0
    3eee:	0b 01       	movw	r0, r22
    3ef0:	b9 01       	movw	r22, r18
    3ef2:	90 01       	movw	r18, r0
    3ef4:	0c 01       	movw	r0, r24
    3ef6:	ca 01       	movw	r24, r20
    3ef8:	a0 01       	movw	r20, r0
    3efa:	11 24       	eor	r1, r1
    3efc:	ff 27       	eor	r31, r31
    3efe:	59 1b       	sub	r21, r25
    3f00:	99 f0       	breq	.+38     	; 0x3f28 <__addsf3x+0x5c>
    3f02:	59 3f       	cpi	r21, 0xF9	; 249
    3f04:	50 f4       	brcc	.+20     	; 0x3f1a <__addsf3x+0x4e>
    3f06:	50 3e       	cpi	r21, 0xE0	; 224
    3f08:	68 f1       	brcs	.+90     	; 0x3f64 <__addsf3x+0x98>
    3f0a:	1a 16       	cp	r1, r26
    3f0c:	f0 40       	sbci	r31, 0x00	; 0
    3f0e:	a2 2f       	mov	r26, r18
    3f10:	23 2f       	mov	r18, r19
    3f12:	34 2f       	mov	r19, r20
    3f14:	44 27       	eor	r20, r20
    3f16:	58 5f       	subi	r21, 0xF8	; 248
    3f18:	f3 cf       	rjmp	.-26     	; 0x3f00 <__addsf3x+0x34>
    3f1a:	46 95       	lsr	r20
    3f1c:	37 95       	ror	r19
    3f1e:	27 95       	ror	r18
    3f20:	a7 95       	ror	r26
    3f22:	f0 40       	sbci	r31, 0x00	; 0
    3f24:	53 95       	inc	r21
    3f26:	c9 f7       	brne	.-14     	; 0x3f1a <__addsf3x+0x4e>
    3f28:	7e f4       	brtc	.+30     	; 0x3f48 <__addsf3x+0x7c>
    3f2a:	1f 16       	cp	r1, r31
    3f2c:	ba 0b       	sbc	r27, r26
    3f2e:	62 0b       	sbc	r22, r18
    3f30:	73 0b       	sbc	r23, r19
    3f32:	84 0b       	sbc	r24, r20
    3f34:	ba f0       	brmi	.+46     	; 0x3f64 <__addsf3x+0x98>
    3f36:	91 50       	subi	r25, 0x01	; 1
    3f38:	a1 f0       	breq	.+40     	; 0x3f62 <__addsf3x+0x96>
    3f3a:	ff 0f       	add	r31, r31
    3f3c:	bb 1f       	adc	r27, r27
    3f3e:	66 1f       	adc	r22, r22
    3f40:	77 1f       	adc	r23, r23
    3f42:	88 1f       	adc	r24, r24
    3f44:	c2 f7       	brpl	.-16     	; 0x3f36 <__addsf3x+0x6a>
    3f46:	0e c0       	rjmp	.+28     	; 0x3f64 <__addsf3x+0x98>
    3f48:	ba 0f       	add	r27, r26
    3f4a:	62 1f       	adc	r22, r18
    3f4c:	73 1f       	adc	r23, r19
    3f4e:	84 1f       	adc	r24, r20
    3f50:	48 f4       	brcc	.+18     	; 0x3f64 <__addsf3x+0x98>
    3f52:	87 95       	ror	r24
    3f54:	77 95       	ror	r23
    3f56:	67 95       	ror	r22
    3f58:	b7 95       	ror	r27
    3f5a:	f7 95       	ror	r31
    3f5c:	9e 3f       	cpi	r25, 0xFE	; 254
    3f5e:	08 f0       	brcs	.+2      	; 0x3f62 <__addsf3x+0x96>
    3f60:	b3 cf       	rjmp	.-154    	; 0x3ec8 <__addsf3+0x1e>
    3f62:	93 95       	inc	r25
    3f64:	88 0f       	add	r24, r24
    3f66:	08 f0       	brcs	.+2      	; 0x3f6a <__addsf3x+0x9e>
    3f68:	99 27       	eor	r25, r25
    3f6a:	ee 0f       	add	r30, r30
    3f6c:	97 95       	ror	r25
    3f6e:	87 95       	ror	r24
    3f70:	08 95       	ret

00003f72 <__divsf3>:
    3f72:	0c d0       	rcall	.+24     	; 0x3f8c <__divsf3x>
    3f74:	e6 c0       	rjmp	.+460    	; 0x4142 <__fp_round>
    3f76:	de d0       	rcall	.+444    	; 0x4134 <__fp_pscB>
    3f78:	40 f0       	brcs	.+16     	; 0x3f8a <__divsf3+0x18>
    3f7a:	d5 d0       	rcall	.+426    	; 0x4126 <__fp_pscA>
    3f7c:	30 f0       	brcs	.+12     	; 0x3f8a <__divsf3+0x18>
    3f7e:	21 f4       	brne	.+8      	; 0x3f88 <__divsf3+0x16>
    3f80:	5f 3f       	cpi	r21, 0xFF	; 255
    3f82:	19 f0       	breq	.+6      	; 0x3f8a <__divsf3+0x18>
    3f84:	c7 c0       	rjmp	.+398    	; 0x4114 <__fp_inf>
    3f86:	51 11       	cpse	r21, r1
    3f88:	10 c1       	rjmp	.+544    	; 0x41aa <__fp_szero>
    3f8a:	ca c0       	rjmp	.+404    	; 0x4120 <__fp_nan>

00003f8c <__divsf3x>:
    3f8c:	eb d0       	rcall	.+470    	; 0x4164 <__fp_split3>
    3f8e:	98 f3       	brcs	.-26     	; 0x3f76 <__divsf3+0x4>

00003f90 <__divsf3_pse>:
    3f90:	99 23       	and	r25, r25
    3f92:	c9 f3       	breq	.-14     	; 0x3f86 <__divsf3+0x14>
    3f94:	55 23       	and	r21, r21
    3f96:	b1 f3       	breq	.-20     	; 0x3f84 <__divsf3+0x12>
    3f98:	95 1b       	sub	r25, r21
    3f9a:	55 0b       	sbc	r21, r21
    3f9c:	bb 27       	eor	r27, r27
    3f9e:	aa 27       	eor	r26, r26
    3fa0:	62 17       	cp	r22, r18
    3fa2:	73 07       	cpc	r23, r19
    3fa4:	84 07       	cpc	r24, r20
    3fa6:	38 f0       	brcs	.+14     	; 0x3fb6 <__divsf3_pse+0x26>
    3fa8:	9f 5f       	subi	r25, 0xFF	; 255
    3faa:	5f 4f       	sbci	r21, 0xFF	; 255
    3fac:	22 0f       	add	r18, r18
    3fae:	33 1f       	adc	r19, r19
    3fb0:	44 1f       	adc	r20, r20
    3fb2:	aa 1f       	adc	r26, r26
    3fb4:	a9 f3       	breq	.-22     	; 0x3fa0 <__divsf3_pse+0x10>
    3fb6:	33 d0       	rcall	.+102    	; 0x401e <__divsf3_pse+0x8e>
    3fb8:	0e 2e       	mov	r0, r30
    3fba:	3a f0       	brmi	.+14     	; 0x3fca <__divsf3_pse+0x3a>
    3fbc:	e0 e8       	ldi	r30, 0x80	; 128
    3fbe:	30 d0       	rcall	.+96     	; 0x4020 <__divsf3_pse+0x90>
    3fc0:	91 50       	subi	r25, 0x01	; 1
    3fc2:	50 40       	sbci	r21, 0x00	; 0
    3fc4:	e6 95       	lsr	r30
    3fc6:	00 1c       	adc	r0, r0
    3fc8:	ca f7       	brpl	.-14     	; 0x3fbc <__divsf3_pse+0x2c>
    3fca:	29 d0       	rcall	.+82     	; 0x401e <__divsf3_pse+0x8e>
    3fcc:	fe 2f       	mov	r31, r30
    3fce:	27 d0       	rcall	.+78     	; 0x401e <__divsf3_pse+0x8e>
    3fd0:	66 0f       	add	r22, r22
    3fd2:	77 1f       	adc	r23, r23
    3fd4:	88 1f       	adc	r24, r24
    3fd6:	bb 1f       	adc	r27, r27
    3fd8:	26 17       	cp	r18, r22
    3fda:	37 07       	cpc	r19, r23
    3fdc:	48 07       	cpc	r20, r24
    3fde:	ab 07       	cpc	r26, r27
    3fe0:	b0 e8       	ldi	r27, 0x80	; 128
    3fe2:	09 f0       	breq	.+2      	; 0x3fe6 <__divsf3_pse+0x56>
    3fe4:	bb 0b       	sbc	r27, r27
    3fe6:	80 2d       	mov	r24, r0
    3fe8:	bf 01       	movw	r22, r30
    3fea:	ff 27       	eor	r31, r31
    3fec:	93 58       	subi	r25, 0x83	; 131
    3fee:	5f 4f       	sbci	r21, 0xFF	; 255
    3ff0:	2a f0       	brmi	.+10     	; 0x3ffc <__divsf3_pse+0x6c>
    3ff2:	9e 3f       	cpi	r25, 0xFE	; 254
    3ff4:	51 05       	cpc	r21, r1
    3ff6:	68 f0       	brcs	.+26     	; 0x4012 <__divsf3_pse+0x82>
    3ff8:	8d c0       	rjmp	.+282    	; 0x4114 <__fp_inf>
    3ffa:	d7 c0       	rjmp	.+430    	; 0x41aa <__fp_szero>
    3ffc:	5f 3f       	cpi	r21, 0xFF	; 255
    3ffe:	ec f3       	brlt	.-6      	; 0x3ffa <__divsf3_pse+0x6a>
    4000:	98 3e       	cpi	r25, 0xE8	; 232
    4002:	dc f3       	brlt	.-10     	; 0x3ffa <__divsf3_pse+0x6a>
    4004:	86 95       	lsr	r24
    4006:	77 95       	ror	r23
    4008:	67 95       	ror	r22
    400a:	b7 95       	ror	r27
    400c:	f7 95       	ror	r31
    400e:	9f 5f       	subi	r25, 0xFF	; 255
    4010:	c9 f7       	brne	.-14     	; 0x4004 <__divsf3_pse+0x74>
    4012:	88 0f       	add	r24, r24
    4014:	91 1d       	adc	r25, r1
    4016:	96 95       	lsr	r25
    4018:	87 95       	ror	r24
    401a:	97 f9       	bld	r25, 7
    401c:	08 95       	ret
    401e:	e1 e0       	ldi	r30, 0x01	; 1
    4020:	66 0f       	add	r22, r22
    4022:	77 1f       	adc	r23, r23
    4024:	88 1f       	adc	r24, r24
    4026:	bb 1f       	adc	r27, r27
    4028:	62 17       	cp	r22, r18
    402a:	73 07       	cpc	r23, r19
    402c:	84 07       	cpc	r24, r20
    402e:	ba 07       	cpc	r27, r26
    4030:	20 f0       	brcs	.+8      	; 0x403a <__divsf3_pse+0xaa>
    4032:	62 1b       	sub	r22, r18
    4034:	73 0b       	sbc	r23, r19
    4036:	84 0b       	sbc	r24, r20
    4038:	ba 0b       	sbc	r27, r26
    403a:	ee 1f       	adc	r30, r30
    403c:	88 f7       	brcc	.-30     	; 0x4020 <__divsf3_pse+0x90>
    403e:	e0 95       	com	r30
    4040:	08 95       	ret

00004042 <__fixunssfsi>:
    4042:	98 d0       	rcall	.+304    	; 0x4174 <__fp_splitA>
    4044:	88 f0       	brcs	.+34     	; 0x4068 <__fixunssfsi+0x26>
    4046:	9f 57       	subi	r25, 0x7F	; 127
    4048:	90 f0       	brcs	.+36     	; 0x406e <__fixunssfsi+0x2c>
    404a:	b9 2f       	mov	r27, r25
    404c:	99 27       	eor	r25, r25
    404e:	b7 51       	subi	r27, 0x17	; 23
    4050:	a0 f0       	brcs	.+40     	; 0x407a <__fixunssfsi+0x38>
    4052:	d1 f0       	breq	.+52     	; 0x4088 <__fixunssfsi+0x46>
    4054:	66 0f       	add	r22, r22
    4056:	77 1f       	adc	r23, r23
    4058:	88 1f       	adc	r24, r24
    405a:	99 1f       	adc	r25, r25
    405c:	1a f0       	brmi	.+6      	; 0x4064 <__fixunssfsi+0x22>
    405e:	ba 95       	dec	r27
    4060:	c9 f7       	brne	.-14     	; 0x4054 <__fixunssfsi+0x12>
    4062:	12 c0       	rjmp	.+36     	; 0x4088 <__fixunssfsi+0x46>
    4064:	b1 30       	cpi	r27, 0x01	; 1
    4066:	81 f0       	breq	.+32     	; 0x4088 <__fixunssfsi+0x46>
    4068:	9f d0       	rcall	.+318    	; 0x41a8 <__fp_zero>
    406a:	b1 e0       	ldi	r27, 0x01	; 1
    406c:	08 95       	ret
    406e:	9c c0       	rjmp	.+312    	; 0x41a8 <__fp_zero>
    4070:	67 2f       	mov	r22, r23
    4072:	78 2f       	mov	r23, r24
    4074:	88 27       	eor	r24, r24
    4076:	b8 5f       	subi	r27, 0xF8	; 248
    4078:	39 f0       	breq	.+14     	; 0x4088 <__fixunssfsi+0x46>
    407a:	b9 3f       	cpi	r27, 0xF9	; 249
    407c:	cc f3       	brlt	.-14     	; 0x4070 <__fixunssfsi+0x2e>
    407e:	86 95       	lsr	r24
    4080:	77 95       	ror	r23
    4082:	67 95       	ror	r22
    4084:	b3 95       	inc	r27
    4086:	d9 f7       	brne	.-10     	; 0x407e <__fixunssfsi+0x3c>
    4088:	3e f4       	brtc	.+14     	; 0x4098 <__fixunssfsi+0x56>
    408a:	90 95       	com	r25
    408c:	80 95       	com	r24
    408e:	70 95       	com	r23
    4090:	61 95       	neg	r22
    4092:	7f 4f       	sbci	r23, 0xFF	; 255
    4094:	8f 4f       	sbci	r24, 0xFF	; 255
    4096:	9f 4f       	sbci	r25, 0xFF	; 255
    4098:	08 95       	ret

0000409a <__floatunsisf>:
    409a:	e8 94       	clt
    409c:	09 c0       	rjmp	.+18     	; 0x40b0 <__floatsisf+0x12>

0000409e <__floatsisf>:
    409e:	97 fb       	bst	r25, 7
    40a0:	3e f4       	brtc	.+14     	; 0x40b0 <__floatsisf+0x12>
    40a2:	90 95       	com	r25
    40a4:	80 95       	com	r24
    40a6:	70 95       	com	r23
    40a8:	61 95       	neg	r22
    40aa:	7f 4f       	sbci	r23, 0xFF	; 255
    40ac:	8f 4f       	sbci	r24, 0xFF	; 255
    40ae:	9f 4f       	sbci	r25, 0xFF	; 255
    40b0:	99 23       	and	r25, r25
    40b2:	a9 f0       	breq	.+42     	; 0x40de <__floatsisf+0x40>
    40b4:	f9 2f       	mov	r31, r25
    40b6:	96 e9       	ldi	r25, 0x96	; 150
    40b8:	bb 27       	eor	r27, r27
    40ba:	93 95       	inc	r25
    40bc:	f6 95       	lsr	r31
    40be:	87 95       	ror	r24
    40c0:	77 95       	ror	r23
    40c2:	67 95       	ror	r22
    40c4:	b7 95       	ror	r27
    40c6:	f1 11       	cpse	r31, r1
    40c8:	f8 cf       	rjmp	.-16     	; 0x40ba <__floatsisf+0x1c>
    40ca:	fa f4       	brpl	.+62     	; 0x410a <__floatsisf+0x6c>
    40cc:	bb 0f       	add	r27, r27
    40ce:	11 f4       	brne	.+4      	; 0x40d4 <__floatsisf+0x36>
    40d0:	60 ff       	sbrs	r22, 0
    40d2:	1b c0       	rjmp	.+54     	; 0x410a <__floatsisf+0x6c>
    40d4:	6f 5f       	subi	r22, 0xFF	; 255
    40d6:	7f 4f       	sbci	r23, 0xFF	; 255
    40d8:	8f 4f       	sbci	r24, 0xFF	; 255
    40da:	9f 4f       	sbci	r25, 0xFF	; 255
    40dc:	16 c0       	rjmp	.+44     	; 0x410a <__floatsisf+0x6c>
    40de:	88 23       	and	r24, r24
    40e0:	11 f0       	breq	.+4      	; 0x40e6 <__floatsisf+0x48>
    40e2:	96 e9       	ldi	r25, 0x96	; 150
    40e4:	11 c0       	rjmp	.+34     	; 0x4108 <__floatsisf+0x6a>
    40e6:	77 23       	and	r23, r23
    40e8:	21 f0       	breq	.+8      	; 0x40f2 <__floatsisf+0x54>
    40ea:	9e e8       	ldi	r25, 0x8E	; 142
    40ec:	87 2f       	mov	r24, r23
    40ee:	76 2f       	mov	r23, r22
    40f0:	05 c0       	rjmp	.+10     	; 0x40fc <__floatsisf+0x5e>
    40f2:	66 23       	and	r22, r22
    40f4:	71 f0       	breq	.+28     	; 0x4112 <__floatsisf+0x74>
    40f6:	96 e8       	ldi	r25, 0x86	; 134
    40f8:	86 2f       	mov	r24, r22
    40fa:	70 e0       	ldi	r23, 0x00	; 0
    40fc:	60 e0       	ldi	r22, 0x00	; 0
    40fe:	2a f0       	brmi	.+10     	; 0x410a <__floatsisf+0x6c>
    4100:	9a 95       	dec	r25
    4102:	66 0f       	add	r22, r22
    4104:	77 1f       	adc	r23, r23
    4106:	88 1f       	adc	r24, r24
    4108:	da f7       	brpl	.-10     	; 0x4100 <__floatsisf+0x62>
    410a:	88 0f       	add	r24, r24
    410c:	96 95       	lsr	r25
    410e:	87 95       	ror	r24
    4110:	97 f9       	bld	r25, 7
    4112:	08 95       	ret

00004114 <__fp_inf>:
    4114:	97 f9       	bld	r25, 7
    4116:	9f 67       	ori	r25, 0x7F	; 127
    4118:	80 e8       	ldi	r24, 0x80	; 128
    411a:	70 e0       	ldi	r23, 0x00	; 0
    411c:	60 e0       	ldi	r22, 0x00	; 0
    411e:	08 95       	ret

00004120 <__fp_nan>:
    4120:	9f ef       	ldi	r25, 0xFF	; 255
    4122:	80 ec       	ldi	r24, 0xC0	; 192
    4124:	08 95       	ret

00004126 <__fp_pscA>:
    4126:	00 24       	eor	r0, r0
    4128:	0a 94       	dec	r0
    412a:	16 16       	cp	r1, r22
    412c:	17 06       	cpc	r1, r23
    412e:	18 06       	cpc	r1, r24
    4130:	09 06       	cpc	r0, r25
    4132:	08 95       	ret

00004134 <__fp_pscB>:
    4134:	00 24       	eor	r0, r0
    4136:	0a 94       	dec	r0
    4138:	12 16       	cp	r1, r18
    413a:	13 06       	cpc	r1, r19
    413c:	14 06       	cpc	r1, r20
    413e:	05 06       	cpc	r0, r21
    4140:	08 95       	ret

00004142 <__fp_round>:
    4142:	09 2e       	mov	r0, r25
    4144:	03 94       	inc	r0
    4146:	00 0c       	add	r0, r0
    4148:	11 f4       	brne	.+4      	; 0x414e <__fp_round+0xc>
    414a:	88 23       	and	r24, r24
    414c:	52 f0       	brmi	.+20     	; 0x4162 <__fp_round+0x20>
    414e:	bb 0f       	add	r27, r27
    4150:	40 f4       	brcc	.+16     	; 0x4162 <__fp_round+0x20>
    4152:	bf 2b       	or	r27, r31
    4154:	11 f4       	brne	.+4      	; 0x415a <__fp_round+0x18>
    4156:	60 ff       	sbrs	r22, 0
    4158:	04 c0       	rjmp	.+8      	; 0x4162 <__fp_round+0x20>
    415a:	6f 5f       	subi	r22, 0xFF	; 255
    415c:	7f 4f       	sbci	r23, 0xFF	; 255
    415e:	8f 4f       	sbci	r24, 0xFF	; 255
    4160:	9f 4f       	sbci	r25, 0xFF	; 255
    4162:	08 95       	ret

00004164 <__fp_split3>:
    4164:	57 fd       	sbrc	r21, 7
    4166:	90 58       	subi	r25, 0x80	; 128
    4168:	44 0f       	add	r20, r20
    416a:	55 1f       	adc	r21, r21
    416c:	59 f0       	breq	.+22     	; 0x4184 <__fp_splitA+0x10>
    416e:	5f 3f       	cpi	r21, 0xFF	; 255
    4170:	71 f0       	breq	.+28     	; 0x418e <__fp_splitA+0x1a>
    4172:	47 95       	ror	r20

00004174 <__fp_splitA>:
    4174:	88 0f       	add	r24, r24
    4176:	97 fb       	bst	r25, 7
    4178:	99 1f       	adc	r25, r25
    417a:	61 f0       	breq	.+24     	; 0x4194 <__fp_splitA+0x20>
    417c:	9f 3f       	cpi	r25, 0xFF	; 255
    417e:	79 f0       	breq	.+30     	; 0x419e <__fp_splitA+0x2a>
    4180:	87 95       	ror	r24
    4182:	08 95       	ret
    4184:	12 16       	cp	r1, r18
    4186:	13 06       	cpc	r1, r19
    4188:	14 06       	cpc	r1, r20
    418a:	55 1f       	adc	r21, r21
    418c:	f2 cf       	rjmp	.-28     	; 0x4172 <__fp_split3+0xe>
    418e:	46 95       	lsr	r20
    4190:	f1 df       	rcall	.-30     	; 0x4174 <__fp_splitA>
    4192:	08 c0       	rjmp	.+16     	; 0x41a4 <__fp_splitA+0x30>
    4194:	16 16       	cp	r1, r22
    4196:	17 06       	cpc	r1, r23
    4198:	18 06       	cpc	r1, r24
    419a:	99 1f       	adc	r25, r25
    419c:	f1 cf       	rjmp	.-30     	; 0x4180 <__fp_splitA+0xc>
    419e:	86 95       	lsr	r24
    41a0:	71 05       	cpc	r23, r1
    41a2:	61 05       	cpc	r22, r1
    41a4:	08 94       	sec
    41a6:	08 95       	ret

000041a8 <__fp_zero>:
    41a8:	e8 94       	clt

000041aa <__fp_szero>:
    41aa:	bb 27       	eor	r27, r27
    41ac:	66 27       	eor	r22, r22
    41ae:	77 27       	eor	r23, r23
    41b0:	cb 01       	movw	r24, r22
    41b2:	97 f9       	bld	r25, 7
    41b4:	08 95       	ret

000041b6 <__mulsf3>:
    41b6:	0b d0       	rcall	.+22     	; 0x41ce <__mulsf3x>
    41b8:	c4 cf       	rjmp	.-120    	; 0x4142 <__fp_round>
    41ba:	b5 df       	rcall	.-150    	; 0x4126 <__fp_pscA>
    41bc:	28 f0       	brcs	.+10     	; 0x41c8 <__mulsf3+0x12>
    41be:	ba df       	rcall	.-140    	; 0x4134 <__fp_pscB>
    41c0:	18 f0       	brcs	.+6      	; 0x41c8 <__mulsf3+0x12>
    41c2:	95 23       	and	r25, r21
    41c4:	09 f0       	breq	.+2      	; 0x41c8 <__mulsf3+0x12>
    41c6:	a6 cf       	rjmp	.-180    	; 0x4114 <__fp_inf>
    41c8:	ab cf       	rjmp	.-170    	; 0x4120 <__fp_nan>
    41ca:	11 24       	eor	r1, r1
    41cc:	ee cf       	rjmp	.-36     	; 0x41aa <__fp_szero>

000041ce <__mulsf3x>:
    41ce:	ca df       	rcall	.-108    	; 0x4164 <__fp_split3>
    41d0:	a0 f3       	brcs	.-24     	; 0x41ba <__mulsf3+0x4>

000041d2 <__mulsf3_pse>:
    41d2:	95 9f       	mul	r25, r21
    41d4:	d1 f3       	breq	.-12     	; 0x41ca <__mulsf3+0x14>
    41d6:	95 0f       	add	r25, r21
    41d8:	50 e0       	ldi	r21, 0x00	; 0
    41da:	55 1f       	adc	r21, r21
    41dc:	62 9f       	mul	r22, r18
    41de:	f0 01       	movw	r30, r0
    41e0:	72 9f       	mul	r23, r18
    41e2:	bb 27       	eor	r27, r27
    41e4:	f0 0d       	add	r31, r0
    41e6:	b1 1d       	adc	r27, r1
    41e8:	63 9f       	mul	r22, r19
    41ea:	aa 27       	eor	r26, r26
    41ec:	f0 0d       	add	r31, r0
    41ee:	b1 1d       	adc	r27, r1
    41f0:	aa 1f       	adc	r26, r26
    41f2:	64 9f       	mul	r22, r20
    41f4:	66 27       	eor	r22, r22
    41f6:	b0 0d       	add	r27, r0
    41f8:	a1 1d       	adc	r26, r1
    41fa:	66 1f       	adc	r22, r22
    41fc:	82 9f       	mul	r24, r18
    41fe:	22 27       	eor	r18, r18
    4200:	b0 0d       	add	r27, r0
    4202:	a1 1d       	adc	r26, r1
    4204:	62 1f       	adc	r22, r18
    4206:	73 9f       	mul	r23, r19
    4208:	b0 0d       	add	r27, r0
    420a:	a1 1d       	adc	r26, r1
    420c:	62 1f       	adc	r22, r18
    420e:	83 9f       	mul	r24, r19
    4210:	a0 0d       	add	r26, r0
    4212:	61 1d       	adc	r22, r1
    4214:	22 1f       	adc	r18, r18
    4216:	74 9f       	mul	r23, r20
    4218:	33 27       	eor	r19, r19
    421a:	a0 0d       	add	r26, r0
    421c:	61 1d       	adc	r22, r1
    421e:	23 1f       	adc	r18, r19
    4220:	84 9f       	mul	r24, r20
    4222:	60 0d       	add	r22, r0
    4224:	21 1d       	adc	r18, r1
    4226:	82 2f       	mov	r24, r18
    4228:	76 2f       	mov	r23, r22
    422a:	6a 2f       	mov	r22, r26
    422c:	11 24       	eor	r1, r1
    422e:	9f 57       	subi	r25, 0x7F	; 127
    4230:	50 40       	sbci	r21, 0x00	; 0
    4232:	8a f0       	brmi	.+34     	; 0x4256 <__mulsf3_pse+0x84>
    4234:	e1 f0       	breq	.+56     	; 0x426e <__mulsf3_pse+0x9c>
    4236:	88 23       	and	r24, r24
    4238:	4a f0       	brmi	.+18     	; 0x424c <__mulsf3_pse+0x7a>
    423a:	ee 0f       	add	r30, r30
    423c:	ff 1f       	adc	r31, r31
    423e:	bb 1f       	adc	r27, r27
    4240:	66 1f       	adc	r22, r22
    4242:	77 1f       	adc	r23, r23
    4244:	88 1f       	adc	r24, r24
    4246:	91 50       	subi	r25, 0x01	; 1
    4248:	50 40       	sbci	r21, 0x00	; 0
    424a:	a9 f7       	brne	.-22     	; 0x4236 <__mulsf3_pse+0x64>
    424c:	9e 3f       	cpi	r25, 0xFE	; 254
    424e:	51 05       	cpc	r21, r1
    4250:	70 f0       	brcs	.+28     	; 0x426e <__mulsf3_pse+0x9c>
    4252:	60 cf       	rjmp	.-320    	; 0x4114 <__fp_inf>
    4254:	aa cf       	rjmp	.-172    	; 0x41aa <__fp_szero>
    4256:	5f 3f       	cpi	r21, 0xFF	; 255
    4258:	ec f3       	brlt	.-6      	; 0x4254 <__mulsf3_pse+0x82>
    425a:	98 3e       	cpi	r25, 0xE8	; 232
    425c:	dc f3       	brlt	.-10     	; 0x4254 <__mulsf3_pse+0x82>
    425e:	86 95       	lsr	r24
    4260:	77 95       	ror	r23
    4262:	67 95       	ror	r22
    4264:	b7 95       	ror	r27
    4266:	f7 95       	ror	r31
    4268:	e7 95       	ror	r30
    426a:	9f 5f       	subi	r25, 0xFF	; 255
    426c:	c1 f7       	brne	.-16     	; 0x425e <__mulsf3_pse+0x8c>
    426e:	fe 2b       	or	r31, r30
    4270:	88 0f       	add	r24, r24
    4272:	91 1d       	adc	r25, r1
    4274:	96 95       	lsr	r25
    4276:	87 95       	ror	r24
    4278:	97 f9       	bld	r25, 7
    427a:	08 95       	ret

0000427c <pow>:
    427c:	fa 01       	movw	r30, r20
    427e:	ee 0f       	add	r30, r30
    4280:	ff 1f       	adc	r31, r31
    4282:	30 96       	adiw	r30, 0x00	; 0
    4284:	21 05       	cpc	r18, r1
    4286:	31 05       	cpc	r19, r1
    4288:	99 f1       	breq	.+102    	; 0x42f0 <pow+0x74>
    428a:	61 15       	cp	r22, r1
    428c:	71 05       	cpc	r23, r1
    428e:	61 f4       	brne	.+24     	; 0x42a8 <pow+0x2c>
    4290:	80 38       	cpi	r24, 0x80	; 128
    4292:	bf e3       	ldi	r27, 0x3F	; 63
    4294:	9b 07       	cpc	r25, r27
    4296:	49 f1       	breq	.+82     	; 0x42ea <pow+0x6e>
    4298:	68 94       	set
    429a:	90 38       	cpi	r25, 0x80	; 128
    429c:	81 05       	cpc	r24, r1
    429e:	61 f0       	breq	.+24     	; 0x42b8 <pow+0x3c>
    42a0:	80 38       	cpi	r24, 0x80	; 128
    42a2:	bf ef       	ldi	r27, 0xFF	; 255
    42a4:	9b 07       	cpc	r25, r27
    42a6:	41 f0       	breq	.+16     	; 0x42b8 <pow+0x3c>
    42a8:	99 23       	and	r25, r25
    42aa:	42 f5       	brpl	.+80     	; 0x42fc <pow+0x80>
    42ac:	ff 3f       	cpi	r31, 0xFF	; 255
    42ae:	e1 05       	cpc	r30, r1
    42b0:	31 05       	cpc	r19, r1
    42b2:	21 05       	cpc	r18, r1
    42b4:	11 f1       	breq	.+68     	; 0x42fa <pow+0x7e>
    42b6:	e8 94       	clt
    42b8:	08 94       	sec
    42ba:	e7 95       	ror	r30
    42bc:	d9 01       	movw	r26, r18
    42be:	aa 23       	and	r26, r26
    42c0:	29 f4       	brne	.+10     	; 0x42cc <pow+0x50>
    42c2:	ab 2f       	mov	r26, r27
    42c4:	be 2f       	mov	r27, r30
    42c6:	f8 5f       	subi	r31, 0xF8	; 248
    42c8:	d0 f3       	brcs	.-12     	; 0x42be <pow+0x42>
    42ca:	10 c0       	rjmp	.+32     	; 0x42ec <pow+0x70>
    42cc:	ff 5f       	subi	r31, 0xFF	; 255
    42ce:	70 f4       	brcc	.+28     	; 0x42ec <pow+0x70>
    42d0:	a6 95       	lsr	r26
    42d2:	e0 f7       	brcc	.-8      	; 0x42cc <pow+0x50>
    42d4:	f7 39       	cpi	r31, 0x97	; 151
    42d6:	50 f0       	brcs	.+20     	; 0x42ec <pow+0x70>
    42d8:	19 f0       	breq	.+6      	; 0x42e0 <pow+0x64>
    42da:	ff 3a       	cpi	r31, 0xAF	; 175
    42dc:	38 f4       	brcc	.+14     	; 0x42ec <pow+0x70>
    42de:	9f 77       	andi	r25, 0x7F	; 127
    42e0:	9f 93       	push	r25
    42e2:	0c d0       	rcall	.+24     	; 0x42fc <pow+0x80>
    42e4:	0f 90       	pop	r0
    42e6:	07 fc       	sbrc	r0, 7
    42e8:	90 58       	subi	r25, 0x80	; 128
    42ea:	08 95       	ret
    42ec:	3e f0       	brts	.+14     	; 0x42fc <pow+0x80>
    42ee:	18 cf       	rjmp	.-464    	; 0x4120 <__fp_nan>
    42f0:	60 e0       	ldi	r22, 0x00	; 0
    42f2:	70 e0       	ldi	r23, 0x00	; 0
    42f4:	80 e8       	ldi	r24, 0x80	; 128
    42f6:	9f e3       	ldi	r25, 0x3F	; 63
    42f8:	08 95       	ret
    42fa:	4f e7       	ldi	r20, 0x7F	; 127
    42fc:	9f 77       	andi	r25, 0x7F	; 127
    42fe:	5f 93       	push	r21
    4300:	4f 93       	push	r20
    4302:	3f 93       	push	r19
    4304:	2f 93       	push	r18
    4306:	9e d0       	rcall	.+316    	; 0x4444 <log>
    4308:	2f 91       	pop	r18
    430a:	3f 91       	pop	r19
    430c:	4f 91       	pop	r20
    430e:	5f 91       	pop	r21
    4310:	52 df       	rcall	.-348    	; 0x41b6 <__mulsf3>
    4312:	05 c0       	rjmp	.+10     	; 0x431e <exp>
    4314:	19 f4       	brne	.+6      	; 0x431c <pow+0xa0>
    4316:	0e f0       	brts	.+2      	; 0x431a <pow+0x9e>
    4318:	fd ce       	rjmp	.-518    	; 0x4114 <__fp_inf>
    431a:	46 cf       	rjmp	.-372    	; 0x41a8 <__fp_zero>
    431c:	01 cf       	rjmp	.-510    	; 0x4120 <__fp_nan>

0000431e <exp>:
    431e:	2a df       	rcall	.-428    	; 0x4174 <__fp_splitA>
    4320:	c8 f3       	brcs	.-14     	; 0x4314 <pow+0x98>
    4322:	96 38       	cpi	r25, 0x86	; 134
    4324:	c0 f7       	brcc	.-16     	; 0x4316 <pow+0x9a>
    4326:	07 f8       	bld	r0, 7
    4328:	0f 92       	push	r0
    432a:	e8 94       	clt
    432c:	2b e3       	ldi	r18, 0x3B	; 59
    432e:	3a ea       	ldi	r19, 0xAA	; 170
    4330:	48 eb       	ldi	r20, 0xB8	; 184
    4332:	5f e7       	ldi	r21, 0x7F	; 127
    4334:	4e df       	rcall	.-356    	; 0x41d2 <__mulsf3_pse>
    4336:	0f 92       	push	r0
    4338:	0f 92       	push	r0
    433a:	0f 92       	push	r0
    433c:	4d b7       	in	r20, 0x3d	; 61
    433e:	5e b7       	in	r21, 0x3e	; 62
    4340:	0f 92       	push	r0
    4342:	c0 d0       	rcall	.+384    	; 0x44c4 <modf>
    4344:	e4 e9       	ldi	r30, 0x94	; 148
    4346:	f1 e0       	ldi	r31, 0x01	; 1
    4348:	16 d0       	rcall	.+44     	; 0x4376 <__fp_powser>
    434a:	4f 91       	pop	r20
    434c:	5f 91       	pop	r21
    434e:	ef 91       	pop	r30
    4350:	ff 91       	pop	r31
    4352:	e5 95       	asr	r30
    4354:	ee 1f       	adc	r30, r30
    4356:	ff 1f       	adc	r31, r31
    4358:	49 f0       	breq	.+18     	; 0x436c <exp+0x4e>
    435a:	fe 57       	subi	r31, 0x7E	; 126
    435c:	e0 68       	ori	r30, 0x80	; 128
    435e:	44 27       	eor	r20, r20
    4360:	ee 0f       	add	r30, r30
    4362:	44 1f       	adc	r20, r20
    4364:	fa 95       	dec	r31
    4366:	e1 f7       	brne	.-8      	; 0x4360 <exp+0x42>
    4368:	41 95       	neg	r20
    436a:	55 0b       	sbc	r21, r21
    436c:	32 d0       	rcall	.+100    	; 0x43d2 <ldexp>
    436e:	0f 90       	pop	r0
    4370:	07 fe       	sbrs	r0, 7
    4372:	26 c0       	rjmp	.+76     	; 0x43c0 <inverse>
    4374:	08 95       	ret

00004376 <__fp_powser>:
    4376:	df 93       	push	r29
    4378:	cf 93       	push	r28
    437a:	1f 93       	push	r17
    437c:	0f 93       	push	r16
    437e:	ff 92       	push	r15
    4380:	ef 92       	push	r14
    4382:	df 92       	push	r13
    4384:	7b 01       	movw	r14, r22
    4386:	8c 01       	movw	r16, r24
    4388:	68 94       	set
    438a:	05 c0       	rjmp	.+10     	; 0x4396 <__fp_powser+0x20>
    438c:	da 2e       	mov	r13, r26
    438e:	ef 01       	movw	r28, r30
    4390:	1e df       	rcall	.-452    	; 0x41ce <__mulsf3x>
    4392:	fe 01       	movw	r30, r28
    4394:	e8 94       	clt
    4396:	a5 91       	lpm	r26, Z+
    4398:	25 91       	lpm	r18, Z+
    439a:	35 91       	lpm	r19, Z+
    439c:	45 91       	lpm	r20, Z+
    439e:	55 91       	lpm	r21, Z+
    43a0:	ae f3       	brts	.-22     	; 0x438c <__fp_powser+0x16>
    43a2:	ef 01       	movw	r28, r30
    43a4:	93 dd       	rcall	.-1242   	; 0x3ecc <__addsf3x>
    43a6:	fe 01       	movw	r30, r28
    43a8:	97 01       	movw	r18, r14
    43aa:	a8 01       	movw	r20, r16
    43ac:	da 94       	dec	r13
    43ae:	79 f7       	brne	.-34     	; 0x438e <__fp_powser+0x18>
    43b0:	df 90       	pop	r13
    43b2:	ef 90       	pop	r14
    43b4:	ff 90       	pop	r15
    43b6:	0f 91       	pop	r16
    43b8:	1f 91       	pop	r17
    43ba:	cf 91       	pop	r28
    43bc:	df 91       	pop	r29
    43be:	08 95       	ret

000043c0 <inverse>:
    43c0:	9b 01       	movw	r18, r22
    43c2:	ac 01       	movw	r20, r24
    43c4:	60 e0       	ldi	r22, 0x00	; 0
    43c6:	70 e0       	ldi	r23, 0x00	; 0
    43c8:	80 e8       	ldi	r24, 0x80	; 128
    43ca:	9f e3       	ldi	r25, 0x3F	; 63
    43cc:	d2 cd       	rjmp	.-1116   	; 0x3f72 <__divsf3>
    43ce:	a2 ce       	rjmp	.-700    	; 0x4114 <__fp_inf>
    43d0:	ac c0       	rjmp	.+344    	; 0x452a <__fp_mpack>

000043d2 <ldexp>:
    43d2:	d0 de       	rcall	.-608    	; 0x4174 <__fp_splitA>
    43d4:	e8 f3       	brcs	.-6      	; 0x43d0 <inverse+0x10>
    43d6:	99 23       	and	r25, r25
    43d8:	d9 f3       	breq	.-10     	; 0x43d0 <inverse+0x10>
    43da:	94 0f       	add	r25, r20
    43dc:	51 1d       	adc	r21, r1
    43de:	bb f3       	brvs	.-18     	; 0x43ce <inverse+0xe>
    43e0:	91 50       	subi	r25, 0x01	; 1
    43e2:	50 40       	sbci	r21, 0x00	; 0
    43e4:	94 f0       	brlt	.+36     	; 0x440a <ldexp+0x38>
    43e6:	59 f0       	breq	.+22     	; 0x43fe <ldexp+0x2c>
    43e8:	88 23       	and	r24, r24
    43ea:	32 f0       	brmi	.+12     	; 0x43f8 <ldexp+0x26>
    43ec:	66 0f       	add	r22, r22
    43ee:	77 1f       	adc	r23, r23
    43f0:	88 1f       	adc	r24, r24
    43f2:	91 50       	subi	r25, 0x01	; 1
    43f4:	50 40       	sbci	r21, 0x00	; 0
    43f6:	c1 f7       	brne	.-16     	; 0x43e8 <ldexp+0x16>
    43f8:	9e 3f       	cpi	r25, 0xFE	; 254
    43fa:	51 05       	cpc	r21, r1
    43fc:	44 f7       	brge	.-48     	; 0x43ce <inverse+0xe>
    43fe:	88 0f       	add	r24, r24
    4400:	91 1d       	adc	r25, r1
    4402:	96 95       	lsr	r25
    4404:	87 95       	ror	r24
    4406:	97 f9       	bld	r25, 7
    4408:	08 95       	ret
    440a:	5f 3f       	cpi	r21, 0xFF	; 255
    440c:	ac f0       	brlt	.+42     	; 0x4438 <ldexp+0x66>
    440e:	98 3e       	cpi	r25, 0xE8	; 232
    4410:	9c f0       	brlt	.+38     	; 0x4438 <ldexp+0x66>
    4412:	bb 27       	eor	r27, r27
    4414:	86 95       	lsr	r24
    4416:	77 95       	ror	r23
    4418:	67 95       	ror	r22
    441a:	b7 95       	ror	r27
    441c:	08 f4       	brcc	.+2      	; 0x4420 <ldexp+0x4e>
    441e:	b1 60       	ori	r27, 0x01	; 1
    4420:	93 95       	inc	r25
    4422:	c1 f7       	brne	.-16     	; 0x4414 <ldexp+0x42>
    4424:	bb 0f       	add	r27, r27
    4426:	58 f7       	brcc	.-42     	; 0x43fe <ldexp+0x2c>
    4428:	11 f4       	brne	.+4      	; 0x442e <ldexp+0x5c>
    442a:	60 ff       	sbrs	r22, 0
    442c:	e8 cf       	rjmp	.-48     	; 0x43fe <ldexp+0x2c>
    442e:	6f 5f       	subi	r22, 0xFF	; 255
    4430:	7f 4f       	sbci	r23, 0xFF	; 255
    4432:	8f 4f       	sbci	r24, 0xFF	; 255
    4434:	9f 4f       	sbci	r25, 0xFF	; 255
    4436:	e3 cf       	rjmp	.-58     	; 0x43fe <ldexp+0x2c>
    4438:	b8 ce       	rjmp	.-656    	; 0x41aa <__fp_szero>
    443a:	0e f0       	brts	.+2      	; 0x443e <ldexp+0x6c>
    443c:	76 c0       	rjmp	.+236    	; 0x452a <__fp_mpack>
    443e:	70 ce       	rjmp	.-800    	; 0x4120 <__fp_nan>
    4440:	68 94       	set
    4442:	68 ce       	rjmp	.-816    	; 0x4114 <__fp_inf>

00004444 <log>:
    4444:	97 de       	rcall	.-722    	; 0x4174 <__fp_splitA>
    4446:	c8 f3       	brcs	.-14     	; 0x443a <ldexp+0x68>
    4448:	99 23       	and	r25, r25
    444a:	d1 f3       	breq	.-12     	; 0x4440 <ldexp+0x6e>
    444c:	c6 f3       	brts	.-16     	; 0x443e <ldexp+0x6c>
    444e:	df 93       	push	r29
    4450:	cf 93       	push	r28
    4452:	1f 93       	push	r17
    4454:	0f 93       	push	r16
    4456:	ff 92       	push	r15
    4458:	c9 2f       	mov	r28, r25
    445a:	dd 27       	eor	r29, r29
    445c:	88 23       	and	r24, r24
    445e:	2a f0       	brmi	.+10     	; 0x446a <log+0x26>
    4460:	21 97       	sbiw	r28, 0x01	; 1
    4462:	66 0f       	add	r22, r22
    4464:	77 1f       	adc	r23, r23
    4466:	88 1f       	adc	r24, r24
    4468:	da f7       	brpl	.-10     	; 0x4460 <log+0x1c>
    446a:	20 e0       	ldi	r18, 0x00	; 0
    446c:	30 e0       	ldi	r19, 0x00	; 0
    446e:	40 e8       	ldi	r20, 0x80	; 128
    4470:	5f eb       	ldi	r21, 0xBF	; 191
    4472:	9f e3       	ldi	r25, 0x3F	; 63
    4474:	88 39       	cpi	r24, 0x98	; 152
    4476:	20 f0       	brcs	.+8      	; 0x4480 <log+0x3c>
    4478:	80 3e       	cpi	r24, 0xE0	; 224
    447a:	30 f0       	brcs	.+12     	; 0x4488 <log+0x44>
    447c:	21 96       	adiw	r28, 0x01	; 1
    447e:	8f 77       	andi	r24, 0x7F	; 127
    4480:	14 dd       	rcall	.-1496   	; 0x3eaa <__addsf3>
    4482:	ec eb       	ldi	r30, 0xBC	; 188
    4484:	f1 e0       	ldi	r31, 0x01	; 1
    4486:	03 c0       	rjmp	.+6      	; 0x448e <log+0x4a>
    4488:	10 dd       	rcall	.-1504   	; 0x3eaa <__addsf3>
    448a:	e9 ee       	ldi	r30, 0xE9	; 233
    448c:	f1 e0       	ldi	r31, 0x01	; 1
    448e:	73 df       	rcall	.-282    	; 0x4376 <__fp_powser>
    4490:	8b 01       	movw	r16, r22
    4492:	be 01       	movw	r22, r28
    4494:	ec 01       	movw	r28, r24
    4496:	fb 2e       	mov	r15, r27
    4498:	6f 57       	subi	r22, 0x7F	; 127
    449a:	71 09       	sbc	r23, r1
    449c:	75 95       	asr	r23
    449e:	77 1f       	adc	r23, r23
    44a0:	88 0b       	sbc	r24, r24
    44a2:	99 0b       	sbc	r25, r25
    44a4:	fc dd       	rcall	.-1032   	; 0x409e <__floatsisf>
    44a6:	28 e1       	ldi	r18, 0x18	; 24
    44a8:	32 e7       	ldi	r19, 0x72	; 114
    44aa:	41 e3       	ldi	r20, 0x31	; 49
    44ac:	5f e3       	ldi	r21, 0x3F	; 63
    44ae:	8f de       	rcall	.-738    	; 0x41ce <__mulsf3x>
    44b0:	af 2d       	mov	r26, r15
    44b2:	98 01       	movw	r18, r16
    44b4:	ae 01       	movw	r20, r28
    44b6:	ff 90       	pop	r15
    44b8:	0f 91       	pop	r16
    44ba:	1f 91       	pop	r17
    44bc:	cf 91       	pop	r28
    44be:	df 91       	pop	r29
    44c0:	05 dd       	rcall	.-1526   	; 0x3ecc <__addsf3x>
    44c2:	3f ce       	rjmp	.-898    	; 0x4142 <__fp_round>

000044c4 <modf>:
    44c4:	fa 01       	movw	r30, r20
    44c6:	dc 01       	movw	r26, r24
    44c8:	aa 0f       	add	r26, r26
    44ca:	bb 1f       	adc	r27, r27
    44cc:	9b 01       	movw	r18, r22
    44ce:	ac 01       	movw	r20, r24
    44d0:	bf 57       	subi	r27, 0x7F	; 127
    44d2:	28 f4       	brcc	.+10     	; 0x44de <modf+0x1a>
    44d4:	22 27       	eor	r18, r18
    44d6:	33 27       	eor	r19, r19
    44d8:	44 27       	eor	r20, r20
    44da:	50 78       	andi	r21, 0x80	; 128
    44dc:	1f c0       	rjmp	.+62     	; 0x451c <modf+0x58>
    44de:	b7 51       	subi	r27, 0x17	; 23
    44e0:	88 f4       	brcc	.+34     	; 0x4504 <modf+0x40>
    44e2:	ab 2f       	mov	r26, r27
    44e4:	00 24       	eor	r0, r0
    44e6:	46 95       	lsr	r20
    44e8:	37 95       	ror	r19
    44ea:	27 95       	ror	r18
    44ec:	01 1c       	adc	r0, r1
    44ee:	a3 95       	inc	r26
    44f0:	d2 f3       	brmi	.-12     	; 0x44e6 <modf+0x22>
    44f2:	00 20       	and	r0, r0
    44f4:	69 f0       	breq	.+26     	; 0x4510 <modf+0x4c>
    44f6:	22 0f       	add	r18, r18
    44f8:	33 1f       	adc	r19, r19
    44fa:	44 1f       	adc	r20, r20
    44fc:	b3 95       	inc	r27
    44fe:	da f3       	brmi	.-10     	; 0x44f6 <modf+0x32>
    4500:	0d d0       	rcall	.+26     	; 0x451c <modf+0x58>
    4502:	d2 cc       	rjmp	.-1628   	; 0x3ea8 <__subsf3>
    4504:	61 30       	cpi	r22, 0x01	; 1
    4506:	71 05       	cpc	r23, r1
    4508:	a0 e8       	ldi	r26, 0x80	; 128
    450a:	8a 07       	cpc	r24, r26
    450c:	b9 46       	sbci	r27, 0x69	; 105
    450e:	30 f4       	brcc	.+12     	; 0x451c <modf+0x58>
    4510:	9b 01       	movw	r18, r22
    4512:	ac 01       	movw	r20, r24
    4514:	66 27       	eor	r22, r22
    4516:	77 27       	eor	r23, r23
    4518:	88 27       	eor	r24, r24
    451a:	90 78       	andi	r25, 0x80	; 128
    451c:	30 96       	adiw	r30, 0x00	; 0
    451e:	21 f0       	breq	.+8      	; 0x4528 <modf+0x64>
    4520:	20 83       	st	Z, r18
    4522:	31 83       	std	Z+1, r19	; 0x01
    4524:	42 83       	std	Z+2, r20	; 0x02
    4526:	53 83       	std	Z+3, r21	; 0x03
    4528:	08 95       	ret

0000452a <__fp_mpack>:
    452a:	9f 3f       	cpi	r25, 0xFF	; 255
    452c:	31 f0       	breq	.+12     	; 0x453a <__fp_mpack_finite+0xc>

0000452e <__fp_mpack_finite>:
    452e:	91 50       	subi	r25, 0x01	; 1
    4530:	20 f4       	brcc	.+8      	; 0x453a <__fp_mpack_finite+0xc>
    4532:	87 95       	ror	r24
    4534:	77 95       	ror	r23
    4536:	67 95       	ror	r22
    4538:	b7 95       	ror	r27
    453a:	88 0f       	add	r24, r24
    453c:	91 1d       	adc	r25, r1
    453e:	96 95       	lsr	r25
    4540:	87 95       	ror	r24
    4542:	97 f9       	bld	r25, 7
    4544:	08 95       	ret

00004546 <__udivmodsi4>:
    4546:	a1 e2       	ldi	r26, 0x21	; 33
    4548:	1a 2e       	mov	r1, r26
    454a:	aa 1b       	sub	r26, r26
    454c:	bb 1b       	sub	r27, r27
    454e:	fd 01       	movw	r30, r26
    4550:	0d c0       	rjmp	.+26     	; 0x456c <__udivmodsi4_ep>

00004552 <__udivmodsi4_loop>:
    4552:	aa 1f       	adc	r26, r26
    4554:	bb 1f       	adc	r27, r27
    4556:	ee 1f       	adc	r30, r30
    4558:	ff 1f       	adc	r31, r31
    455a:	a2 17       	cp	r26, r18
    455c:	b3 07       	cpc	r27, r19
    455e:	e4 07       	cpc	r30, r20
    4560:	f5 07       	cpc	r31, r21
    4562:	20 f0       	brcs	.+8      	; 0x456c <__udivmodsi4_ep>
    4564:	a2 1b       	sub	r26, r18
    4566:	b3 0b       	sbc	r27, r19
    4568:	e4 0b       	sbc	r30, r20
    456a:	f5 0b       	sbc	r31, r21

0000456c <__udivmodsi4_ep>:
    456c:	66 1f       	adc	r22, r22
    456e:	77 1f       	adc	r23, r23
    4570:	88 1f       	adc	r24, r24
    4572:	99 1f       	adc	r25, r25
    4574:	1a 94       	dec	r1
    4576:	69 f7       	brne	.-38     	; 0x4552 <__udivmodsi4_loop>
    4578:	60 95       	com	r22
    457a:	70 95       	com	r23
    457c:	80 95       	com	r24
    457e:	90 95       	com	r25
    4580:	9b 01       	movw	r18, r22
    4582:	ac 01       	movw	r20, r24
    4584:	bd 01       	movw	r22, r26
    4586:	cf 01       	movw	r24, r30
    4588:	08 95       	ret

0000458a <__tablejump2__>:
    458a:	ee 0f       	add	r30, r30
    458c:	ff 1f       	adc	r31, r31
    458e:	88 1f       	adc	r24, r24
    4590:	8b bf       	out	0x3b, r24	; 59
    4592:	07 90       	elpm	r0, Z+
    4594:	f6 91       	elpm	r31, Z
    4596:	e0 2d       	mov	r30, r0
    4598:	19 94       	eijmp

0000459a <__muluhisi3>:
    459a:	09 d0       	rcall	.+18     	; 0x45ae <__umulhisi3>
    459c:	a5 9f       	mul	r26, r21
    459e:	90 0d       	add	r25, r0
    45a0:	b4 9f       	mul	r27, r20
    45a2:	90 0d       	add	r25, r0
    45a4:	a4 9f       	mul	r26, r20
    45a6:	80 0d       	add	r24, r0
    45a8:	91 1d       	adc	r25, r1
    45aa:	11 24       	eor	r1, r1
    45ac:	08 95       	ret

000045ae <__umulhisi3>:
    45ae:	a2 9f       	mul	r26, r18
    45b0:	b0 01       	movw	r22, r0
    45b2:	b3 9f       	mul	r27, r19
    45b4:	c0 01       	movw	r24, r0
    45b6:	a3 9f       	mul	r26, r19
    45b8:	70 0d       	add	r23, r0
    45ba:	81 1d       	adc	r24, r1
    45bc:	11 24       	eor	r1, r1
    45be:	91 1d       	adc	r25, r1
    45c0:	b2 9f       	mul	r27, r18
    45c2:	70 0d       	add	r23, r0
    45c4:	81 1d       	adc	r24, r1
    45c6:	11 24       	eor	r1, r1
    45c8:	91 1d       	adc	r25, r1
    45ca:	08 95       	ret

000045cc <dtostrf>:
    45cc:	ef 92       	push	r14
    45ce:	0f 93       	push	r16
    45d0:	1f 93       	push	r17
    45d2:	cf 93       	push	r28
    45d4:	df 93       	push	r29
    45d6:	e8 01       	movw	r28, r16
    45d8:	47 fd       	sbrc	r20, 7
    45da:	02 c0       	rjmp	.+4      	; 0x45e0 <dtostrf+0x14>
    45dc:	34 e0       	ldi	r19, 0x04	; 4
    45de:	01 c0       	rjmp	.+2      	; 0x45e2 <dtostrf+0x16>
    45e0:	34 e1       	ldi	r19, 0x14	; 20
    45e2:	04 2e       	mov	r0, r20
    45e4:	00 0c       	add	r0, r0
    45e6:	55 0b       	sbc	r21, r21
    45e8:	57 ff       	sbrs	r21, 7
    45ea:	03 c0       	rjmp	.+6      	; 0x45f2 <dtostrf+0x26>
    45ec:	51 95       	neg	r21
    45ee:	41 95       	neg	r20
    45f0:	51 09       	sbc	r21, r1
    45f2:	e3 2e       	mov	r14, r19
    45f4:	02 2f       	mov	r16, r18
    45f6:	24 2f       	mov	r18, r20
    45f8:	ae 01       	movw	r20, r28
    45fa:	39 d2       	rcall	.+1138   	; 0x4a6e <dtoa_prf>
    45fc:	ce 01       	movw	r24, r28
    45fe:	df 91       	pop	r29
    4600:	cf 91       	pop	r28
    4602:	1f 91       	pop	r17
    4604:	0f 91       	pop	r16
    4606:	ef 90       	pop	r14
    4608:	08 95       	ret

0000460a <memset>:
    460a:	dc 01       	movw	r26, r24
    460c:	01 c0       	rjmp	.+2      	; 0x4610 <memset+0x6>
    460e:	6d 93       	st	X+, r22
    4610:	41 50       	subi	r20, 0x01	; 1
    4612:	50 40       	sbci	r21, 0x00	; 0
    4614:	e0 f7       	brcc	.-8      	; 0x460e <memset+0x4>
    4616:	08 95       	ret

00004618 <sprintf>:
    4618:	0f 93       	push	r16
    461a:	1f 93       	push	r17
    461c:	cf 93       	push	r28
    461e:	df 93       	push	r29
    4620:	cd b7       	in	r28, 0x3d	; 61
    4622:	de b7       	in	r29, 0x3e	; 62
    4624:	2e 97       	sbiw	r28, 0x0e	; 14
    4626:	0f b6       	in	r0, 0x3f	; 63
    4628:	f8 94       	cli
    462a:	de bf       	out	0x3e, r29	; 62
    462c:	0f be       	out	0x3f, r0	; 63
    462e:	cd bf       	out	0x3d, r28	; 61
    4630:	0e 89       	ldd	r16, Y+22	; 0x16
    4632:	1f 89       	ldd	r17, Y+23	; 0x17
    4634:	86 e0       	ldi	r24, 0x06	; 6
    4636:	8c 83       	std	Y+4, r24	; 0x04
    4638:	1a 83       	std	Y+2, r17	; 0x02
    463a:	09 83       	std	Y+1, r16	; 0x01
    463c:	8f ef       	ldi	r24, 0xFF	; 255
    463e:	9f e7       	ldi	r25, 0x7F	; 127
    4640:	9e 83       	std	Y+6, r25	; 0x06
    4642:	8d 83       	std	Y+5, r24	; 0x05
    4644:	ae 01       	movw	r20, r28
    4646:	46 5e       	subi	r20, 0xE6	; 230
    4648:	5f 4f       	sbci	r21, 0xFF	; 255
    464a:	68 8d       	ldd	r22, Y+24	; 0x18
    464c:	79 8d       	ldd	r23, Y+25	; 0x19
    464e:	ce 01       	movw	r24, r28
    4650:	01 96       	adiw	r24, 0x01	; 1
    4652:	10 d0       	rcall	.+32     	; 0x4674 <vfprintf>
    4654:	ef 81       	ldd	r30, Y+7	; 0x07
    4656:	f8 85       	ldd	r31, Y+8	; 0x08
    4658:	e0 0f       	add	r30, r16
    465a:	f1 1f       	adc	r31, r17
    465c:	10 82       	st	Z, r1
    465e:	2e 96       	adiw	r28, 0x0e	; 14
    4660:	0f b6       	in	r0, 0x3f	; 63
    4662:	f8 94       	cli
    4664:	de bf       	out	0x3e, r29	; 62
    4666:	0f be       	out	0x3f, r0	; 63
    4668:	cd bf       	out	0x3d, r28	; 61
    466a:	df 91       	pop	r29
    466c:	cf 91       	pop	r28
    466e:	1f 91       	pop	r17
    4670:	0f 91       	pop	r16
    4672:	08 95       	ret

00004674 <vfprintf>:
    4674:	2f 92       	push	r2
    4676:	3f 92       	push	r3
    4678:	4f 92       	push	r4
    467a:	5f 92       	push	r5
    467c:	6f 92       	push	r6
    467e:	7f 92       	push	r7
    4680:	8f 92       	push	r8
    4682:	9f 92       	push	r9
    4684:	af 92       	push	r10
    4686:	bf 92       	push	r11
    4688:	cf 92       	push	r12
    468a:	df 92       	push	r13
    468c:	ef 92       	push	r14
    468e:	ff 92       	push	r15
    4690:	0f 93       	push	r16
    4692:	1f 93       	push	r17
    4694:	cf 93       	push	r28
    4696:	df 93       	push	r29
    4698:	cd b7       	in	r28, 0x3d	; 61
    469a:	de b7       	in	r29, 0x3e	; 62
    469c:	2b 97       	sbiw	r28, 0x0b	; 11
    469e:	0f b6       	in	r0, 0x3f	; 63
    46a0:	f8 94       	cli
    46a2:	de bf       	out	0x3e, r29	; 62
    46a4:	0f be       	out	0x3f, r0	; 63
    46a6:	cd bf       	out	0x3d, r28	; 61
    46a8:	6c 01       	movw	r12, r24
    46aa:	7b 01       	movw	r14, r22
    46ac:	8a 01       	movw	r16, r20
    46ae:	fc 01       	movw	r30, r24
    46b0:	17 82       	std	Z+7, r1	; 0x07
    46b2:	16 82       	std	Z+6, r1	; 0x06
    46b4:	83 81       	ldd	r24, Z+3	; 0x03
    46b6:	81 ff       	sbrs	r24, 1
    46b8:	bf c1       	rjmp	.+894    	; 0x4a38 <vfprintf+0x3c4>
    46ba:	ce 01       	movw	r24, r28
    46bc:	01 96       	adiw	r24, 0x01	; 1
    46be:	3c 01       	movw	r6, r24
    46c0:	f6 01       	movw	r30, r12
    46c2:	93 81       	ldd	r25, Z+3	; 0x03
    46c4:	f7 01       	movw	r30, r14
    46c6:	93 fd       	sbrc	r25, 3
    46c8:	85 91       	lpm	r24, Z+
    46ca:	93 ff       	sbrs	r25, 3
    46cc:	81 91       	ld	r24, Z+
    46ce:	7f 01       	movw	r14, r30
    46d0:	88 23       	and	r24, r24
    46d2:	09 f4       	brne	.+2      	; 0x46d6 <vfprintf+0x62>
    46d4:	ad c1       	rjmp	.+858    	; 0x4a30 <vfprintf+0x3bc>
    46d6:	85 32       	cpi	r24, 0x25	; 37
    46d8:	39 f4       	brne	.+14     	; 0x46e8 <vfprintf+0x74>
    46da:	93 fd       	sbrc	r25, 3
    46dc:	85 91       	lpm	r24, Z+
    46de:	93 ff       	sbrs	r25, 3
    46e0:	81 91       	ld	r24, Z+
    46e2:	7f 01       	movw	r14, r30
    46e4:	85 32       	cpi	r24, 0x25	; 37
    46e6:	21 f4       	brne	.+8      	; 0x46f0 <vfprintf+0x7c>
    46e8:	b6 01       	movw	r22, r12
    46ea:	90 e0       	ldi	r25, 0x00	; 0
    46ec:	24 d4       	rcall	.+2120   	; 0x4f36 <fputc>
    46ee:	e8 cf       	rjmp	.-48     	; 0x46c0 <vfprintf+0x4c>
    46f0:	91 2c       	mov	r9, r1
    46f2:	21 2c       	mov	r2, r1
    46f4:	31 2c       	mov	r3, r1
    46f6:	ff e1       	ldi	r31, 0x1F	; 31
    46f8:	f3 15       	cp	r31, r3
    46fa:	d8 f0       	brcs	.+54     	; 0x4732 <vfprintf+0xbe>
    46fc:	8b 32       	cpi	r24, 0x2B	; 43
    46fe:	79 f0       	breq	.+30     	; 0x471e <vfprintf+0xaa>
    4700:	38 f4       	brcc	.+14     	; 0x4710 <vfprintf+0x9c>
    4702:	80 32       	cpi	r24, 0x20	; 32
    4704:	79 f0       	breq	.+30     	; 0x4724 <vfprintf+0xb0>
    4706:	83 32       	cpi	r24, 0x23	; 35
    4708:	a1 f4       	brne	.+40     	; 0x4732 <vfprintf+0xbe>
    470a:	23 2d       	mov	r18, r3
    470c:	20 61       	ori	r18, 0x10	; 16
    470e:	1d c0       	rjmp	.+58     	; 0x474a <vfprintf+0xd6>
    4710:	8d 32       	cpi	r24, 0x2D	; 45
    4712:	61 f0       	breq	.+24     	; 0x472c <vfprintf+0xb8>
    4714:	80 33       	cpi	r24, 0x30	; 48
    4716:	69 f4       	brne	.+26     	; 0x4732 <vfprintf+0xbe>
    4718:	23 2d       	mov	r18, r3
    471a:	21 60       	ori	r18, 0x01	; 1
    471c:	16 c0       	rjmp	.+44     	; 0x474a <vfprintf+0xd6>
    471e:	83 2d       	mov	r24, r3
    4720:	82 60       	ori	r24, 0x02	; 2
    4722:	38 2e       	mov	r3, r24
    4724:	e3 2d       	mov	r30, r3
    4726:	e4 60       	ori	r30, 0x04	; 4
    4728:	3e 2e       	mov	r3, r30
    472a:	2a c0       	rjmp	.+84     	; 0x4780 <vfprintf+0x10c>
    472c:	f3 2d       	mov	r31, r3
    472e:	f8 60       	ori	r31, 0x08	; 8
    4730:	1d c0       	rjmp	.+58     	; 0x476c <vfprintf+0xf8>
    4732:	37 fc       	sbrc	r3, 7
    4734:	2d c0       	rjmp	.+90     	; 0x4790 <vfprintf+0x11c>
    4736:	20 ed       	ldi	r18, 0xD0	; 208
    4738:	28 0f       	add	r18, r24
    473a:	2a 30       	cpi	r18, 0x0A	; 10
    473c:	40 f0       	brcs	.+16     	; 0x474e <vfprintf+0xda>
    473e:	8e 32       	cpi	r24, 0x2E	; 46
    4740:	b9 f4       	brne	.+46     	; 0x4770 <vfprintf+0xfc>
    4742:	36 fc       	sbrc	r3, 6
    4744:	75 c1       	rjmp	.+746    	; 0x4a30 <vfprintf+0x3bc>
    4746:	23 2d       	mov	r18, r3
    4748:	20 64       	ori	r18, 0x40	; 64
    474a:	32 2e       	mov	r3, r18
    474c:	19 c0       	rjmp	.+50     	; 0x4780 <vfprintf+0x10c>
    474e:	36 fe       	sbrs	r3, 6
    4750:	06 c0       	rjmp	.+12     	; 0x475e <vfprintf+0xea>
    4752:	8a e0       	ldi	r24, 0x0A	; 10
    4754:	98 9e       	mul	r9, r24
    4756:	20 0d       	add	r18, r0
    4758:	11 24       	eor	r1, r1
    475a:	92 2e       	mov	r9, r18
    475c:	11 c0       	rjmp	.+34     	; 0x4780 <vfprintf+0x10c>
    475e:	ea e0       	ldi	r30, 0x0A	; 10
    4760:	2e 9e       	mul	r2, r30
    4762:	20 0d       	add	r18, r0
    4764:	11 24       	eor	r1, r1
    4766:	22 2e       	mov	r2, r18
    4768:	f3 2d       	mov	r31, r3
    476a:	f0 62       	ori	r31, 0x20	; 32
    476c:	3f 2e       	mov	r3, r31
    476e:	08 c0       	rjmp	.+16     	; 0x4780 <vfprintf+0x10c>
    4770:	8c 36       	cpi	r24, 0x6C	; 108
    4772:	21 f4       	brne	.+8      	; 0x477c <vfprintf+0x108>
    4774:	83 2d       	mov	r24, r3
    4776:	80 68       	ori	r24, 0x80	; 128
    4778:	38 2e       	mov	r3, r24
    477a:	02 c0       	rjmp	.+4      	; 0x4780 <vfprintf+0x10c>
    477c:	88 36       	cpi	r24, 0x68	; 104
    477e:	41 f4       	brne	.+16     	; 0x4790 <vfprintf+0x11c>
    4780:	f7 01       	movw	r30, r14
    4782:	93 fd       	sbrc	r25, 3
    4784:	85 91       	lpm	r24, Z+
    4786:	93 ff       	sbrs	r25, 3
    4788:	81 91       	ld	r24, Z+
    478a:	7f 01       	movw	r14, r30
    478c:	81 11       	cpse	r24, r1
    478e:	b3 cf       	rjmp	.-154    	; 0x46f6 <vfprintf+0x82>
    4790:	98 2f       	mov	r25, r24
    4792:	9f 7d       	andi	r25, 0xDF	; 223
    4794:	95 54       	subi	r25, 0x45	; 69
    4796:	93 30       	cpi	r25, 0x03	; 3
    4798:	28 f4       	brcc	.+10     	; 0x47a4 <vfprintf+0x130>
    479a:	0c 5f       	subi	r16, 0xFC	; 252
    479c:	1f 4f       	sbci	r17, 0xFF	; 255
    479e:	9f e3       	ldi	r25, 0x3F	; 63
    47a0:	99 83       	std	Y+1, r25	; 0x01
    47a2:	0d c0       	rjmp	.+26     	; 0x47be <vfprintf+0x14a>
    47a4:	83 36       	cpi	r24, 0x63	; 99
    47a6:	31 f0       	breq	.+12     	; 0x47b4 <vfprintf+0x140>
    47a8:	83 37       	cpi	r24, 0x73	; 115
    47aa:	71 f0       	breq	.+28     	; 0x47c8 <vfprintf+0x154>
    47ac:	83 35       	cpi	r24, 0x53	; 83
    47ae:	09 f0       	breq	.+2      	; 0x47b2 <vfprintf+0x13e>
    47b0:	55 c0       	rjmp	.+170    	; 0x485c <vfprintf+0x1e8>
    47b2:	20 c0       	rjmp	.+64     	; 0x47f4 <vfprintf+0x180>
    47b4:	f8 01       	movw	r30, r16
    47b6:	80 81       	ld	r24, Z
    47b8:	89 83       	std	Y+1, r24	; 0x01
    47ba:	0e 5f       	subi	r16, 0xFE	; 254
    47bc:	1f 4f       	sbci	r17, 0xFF	; 255
    47be:	88 24       	eor	r8, r8
    47c0:	83 94       	inc	r8
    47c2:	91 2c       	mov	r9, r1
    47c4:	53 01       	movw	r10, r6
    47c6:	12 c0       	rjmp	.+36     	; 0x47ec <vfprintf+0x178>
    47c8:	28 01       	movw	r4, r16
    47ca:	f2 e0       	ldi	r31, 0x02	; 2
    47cc:	4f 0e       	add	r4, r31
    47ce:	51 1c       	adc	r5, r1
    47d0:	f8 01       	movw	r30, r16
    47d2:	a0 80       	ld	r10, Z
    47d4:	b1 80       	ldd	r11, Z+1	; 0x01
    47d6:	36 fe       	sbrs	r3, 6
    47d8:	03 c0       	rjmp	.+6      	; 0x47e0 <vfprintf+0x16c>
    47da:	69 2d       	mov	r22, r9
    47dc:	70 e0       	ldi	r23, 0x00	; 0
    47de:	02 c0       	rjmp	.+4      	; 0x47e4 <vfprintf+0x170>
    47e0:	6f ef       	ldi	r22, 0xFF	; 255
    47e2:	7f ef       	ldi	r23, 0xFF	; 255
    47e4:	c5 01       	movw	r24, r10
    47e6:	9c d3       	rcall	.+1848   	; 0x4f20 <strnlen>
    47e8:	4c 01       	movw	r8, r24
    47ea:	82 01       	movw	r16, r4
    47ec:	f3 2d       	mov	r31, r3
    47ee:	ff 77       	andi	r31, 0x7F	; 127
    47f0:	3f 2e       	mov	r3, r31
    47f2:	15 c0       	rjmp	.+42     	; 0x481e <vfprintf+0x1aa>
    47f4:	28 01       	movw	r4, r16
    47f6:	22 e0       	ldi	r18, 0x02	; 2
    47f8:	42 0e       	add	r4, r18
    47fa:	51 1c       	adc	r5, r1
    47fc:	f8 01       	movw	r30, r16
    47fe:	a0 80       	ld	r10, Z
    4800:	b1 80       	ldd	r11, Z+1	; 0x01
    4802:	36 fe       	sbrs	r3, 6
    4804:	03 c0       	rjmp	.+6      	; 0x480c <vfprintf+0x198>
    4806:	69 2d       	mov	r22, r9
    4808:	70 e0       	ldi	r23, 0x00	; 0
    480a:	02 c0       	rjmp	.+4      	; 0x4810 <vfprintf+0x19c>
    480c:	6f ef       	ldi	r22, 0xFF	; 255
    480e:	7f ef       	ldi	r23, 0xFF	; 255
    4810:	c5 01       	movw	r24, r10
    4812:	7b d3       	rcall	.+1782   	; 0x4f0a <strnlen_P>
    4814:	4c 01       	movw	r8, r24
    4816:	f3 2d       	mov	r31, r3
    4818:	f0 68       	ori	r31, 0x80	; 128
    481a:	3f 2e       	mov	r3, r31
    481c:	82 01       	movw	r16, r4
    481e:	33 fc       	sbrc	r3, 3
    4820:	19 c0       	rjmp	.+50     	; 0x4854 <vfprintf+0x1e0>
    4822:	82 2d       	mov	r24, r2
    4824:	90 e0       	ldi	r25, 0x00	; 0
    4826:	88 16       	cp	r8, r24
    4828:	99 06       	cpc	r9, r25
    482a:	a0 f4       	brcc	.+40     	; 0x4854 <vfprintf+0x1e0>
    482c:	b6 01       	movw	r22, r12
    482e:	80 e2       	ldi	r24, 0x20	; 32
    4830:	90 e0       	ldi	r25, 0x00	; 0
    4832:	81 d3       	rcall	.+1794   	; 0x4f36 <fputc>
    4834:	2a 94       	dec	r2
    4836:	f5 cf       	rjmp	.-22     	; 0x4822 <vfprintf+0x1ae>
    4838:	f5 01       	movw	r30, r10
    483a:	37 fc       	sbrc	r3, 7
    483c:	85 91       	lpm	r24, Z+
    483e:	37 fe       	sbrs	r3, 7
    4840:	81 91       	ld	r24, Z+
    4842:	5f 01       	movw	r10, r30
    4844:	b6 01       	movw	r22, r12
    4846:	90 e0       	ldi	r25, 0x00	; 0
    4848:	76 d3       	rcall	.+1772   	; 0x4f36 <fputc>
    484a:	21 10       	cpse	r2, r1
    484c:	2a 94       	dec	r2
    484e:	21 e0       	ldi	r18, 0x01	; 1
    4850:	82 1a       	sub	r8, r18
    4852:	91 08       	sbc	r9, r1
    4854:	81 14       	cp	r8, r1
    4856:	91 04       	cpc	r9, r1
    4858:	79 f7       	brne	.-34     	; 0x4838 <vfprintf+0x1c4>
    485a:	e1 c0       	rjmp	.+450    	; 0x4a1e <vfprintf+0x3aa>
    485c:	84 36       	cpi	r24, 0x64	; 100
    485e:	11 f0       	breq	.+4      	; 0x4864 <vfprintf+0x1f0>
    4860:	89 36       	cpi	r24, 0x69	; 105
    4862:	39 f5       	brne	.+78     	; 0x48b2 <vfprintf+0x23e>
    4864:	f8 01       	movw	r30, r16
    4866:	37 fe       	sbrs	r3, 7
    4868:	07 c0       	rjmp	.+14     	; 0x4878 <vfprintf+0x204>
    486a:	60 81       	ld	r22, Z
    486c:	71 81       	ldd	r23, Z+1	; 0x01
    486e:	82 81       	ldd	r24, Z+2	; 0x02
    4870:	93 81       	ldd	r25, Z+3	; 0x03
    4872:	0c 5f       	subi	r16, 0xFC	; 252
    4874:	1f 4f       	sbci	r17, 0xFF	; 255
    4876:	08 c0       	rjmp	.+16     	; 0x4888 <vfprintf+0x214>
    4878:	60 81       	ld	r22, Z
    487a:	71 81       	ldd	r23, Z+1	; 0x01
    487c:	07 2e       	mov	r0, r23
    487e:	00 0c       	add	r0, r0
    4880:	88 0b       	sbc	r24, r24
    4882:	99 0b       	sbc	r25, r25
    4884:	0e 5f       	subi	r16, 0xFE	; 254
    4886:	1f 4f       	sbci	r17, 0xFF	; 255
    4888:	f3 2d       	mov	r31, r3
    488a:	ff 76       	andi	r31, 0x6F	; 111
    488c:	3f 2e       	mov	r3, r31
    488e:	97 ff       	sbrs	r25, 7
    4890:	09 c0       	rjmp	.+18     	; 0x48a4 <vfprintf+0x230>
    4892:	90 95       	com	r25
    4894:	80 95       	com	r24
    4896:	70 95       	com	r23
    4898:	61 95       	neg	r22
    489a:	7f 4f       	sbci	r23, 0xFF	; 255
    489c:	8f 4f       	sbci	r24, 0xFF	; 255
    489e:	9f 4f       	sbci	r25, 0xFF	; 255
    48a0:	f0 68       	ori	r31, 0x80	; 128
    48a2:	3f 2e       	mov	r3, r31
    48a4:	2a e0       	ldi	r18, 0x0A	; 10
    48a6:	30 e0       	ldi	r19, 0x00	; 0
    48a8:	a3 01       	movw	r20, r6
    48aa:	81 d3       	rcall	.+1794   	; 0x4fae <__ultoa_invert>
    48ac:	88 2e       	mov	r8, r24
    48ae:	86 18       	sub	r8, r6
    48b0:	44 c0       	rjmp	.+136    	; 0x493a <vfprintf+0x2c6>
    48b2:	85 37       	cpi	r24, 0x75	; 117
    48b4:	31 f4       	brne	.+12     	; 0x48c2 <vfprintf+0x24e>
    48b6:	23 2d       	mov	r18, r3
    48b8:	2f 7e       	andi	r18, 0xEF	; 239
    48ba:	b2 2e       	mov	r11, r18
    48bc:	2a e0       	ldi	r18, 0x0A	; 10
    48be:	30 e0       	ldi	r19, 0x00	; 0
    48c0:	25 c0       	rjmp	.+74     	; 0x490c <vfprintf+0x298>
    48c2:	93 2d       	mov	r25, r3
    48c4:	99 7f       	andi	r25, 0xF9	; 249
    48c6:	b9 2e       	mov	r11, r25
    48c8:	8f 36       	cpi	r24, 0x6F	; 111
    48ca:	c1 f0       	breq	.+48     	; 0x48fc <vfprintf+0x288>
    48cc:	18 f4       	brcc	.+6      	; 0x48d4 <vfprintf+0x260>
    48ce:	88 35       	cpi	r24, 0x58	; 88
    48d0:	79 f0       	breq	.+30     	; 0x48f0 <vfprintf+0x27c>
    48d2:	ae c0       	rjmp	.+348    	; 0x4a30 <vfprintf+0x3bc>
    48d4:	80 37       	cpi	r24, 0x70	; 112
    48d6:	19 f0       	breq	.+6      	; 0x48de <vfprintf+0x26a>
    48d8:	88 37       	cpi	r24, 0x78	; 120
    48da:	21 f0       	breq	.+8      	; 0x48e4 <vfprintf+0x270>
    48dc:	a9 c0       	rjmp	.+338    	; 0x4a30 <vfprintf+0x3bc>
    48de:	e9 2f       	mov	r30, r25
    48e0:	e0 61       	ori	r30, 0x10	; 16
    48e2:	be 2e       	mov	r11, r30
    48e4:	b4 fe       	sbrs	r11, 4
    48e6:	0d c0       	rjmp	.+26     	; 0x4902 <vfprintf+0x28e>
    48e8:	fb 2d       	mov	r31, r11
    48ea:	f4 60       	ori	r31, 0x04	; 4
    48ec:	bf 2e       	mov	r11, r31
    48ee:	09 c0       	rjmp	.+18     	; 0x4902 <vfprintf+0x28e>
    48f0:	34 fe       	sbrs	r3, 4
    48f2:	0a c0       	rjmp	.+20     	; 0x4908 <vfprintf+0x294>
    48f4:	29 2f       	mov	r18, r25
    48f6:	26 60       	ori	r18, 0x06	; 6
    48f8:	b2 2e       	mov	r11, r18
    48fa:	06 c0       	rjmp	.+12     	; 0x4908 <vfprintf+0x294>
    48fc:	28 e0       	ldi	r18, 0x08	; 8
    48fe:	30 e0       	ldi	r19, 0x00	; 0
    4900:	05 c0       	rjmp	.+10     	; 0x490c <vfprintf+0x298>
    4902:	20 e1       	ldi	r18, 0x10	; 16
    4904:	30 e0       	ldi	r19, 0x00	; 0
    4906:	02 c0       	rjmp	.+4      	; 0x490c <vfprintf+0x298>
    4908:	20 e1       	ldi	r18, 0x10	; 16
    490a:	32 e0       	ldi	r19, 0x02	; 2
    490c:	f8 01       	movw	r30, r16
    490e:	b7 fe       	sbrs	r11, 7
    4910:	07 c0       	rjmp	.+14     	; 0x4920 <vfprintf+0x2ac>
    4912:	60 81       	ld	r22, Z
    4914:	71 81       	ldd	r23, Z+1	; 0x01
    4916:	82 81       	ldd	r24, Z+2	; 0x02
    4918:	93 81       	ldd	r25, Z+3	; 0x03
    491a:	0c 5f       	subi	r16, 0xFC	; 252
    491c:	1f 4f       	sbci	r17, 0xFF	; 255
    491e:	06 c0       	rjmp	.+12     	; 0x492c <vfprintf+0x2b8>
    4920:	60 81       	ld	r22, Z
    4922:	71 81       	ldd	r23, Z+1	; 0x01
    4924:	80 e0       	ldi	r24, 0x00	; 0
    4926:	90 e0       	ldi	r25, 0x00	; 0
    4928:	0e 5f       	subi	r16, 0xFE	; 254
    492a:	1f 4f       	sbci	r17, 0xFF	; 255
    492c:	a3 01       	movw	r20, r6
    492e:	3f d3       	rcall	.+1662   	; 0x4fae <__ultoa_invert>
    4930:	88 2e       	mov	r8, r24
    4932:	86 18       	sub	r8, r6
    4934:	fb 2d       	mov	r31, r11
    4936:	ff 77       	andi	r31, 0x7F	; 127
    4938:	3f 2e       	mov	r3, r31
    493a:	36 fe       	sbrs	r3, 6
    493c:	0d c0       	rjmp	.+26     	; 0x4958 <vfprintf+0x2e4>
    493e:	23 2d       	mov	r18, r3
    4940:	2e 7f       	andi	r18, 0xFE	; 254
    4942:	a2 2e       	mov	r10, r18
    4944:	89 14       	cp	r8, r9
    4946:	58 f4       	brcc	.+22     	; 0x495e <vfprintf+0x2ea>
    4948:	34 fe       	sbrs	r3, 4
    494a:	0b c0       	rjmp	.+22     	; 0x4962 <vfprintf+0x2ee>
    494c:	32 fc       	sbrc	r3, 2
    494e:	09 c0       	rjmp	.+18     	; 0x4962 <vfprintf+0x2ee>
    4950:	83 2d       	mov	r24, r3
    4952:	8e 7e       	andi	r24, 0xEE	; 238
    4954:	a8 2e       	mov	r10, r24
    4956:	05 c0       	rjmp	.+10     	; 0x4962 <vfprintf+0x2ee>
    4958:	b8 2c       	mov	r11, r8
    495a:	a3 2c       	mov	r10, r3
    495c:	03 c0       	rjmp	.+6      	; 0x4964 <vfprintf+0x2f0>
    495e:	b8 2c       	mov	r11, r8
    4960:	01 c0       	rjmp	.+2      	; 0x4964 <vfprintf+0x2f0>
    4962:	b9 2c       	mov	r11, r9
    4964:	a4 fe       	sbrs	r10, 4
    4966:	0f c0       	rjmp	.+30     	; 0x4986 <vfprintf+0x312>
    4968:	fe 01       	movw	r30, r28
    496a:	e8 0d       	add	r30, r8
    496c:	f1 1d       	adc	r31, r1
    496e:	80 81       	ld	r24, Z
    4970:	80 33       	cpi	r24, 0x30	; 48
    4972:	21 f4       	brne	.+8      	; 0x497c <vfprintf+0x308>
    4974:	9a 2d       	mov	r25, r10
    4976:	99 7e       	andi	r25, 0xE9	; 233
    4978:	a9 2e       	mov	r10, r25
    497a:	09 c0       	rjmp	.+18     	; 0x498e <vfprintf+0x31a>
    497c:	a2 fe       	sbrs	r10, 2
    497e:	06 c0       	rjmp	.+12     	; 0x498c <vfprintf+0x318>
    4980:	b3 94       	inc	r11
    4982:	b3 94       	inc	r11
    4984:	04 c0       	rjmp	.+8      	; 0x498e <vfprintf+0x31a>
    4986:	8a 2d       	mov	r24, r10
    4988:	86 78       	andi	r24, 0x86	; 134
    498a:	09 f0       	breq	.+2      	; 0x498e <vfprintf+0x31a>
    498c:	b3 94       	inc	r11
    498e:	a3 fc       	sbrc	r10, 3
    4990:	10 c0       	rjmp	.+32     	; 0x49b2 <vfprintf+0x33e>
    4992:	a0 fe       	sbrs	r10, 0
    4994:	06 c0       	rjmp	.+12     	; 0x49a2 <vfprintf+0x32e>
    4996:	b2 14       	cp	r11, r2
    4998:	80 f4       	brcc	.+32     	; 0x49ba <vfprintf+0x346>
    499a:	28 0c       	add	r2, r8
    499c:	92 2c       	mov	r9, r2
    499e:	9b 18       	sub	r9, r11
    49a0:	0d c0       	rjmp	.+26     	; 0x49bc <vfprintf+0x348>
    49a2:	b2 14       	cp	r11, r2
    49a4:	58 f4       	brcc	.+22     	; 0x49bc <vfprintf+0x348>
    49a6:	b6 01       	movw	r22, r12
    49a8:	80 e2       	ldi	r24, 0x20	; 32
    49aa:	90 e0       	ldi	r25, 0x00	; 0
    49ac:	c4 d2       	rcall	.+1416   	; 0x4f36 <fputc>
    49ae:	b3 94       	inc	r11
    49b0:	f8 cf       	rjmp	.-16     	; 0x49a2 <vfprintf+0x32e>
    49b2:	b2 14       	cp	r11, r2
    49b4:	18 f4       	brcc	.+6      	; 0x49bc <vfprintf+0x348>
    49b6:	2b 18       	sub	r2, r11
    49b8:	02 c0       	rjmp	.+4      	; 0x49be <vfprintf+0x34a>
    49ba:	98 2c       	mov	r9, r8
    49bc:	21 2c       	mov	r2, r1
    49be:	a4 fe       	sbrs	r10, 4
    49c0:	0f c0       	rjmp	.+30     	; 0x49e0 <vfprintf+0x36c>
    49c2:	b6 01       	movw	r22, r12
    49c4:	80 e3       	ldi	r24, 0x30	; 48
    49c6:	90 e0       	ldi	r25, 0x00	; 0
    49c8:	b6 d2       	rcall	.+1388   	; 0x4f36 <fputc>
    49ca:	a2 fe       	sbrs	r10, 2
    49cc:	16 c0       	rjmp	.+44     	; 0x49fa <vfprintf+0x386>
    49ce:	a1 fc       	sbrc	r10, 1
    49d0:	03 c0       	rjmp	.+6      	; 0x49d8 <vfprintf+0x364>
    49d2:	88 e7       	ldi	r24, 0x78	; 120
    49d4:	90 e0       	ldi	r25, 0x00	; 0
    49d6:	02 c0       	rjmp	.+4      	; 0x49dc <vfprintf+0x368>
    49d8:	88 e5       	ldi	r24, 0x58	; 88
    49da:	90 e0       	ldi	r25, 0x00	; 0
    49dc:	b6 01       	movw	r22, r12
    49de:	0c c0       	rjmp	.+24     	; 0x49f8 <vfprintf+0x384>
    49e0:	8a 2d       	mov	r24, r10
    49e2:	86 78       	andi	r24, 0x86	; 134
    49e4:	51 f0       	breq	.+20     	; 0x49fa <vfprintf+0x386>
    49e6:	a1 fe       	sbrs	r10, 1
    49e8:	02 c0       	rjmp	.+4      	; 0x49ee <vfprintf+0x37a>
    49ea:	8b e2       	ldi	r24, 0x2B	; 43
    49ec:	01 c0       	rjmp	.+2      	; 0x49f0 <vfprintf+0x37c>
    49ee:	80 e2       	ldi	r24, 0x20	; 32
    49f0:	a7 fc       	sbrc	r10, 7
    49f2:	8d e2       	ldi	r24, 0x2D	; 45
    49f4:	b6 01       	movw	r22, r12
    49f6:	90 e0       	ldi	r25, 0x00	; 0
    49f8:	9e d2       	rcall	.+1340   	; 0x4f36 <fputc>
    49fa:	89 14       	cp	r8, r9
    49fc:	30 f4       	brcc	.+12     	; 0x4a0a <vfprintf+0x396>
    49fe:	b6 01       	movw	r22, r12
    4a00:	80 e3       	ldi	r24, 0x30	; 48
    4a02:	90 e0       	ldi	r25, 0x00	; 0
    4a04:	98 d2       	rcall	.+1328   	; 0x4f36 <fputc>
    4a06:	9a 94       	dec	r9
    4a08:	f8 cf       	rjmp	.-16     	; 0x49fa <vfprintf+0x386>
    4a0a:	8a 94       	dec	r8
    4a0c:	f3 01       	movw	r30, r6
    4a0e:	e8 0d       	add	r30, r8
    4a10:	f1 1d       	adc	r31, r1
    4a12:	80 81       	ld	r24, Z
    4a14:	b6 01       	movw	r22, r12
    4a16:	90 e0       	ldi	r25, 0x00	; 0
    4a18:	8e d2       	rcall	.+1308   	; 0x4f36 <fputc>
    4a1a:	81 10       	cpse	r8, r1
    4a1c:	f6 cf       	rjmp	.-20     	; 0x4a0a <vfprintf+0x396>
    4a1e:	22 20       	and	r2, r2
    4a20:	09 f4       	brne	.+2      	; 0x4a24 <vfprintf+0x3b0>
    4a22:	4e ce       	rjmp	.-868    	; 0x46c0 <vfprintf+0x4c>
    4a24:	b6 01       	movw	r22, r12
    4a26:	80 e2       	ldi	r24, 0x20	; 32
    4a28:	90 e0       	ldi	r25, 0x00	; 0
    4a2a:	85 d2       	rcall	.+1290   	; 0x4f36 <fputc>
    4a2c:	2a 94       	dec	r2
    4a2e:	f7 cf       	rjmp	.-18     	; 0x4a1e <vfprintf+0x3aa>
    4a30:	f6 01       	movw	r30, r12
    4a32:	86 81       	ldd	r24, Z+6	; 0x06
    4a34:	97 81       	ldd	r25, Z+7	; 0x07
    4a36:	02 c0       	rjmp	.+4      	; 0x4a3c <vfprintf+0x3c8>
    4a38:	8f ef       	ldi	r24, 0xFF	; 255
    4a3a:	9f ef       	ldi	r25, 0xFF	; 255
    4a3c:	2b 96       	adiw	r28, 0x0b	; 11
    4a3e:	0f b6       	in	r0, 0x3f	; 63
    4a40:	f8 94       	cli
    4a42:	de bf       	out	0x3e, r29	; 62
    4a44:	0f be       	out	0x3f, r0	; 63
    4a46:	cd bf       	out	0x3d, r28	; 61
    4a48:	df 91       	pop	r29
    4a4a:	cf 91       	pop	r28
    4a4c:	1f 91       	pop	r17
    4a4e:	0f 91       	pop	r16
    4a50:	ff 90       	pop	r15
    4a52:	ef 90       	pop	r14
    4a54:	df 90       	pop	r13
    4a56:	cf 90       	pop	r12
    4a58:	bf 90       	pop	r11
    4a5a:	af 90       	pop	r10
    4a5c:	9f 90       	pop	r9
    4a5e:	8f 90       	pop	r8
    4a60:	7f 90       	pop	r7
    4a62:	6f 90       	pop	r6
    4a64:	5f 90       	pop	r5
    4a66:	4f 90       	pop	r4
    4a68:	3f 90       	pop	r3
    4a6a:	2f 90       	pop	r2
    4a6c:	08 95       	ret

00004a6e <dtoa_prf>:
    4a6e:	8f 92       	push	r8
    4a70:	9f 92       	push	r9
    4a72:	af 92       	push	r10
    4a74:	bf 92       	push	r11
    4a76:	cf 92       	push	r12
    4a78:	df 92       	push	r13
    4a7a:	ef 92       	push	r14
    4a7c:	ff 92       	push	r15
    4a7e:	0f 93       	push	r16
    4a80:	1f 93       	push	r17
    4a82:	cf 93       	push	r28
    4a84:	df 93       	push	r29
    4a86:	cd b7       	in	r28, 0x3d	; 61
    4a88:	de b7       	in	r29, 0x3e	; 62
    4a8a:	29 97       	sbiw	r28, 0x09	; 9
    4a8c:	0f b6       	in	r0, 0x3f	; 63
    4a8e:	f8 94       	cli
    4a90:	de bf       	out	0x3e, r29	; 62
    4a92:	0f be       	out	0x3f, r0	; 63
    4a94:	cd bf       	out	0x3d, r28	; 61
    4a96:	6a 01       	movw	r12, r20
    4a98:	12 2f       	mov	r17, r18
    4a9a:	b0 2e       	mov	r11, r16
    4a9c:	2b e3       	ldi	r18, 0x3B	; 59
    4a9e:	20 17       	cp	r18, r16
    4aa0:	20 f0       	brcs	.+8      	; 0x4aaa <dtoa_prf+0x3c>
    4aa2:	ff 24       	eor	r15, r15
    4aa4:	f3 94       	inc	r15
    4aa6:	f0 0e       	add	r15, r16
    4aa8:	02 c0       	rjmp	.+4      	; 0x4aae <dtoa_prf+0x40>
    4aaa:	2c e3       	ldi	r18, 0x3C	; 60
    4aac:	f2 2e       	mov	r15, r18
    4aae:	0f 2d       	mov	r16, r15
    4ab0:	27 e0       	ldi	r18, 0x07	; 7
    4ab2:	ae 01       	movw	r20, r28
    4ab4:	4f 5f       	subi	r20, 0xFF	; 255
    4ab6:	5f 4f       	sbci	r21, 0xFF	; 255
    4ab8:	50 d1       	rcall	.+672    	; 0x4d5a <__ftoa_engine>
    4aba:	bc 01       	movw	r22, r24
    4abc:	49 81       	ldd	r20, Y+1	; 0x01
    4abe:	84 2f       	mov	r24, r20
    4ac0:	89 70       	andi	r24, 0x09	; 9
    4ac2:	81 30       	cpi	r24, 0x01	; 1
    4ac4:	31 f0       	breq	.+12     	; 0x4ad2 <dtoa_prf+0x64>
    4ac6:	e1 fc       	sbrc	r14, 1
    4ac8:	06 c0       	rjmp	.+12     	; 0x4ad6 <dtoa_prf+0x68>
    4aca:	e0 fe       	sbrs	r14, 0
    4acc:	06 c0       	rjmp	.+12     	; 0x4ada <dtoa_prf+0x6c>
    4ace:	90 e2       	ldi	r25, 0x20	; 32
    4ad0:	05 c0       	rjmp	.+10     	; 0x4adc <dtoa_prf+0x6e>
    4ad2:	9d e2       	ldi	r25, 0x2D	; 45
    4ad4:	03 c0       	rjmp	.+6      	; 0x4adc <dtoa_prf+0x6e>
    4ad6:	9b e2       	ldi	r25, 0x2B	; 43
    4ad8:	01 c0       	rjmp	.+2      	; 0x4adc <dtoa_prf+0x6e>
    4ada:	90 e0       	ldi	r25, 0x00	; 0
    4adc:	5e 2d       	mov	r21, r14
    4ade:	50 71       	andi	r21, 0x10	; 16
    4ae0:	43 ff       	sbrs	r20, 3
    4ae2:	3c c0       	rjmp	.+120    	; 0x4b5c <dtoa_prf+0xee>
    4ae4:	91 11       	cpse	r25, r1
    4ae6:	02 c0       	rjmp	.+4      	; 0x4aec <dtoa_prf+0x7e>
    4ae8:	83 e0       	ldi	r24, 0x03	; 3
    4aea:	01 c0       	rjmp	.+2      	; 0x4aee <dtoa_prf+0x80>
    4aec:	84 e0       	ldi	r24, 0x04	; 4
    4aee:	81 17       	cp	r24, r17
    4af0:	18 f4       	brcc	.+6      	; 0x4af8 <dtoa_prf+0x8a>
    4af2:	21 2f       	mov	r18, r17
    4af4:	28 1b       	sub	r18, r24
    4af6:	01 c0       	rjmp	.+2      	; 0x4afa <dtoa_prf+0x8c>
    4af8:	20 e0       	ldi	r18, 0x00	; 0
    4afa:	51 11       	cpse	r21, r1
    4afc:	0b c0       	rjmp	.+22     	; 0x4b14 <dtoa_prf+0xa6>
    4afe:	f6 01       	movw	r30, r12
    4b00:	82 2f       	mov	r24, r18
    4b02:	30 e2       	ldi	r19, 0x20	; 32
    4b04:	88 23       	and	r24, r24
    4b06:	19 f0       	breq	.+6      	; 0x4b0e <dtoa_prf+0xa0>
    4b08:	31 93       	st	Z+, r19
    4b0a:	81 50       	subi	r24, 0x01	; 1
    4b0c:	fb cf       	rjmp	.-10     	; 0x4b04 <dtoa_prf+0x96>
    4b0e:	c2 0e       	add	r12, r18
    4b10:	d1 1c       	adc	r13, r1
    4b12:	20 e0       	ldi	r18, 0x00	; 0
    4b14:	99 23       	and	r25, r25
    4b16:	29 f0       	breq	.+10     	; 0x4b22 <dtoa_prf+0xb4>
    4b18:	d6 01       	movw	r26, r12
    4b1a:	9c 93       	st	X, r25
    4b1c:	f6 01       	movw	r30, r12
    4b1e:	31 96       	adiw	r30, 0x01	; 1
    4b20:	6f 01       	movw	r12, r30
    4b22:	c6 01       	movw	r24, r12
    4b24:	03 96       	adiw	r24, 0x03	; 3
    4b26:	e2 fe       	sbrs	r14, 2
    4b28:	0a c0       	rjmp	.+20     	; 0x4b3e <dtoa_prf+0xd0>
    4b2a:	3e e4       	ldi	r19, 0x4E	; 78
    4b2c:	d6 01       	movw	r26, r12
    4b2e:	3c 93       	st	X, r19
    4b30:	41 e4       	ldi	r20, 0x41	; 65
    4b32:	11 96       	adiw	r26, 0x01	; 1
    4b34:	4c 93       	st	X, r20
    4b36:	11 97       	sbiw	r26, 0x01	; 1
    4b38:	12 96       	adiw	r26, 0x02	; 2
    4b3a:	3c 93       	st	X, r19
    4b3c:	06 c0       	rjmp	.+12     	; 0x4b4a <dtoa_prf+0xdc>
    4b3e:	3e e6       	ldi	r19, 0x6E	; 110
    4b40:	f6 01       	movw	r30, r12
    4b42:	30 83       	st	Z, r19
    4b44:	41 e6       	ldi	r20, 0x61	; 97
    4b46:	41 83       	std	Z+1, r20	; 0x01
    4b48:	32 83       	std	Z+2, r19	; 0x02
    4b4a:	fc 01       	movw	r30, r24
    4b4c:	32 2f       	mov	r19, r18
    4b4e:	40 e2       	ldi	r20, 0x20	; 32
    4b50:	33 23       	and	r19, r19
    4b52:	09 f4       	brne	.+2      	; 0x4b56 <dtoa_prf+0xe8>
    4b54:	42 c0       	rjmp	.+132    	; 0x4bda <dtoa_prf+0x16c>
    4b56:	41 93       	st	Z+, r20
    4b58:	31 50       	subi	r19, 0x01	; 1
    4b5a:	fa cf       	rjmp	.-12     	; 0x4b50 <dtoa_prf+0xe2>
    4b5c:	42 ff       	sbrs	r20, 2
    4b5e:	44 c0       	rjmp	.+136    	; 0x4be8 <dtoa_prf+0x17a>
    4b60:	91 11       	cpse	r25, r1
    4b62:	02 c0       	rjmp	.+4      	; 0x4b68 <dtoa_prf+0xfa>
    4b64:	83 e0       	ldi	r24, 0x03	; 3
    4b66:	01 c0       	rjmp	.+2      	; 0x4b6a <dtoa_prf+0xfc>
    4b68:	84 e0       	ldi	r24, 0x04	; 4
    4b6a:	81 17       	cp	r24, r17
    4b6c:	18 f4       	brcc	.+6      	; 0x4b74 <dtoa_prf+0x106>
    4b6e:	21 2f       	mov	r18, r17
    4b70:	28 1b       	sub	r18, r24
    4b72:	01 c0       	rjmp	.+2      	; 0x4b76 <dtoa_prf+0x108>
    4b74:	20 e0       	ldi	r18, 0x00	; 0
    4b76:	51 11       	cpse	r21, r1
    4b78:	0b c0       	rjmp	.+22     	; 0x4b90 <dtoa_prf+0x122>
    4b7a:	f6 01       	movw	r30, r12
    4b7c:	82 2f       	mov	r24, r18
    4b7e:	30 e2       	ldi	r19, 0x20	; 32
    4b80:	88 23       	and	r24, r24
    4b82:	19 f0       	breq	.+6      	; 0x4b8a <dtoa_prf+0x11c>
    4b84:	31 93       	st	Z+, r19
    4b86:	81 50       	subi	r24, 0x01	; 1
    4b88:	fb cf       	rjmp	.-10     	; 0x4b80 <dtoa_prf+0x112>
    4b8a:	c2 0e       	add	r12, r18
    4b8c:	d1 1c       	adc	r13, r1
    4b8e:	20 e0       	ldi	r18, 0x00	; 0
    4b90:	99 23       	and	r25, r25
    4b92:	29 f0       	breq	.+10     	; 0x4b9e <dtoa_prf+0x130>
    4b94:	d6 01       	movw	r26, r12
    4b96:	9c 93       	st	X, r25
    4b98:	f6 01       	movw	r30, r12
    4b9a:	31 96       	adiw	r30, 0x01	; 1
    4b9c:	6f 01       	movw	r12, r30
    4b9e:	c6 01       	movw	r24, r12
    4ba0:	03 96       	adiw	r24, 0x03	; 3
    4ba2:	e2 fe       	sbrs	r14, 2
    4ba4:	0b c0       	rjmp	.+22     	; 0x4bbc <dtoa_prf+0x14e>
    4ba6:	39 e4       	ldi	r19, 0x49	; 73
    4ba8:	d6 01       	movw	r26, r12
    4baa:	3c 93       	st	X, r19
    4bac:	3e e4       	ldi	r19, 0x4E	; 78
    4bae:	11 96       	adiw	r26, 0x01	; 1
    4bb0:	3c 93       	st	X, r19
    4bb2:	11 97       	sbiw	r26, 0x01	; 1
    4bb4:	36 e4       	ldi	r19, 0x46	; 70
    4bb6:	12 96       	adiw	r26, 0x02	; 2
    4bb8:	3c 93       	st	X, r19
    4bba:	07 c0       	rjmp	.+14     	; 0x4bca <dtoa_prf+0x15c>
    4bbc:	39 e6       	ldi	r19, 0x69	; 105
    4bbe:	f6 01       	movw	r30, r12
    4bc0:	30 83       	st	Z, r19
    4bc2:	3e e6       	ldi	r19, 0x6E	; 110
    4bc4:	31 83       	std	Z+1, r19	; 0x01
    4bc6:	36 e6       	ldi	r19, 0x66	; 102
    4bc8:	32 83       	std	Z+2, r19	; 0x02
    4bca:	fc 01       	movw	r30, r24
    4bcc:	32 2f       	mov	r19, r18
    4bce:	40 e2       	ldi	r20, 0x20	; 32
    4bd0:	33 23       	and	r19, r19
    4bd2:	19 f0       	breq	.+6      	; 0x4bda <dtoa_prf+0x16c>
    4bd4:	41 93       	st	Z+, r20
    4bd6:	31 50       	subi	r19, 0x01	; 1
    4bd8:	fb cf       	rjmp	.-10     	; 0x4bd0 <dtoa_prf+0x162>
    4bda:	fc 01       	movw	r30, r24
    4bdc:	e2 0f       	add	r30, r18
    4bde:	f1 1d       	adc	r31, r1
    4be0:	10 82       	st	Z, r1
    4be2:	8e ef       	ldi	r24, 0xFE	; 254
    4be4:	9f ef       	ldi	r25, 0xFF	; 255
    4be6:	a6 c0       	rjmp	.+332    	; 0x4d34 <dtoa_prf+0x2c6>
    4be8:	21 e0       	ldi	r18, 0x01	; 1
    4bea:	30 e0       	ldi	r19, 0x00	; 0
    4bec:	91 11       	cpse	r25, r1
    4bee:	02 c0       	rjmp	.+4      	; 0x4bf4 <dtoa_prf+0x186>
    4bf0:	20 e0       	ldi	r18, 0x00	; 0
    4bf2:	30 e0       	ldi	r19, 0x00	; 0
    4bf4:	16 16       	cp	r1, r22
    4bf6:	17 06       	cpc	r1, r23
    4bf8:	1c f4       	brge	.+6      	; 0x4c00 <dtoa_prf+0x192>
    4bfa:	fb 01       	movw	r30, r22
    4bfc:	31 96       	adiw	r30, 0x01	; 1
    4bfe:	02 c0       	rjmp	.+4      	; 0x4c04 <dtoa_prf+0x196>
    4c00:	e1 e0       	ldi	r30, 0x01	; 1
    4c02:	f0 e0       	ldi	r31, 0x00	; 0
    4c04:	2e 0f       	add	r18, r30
    4c06:	3f 1f       	adc	r19, r31
    4c08:	bb 20       	and	r11, r11
    4c0a:	21 f0       	breq	.+8      	; 0x4c14 <dtoa_prf+0x1a6>
    4c0c:	eb 2d       	mov	r30, r11
    4c0e:	f0 e0       	ldi	r31, 0x00	; 0
    4c10:	31 96       	adiw	r30, 0x01	; 1
    4c12:	02 c0       	rjmp	.+4      	; 0x4c18 <dtoa_prf+0x1aa>
    4c14:	e0 e0       	ldi	r30, 0x00	; 0
    4c16:	f0 e0       	ldi	r31, 0x00	; 0
    4c18:	2e 0f       	add	r18, r30
    4c1a:	3f 1f       	adc	r19, r31
    4c1c:	e1 2f       	mov	r30, r17
    4c1e:	f0 e0       	ldi	r31, 0x00	; 0
    4c20:	2e 17       	cp	r18, r30
    4c22:	3f 07       	cpc	r19, r31
    4c24:	1c f4       	brge	.+6      	; 0x4c2c <dtoa_prf+0x1be>
    4c26:	12 1b       	sub	r17, r18
    4c28:	21 2f       	mov	r18, r17
    4c2a:	01 c0       	rjmp	.+2      	; 0x4c2e <dtoa_prf+0x1c0>
    4c2c:	20 e0       	ldi	r18, 0x00	; 0
    4c2e:	8e 2d       	mov	r24, r14
    4c30:	88 71       	andi	r24, 0x18	; 24
    4c32:	59 f4       	brne	.+22     	; 0x4c4a <dtoa_prf+0x1dc>
    4c34:	f6 01       	movw	r30, r12
    4c36:	82 2f       	mov	r24, r18
    4c38:	30 e2       	ldi	r19, 0x20	; 32
    4c3a:	88 23       	and	r24, r24
    4c3c:	19 f0       	breq	.+6      	; 0x4c44 <dtoa_prf+0x1d6>
    4c3e:	31 93       	st	Z+, r19
    4c40:	81 50       	subi	r24, 0x01	; 1
    4c42:	fb cf       	rjmp	.-10     	; 0x4c3a <dtoa_prf+0x1cc>
    4c44:	c2 0e       	add	r12, r18
    4c46:	d1 1c       	adc	r13, r1
    4c48:	20 e0       	ldi	r18, 0x00	; 0
    4c4a:	99 23       	and	r25, r25
    4c4c:	29 f0       	breq	.+10     	; 0x4c58 <dtoa_prf+0x1ea>
    4c4e:	d6 01       	movw	r26, r12
    4c50:	9c 93       	st	X, r25
    4c52:	f6 01       	movw	r30, r12
    4c54:	31 96       	adiw	r30, 0x01	; 1
    4c56:	6f 01       	movw	r12, r30
    4c58:	51 11       	cpse	r21, r1
    4c5a:	0b c0       	rjmp	.+22     	; 0x4c72 <dtoa_prf+0x204>
    4c5c:	f6 01       	movw	r30, r12
    4c5e:	82 2f       	mov	r24, r18
    4c60:	90 e3       	ldi	r25, 0x30	; 48
    4c62:	88 23       	and	r24, r24
    4c64:	19 f0       	breq	.+6      	; 0x4c6c <dtoa_prf+0x1fe>
    4c66:	91 93       	st	Z+, r25
    4c68:	81 50       	subi	r24, 0x01	; 1
    4c6a:	fb cf       	rjmp	.-10     	; 0x4c62 <dtoa_prf+0x1f4>
    4c6c:	c2 0e       	add	r12, r18
    4c6e:	d1 1c       	adc	r13, r1
    4c70:	20 e0       	ldi	r18, 0x00	; 0
    4c72:	0f 2d       	mov	r16, r15
    4c74:	06 0f       	add	r16, r22
    4c76:	9a 81       	ldd	r25, Y+2	; 0x02
    4c78:	34 2f       	mov	r19, r20
    4c7a:	30 71       	andi	r19, 0x10	; 16
    4c7c:	44 ff       	sbrs	r20, 4
    4c7e:	03 c0       	rjmp	.+6      	; 0x4c86 <dtoa_prf+0x218>
    4c80:	91 33       	cpi	r25, 0x31	; 49
    4c82:	09 f4       	brne	.+2      	; 0x4c86 <dtoa_prf+0x218>
    4c84:	01 50       	subi	r16, 0x01	; 1
    4c86:	10 16       	cp	r1, r16
    4c88:	24 f4       	brge	.+8      	; 0x4c92 <dtoa_prf+0x224>
    4c8a:	09 30       	cpi	r16, 0x09	; 9
    4c8c:	18 f0       	brcs	.+6      	; 0x4c94 <dtoa_prf+0x226>
    4c8e:	08 e0       	ldi	r16, 0x08	; 8
    4c90:	01 c0       	rjmp	.+2      	; 0x4c94 <dtoa_prf+0x226>
    4c92:	01 e0       	ldi	r16, 0x01	; 1
    4c94:	ab 01       	movw	r20, r22
    4c96:	77 ff       	sbrs	r23, 7
    4c98:	02 c0       	rjmp	.+4      	; 0x4c9e <dtoa_prf+0x230>
    4c9a:	40 e0       	ldi	r20, 0x00	; 0
    4c9c:	50 e0       	ldi	r21, 0x00	; 0
    4c9e:	fb 01       	movw	r30, r22
    4ca0:	e4 1b       	sub	r30, r20
    4ca2:	f5 0b       	sbc	r31, r21
    4ca4:	a1 e0       	ldi	r26, 0x01	; 1
    4ca6:	b0 e0       	ldi	r27, 0x00	; 0
    4ca8:	ac 0f       	add	r26, r28
    4caa:	bd 1f       	adc	r27, r29
    4cac:	ea 0f       	add	r30, r26
    4cae:	fb 1f       	adc	r31, r27
    4cb0:	8e e2       	ldi	r24, 0x2E	; 46
    4cb2:	a8 2e       	mov	r10, r24
    4cb4:	4b 01       	movw	r8, r22
    4cb6:	80 1a       	sub	r8, r16
    4cb8:	91 08       	sbc	r9, r1
    4cba:	0b 2d       	mov	r16, r11
    4cbc:	10 e0       	ldi	r17, 0x00	; 0
    4cbe:	11 95       	neg	r17
    4cc0:	01 95       	neg	r16
    4cc2:	11 09       	sbc	r17, r1
    4cc4:	4f 3f       	cpi	r20, 0xFF	; 255
    4cc6:	bf ef       	ldi	r27, 0xFF	; 255
    4cc8:	5b 07       	cpc	r21, r27
    4cca:	21 f4       	brne	.+8      	; 0x4cd4 <dtoa_prf+0x266>
    4ccc:	d6 01       	movw	r26, r12
    4cce:	ac 92       	st	X, r10
    4cd0:	11 96       	adiw	r26, 0x01	; 1
    4cd2:	6d 01       	movw	r12, r26
    4cd4:	64 17       	cp	r22, r20
    4cd6:	75 07       	cpc	r23, r21
    4cd8:	2c f0       	brlt	.+10     	; 0x4ce4 <dtoa_prf+0x276>
    4cda:	84 16       	cp	r8, r20
    4cdc:	95 06       	cpc	r9, r21
    4cde:	14 f4       	brge	.+4      	; 0x4ce4 <dtoa_prf+0x276>
    4ce0:	81 81       	ldd	r24, Z+1	; 0x01
    4ce2:	01 c0       	rjmp	.+2      	; 0x4ce6 <dtoa_prf+0x278>
    4ce4:	80 e3       	ldi	r24, 0x30	; 48
    4ce6:	41 50       	subi	r20, 0x01	; 1
    4ce8:	51 09       	sbc	r21, r1
    4cea:	31 96       	adiw	r30, 0x01	; 1
    4cec:	d6 01       	movw	r26, r12
    4cee:	11 96       	adiw	r26, 0x01	; 1
    4cf0:	7d 01       	movw	r14, r26
    4cf2:	40 17       	cp	r20, r16
    4cf4:	51 07       	cpc	r21, r17
    4cf6:	24 f0       	brlt	.+8      	; 0x4d00 <dtoa_prf+0x292>
    4cf8:	d6 01       	movw	r26, r12
    4cfa:	8c 93       	st	X, r24
    4cfc:	67 01       	movw	r12, r14
    4cfe:	e2 cf       	rjmp	.-60     	; 0x4cc4 <dtoa_prf+0x256>
    4d00:	64 17       	cp	r22, r20
    4d02:	75 07       	cpc	r23, r21
    4d04:	39 f4       	brne	.+14     	; 0x4d14 <dtoa_prf+0x2a6>
    4d06:	96 33       	cpi	r25, 0x36	; 54
    4d08:	20 f4       	brcc	.+8      	; 0x4d12 <dtoa_prf+0x2a4>
    4d0a:	95 33       	cpi	r25, 0x35	; 53
    4d0c:	19 f4       	brne	.+6      	; 0x4d14 <dtoa_prf+0x2a6>
    4d0e:	31 11       	cpse	r19, r1
    4d10:	01 c0       	rjmp	.+2      	; 0x4d14 <dtoa_prf+0x2a6>
    4d12:	81 e3       	ldi	r24, 0x31	; 49
    4d14:	f6 01       	movw	r30, r12
    4d16:	80 83       	st	Z, r24
    4d18:	f7 01       	movw	r30, r14
    4d1a:	82 2f       	mov	r24, r18
    4d1c:	90 e2       	ldi	r25, 0x20	; 32
    4d1e:	88 23       	and	r24, r24
    4d20:	19 f0       	breq	.+6      	; 0x4d28 <dtoa_prf+0x2ba>
    4d22:	91 93       	st	Z+, r25
    4d24:	81 50       	subi	r24, 0x01	; 1
    4d26:	fb cf       	rjmp	.-10     	; 0x4d1e <dtoa_prf+0x2b0>
    4d28:	f7 01       	movw	r30, r14
    4d2a:	e2 0f       	add	r30, r18
    4d2c:	f1 1d       	adc	r31, r1
    4d2e:	10 82       	st	Z, r1
    4d30:	80 e0       	ldi	r24, 0x00	; 0
    4d32:	90 e0       	ldi	r25, 0x00	; 0
    4d34:	29 96       	adiw	r28, 0x09	; 9
    4d36:	0f b6       	in	r0, 0x3f	; 63
    4d38:	f8 94       	cli
    4d3a:	de bf       	out	0x3e, r29	; 62
    4d3c:	0f be       	out	0x3f, r0	; 63
    4d3e:	cd bf       	out	0x3d, r28	; 61
    4d40:	df 91       	pop	r29
    4d42:	cf 91       	pop	r28
    4d44:	1f 91       	pop	r17
    4d46:	0f 91       	pop	r16
    4d48:	ff 90       	pop	r15
    4d4a:	ef 90       	pop	r14
    4d4c:	df 90       	pop	r13
    4d4e:	cf 90       	pop	r12
    4d50:	bf 90       	pop	r11
    4d52:	af 90       	pop	r10
    4d54:	9f 90       	pop	r9
    4d56:	8f 90       	pop	r8
    4d58:	08 95       	ret

00004d5a <__ftoa_engine>:
    4d5a:	28 30       	cpi	r18, 0x08	; 8
    4d5c:	08 f0       	brcs	.+2      	; 0x4d60 <__ftoa_engine+0x6>
    4d5e:	27 e0       	ldi	r18, 0x07	; 7
    4d60:	33 27       	eor	r19, r19
    4d62:	da 01       	movw	r26, r20
    4d64:	99 0f       	add	r25, r25
    4d66:	31 1d       	adc	r19, r1
    4d68:	87 fd       	sbrc	r24, 7
    4d6a:	91 60       	ori	r25, 0x01	; 1
    4d6c:	00 96       	adiw	r24, 0x00	; 0
    4d6e:	61 05       	cpc	r22, r1
    4d70:	71 05       	cpc	r23, r1
    4d72:	39 f4       	brne	.+14     	; 0x4d82 <__ftoa_engine+0x28>
    4d74:	32 60       	ori	r19, 0x02	; 2
    4d76:	2e 5f       	subi	r18, 0xFE	; 254
    4d78:	3d 93       	st	X+, r19
    4d7a:	30 e3       	ldi	r19, 0x30	; 48
    4d7c:	2a 95       	dec	r18
    4d7e:	e1 f7       	brne	.-8      	; 0x4d78 <__ftoa_engine+0x1e>
    4d80:	08 95       	ret
    4d82:	9f 3f       	cpi	r25, 0xFF	; 255
    4d84:	30 f0       	brcs	.+12     	; 0x4d92 <__ftoa_engine+0x38>
    4d86:	80 38       	cpi	r24, 0x80	; 128
    4d88:	71 05       	cpc	r23, r1
    4d8a:	61 05       	cpc	r22, r1
    4d8c:	09 f0       	breq	.+2      	; 0x4d90 <__ftoa_engine+0x36>
    4d8e:	3c 5f       	subi	r19, 0xFC	; 252
    4d90:	3c 5f       	subi	r19, 0xFC	; 252
    4d92:	3d 93       	st	X+, r19
    4d94:	91 30       	cpi	r25, 0x01	; 1
    4d96:	08 f0       	brcs	.+2      	; 0x4d9a <__ftoa_engine+0x40>
    4d98:	80 68       	ori	r24, 0x80	; 128
    4d9a:	91 1d       	adc	r25, r1
    4d9c:	df 93       	push	r29
    4d9e:	cf 93       	push	r28
    4da0:	1f 93       	push	r17
    4da2:	0f 93       	push	r16
    4da4:	ff 92       	push	r15
    4da6:	ef 92       	push	r14
    4da8:	19 2f       	mov	r17, r25
    4daa:	98 7f       	andi	r25, 0xF8	; 248
    4dac:	96 95       	lsr	r25
    4dae:	e9 2f       	mov	r30, r25
    4db0:	96 95       	lsr	r25
    4db2:	96 95       	lsr	r25
    4db4:	e9 0f       	add	r30, r25
    4db6:	ff 27       	eor	r31, r31
    4db8:	e0 59       	subi	r30, 0x90	; 144
    4dba:	fd 4f       	sbci	r31, 0xFD	; 253
    4dbc:	99 27       	eor	r25, r25
    4dbe:	33 27       	eor	r19, r19
    4dc0:	ee 24       	eor	r14, r14
    4dc2:	ff 24       	eor	r15, r15
    4dc4:	a7 01       	movw	r20, r14
    4dc6:	e7 01       	movw	r28, r14
    4dc8:	05 90       	lpm	r0, Z+
    4dca:	08 94       	sec
    4dcc:	07 94       	ror	r0
    4dce:	28 f4       	brcc	.+10     	; 0x4dda <__ftoa_engine+0x80>
    4dd0:	36 0f       	add	r19, r22
    4dd2:	e7 1e       	adc	r14, r23
    4dd4:	f8 1e       	adc	r15, r24
    4dd6:	49 1f       	adc	r20, r25
    4dd8:	51 1d       	adc	r21, r1
    4dda:	66 0f       	add	r22, r22
    4ddc:	77 1f       	adc	r23, r23
    4dde:	88 1f       	adc	r24, r24
    4de0:	99 1f       	adc	r25, r25
    4de2:	06 94       	lsr	r0
    4de4:	a1 f7       	brne	.-24     	; 0x4dce <__ftoa_engine+0x74>
    4de6:	05 90       	lpm	r0, Z+
    4de8:	07 94       	ror	r0
    4dea:	28 f4       	brcc	.+10     	; 0x4df6 <__ftoa_engine+0x9c>
    4dec:	e7 0e       	add	r14, r23
    4dee:	f8 1e       	adc	r15, r24
    4df0:	49 1f       	adc	r20, r25
    4df2:	56 1f       	adc	r21, r22
    4df4:	c1 1d       	adc	r28, r1
    4df6:	77 0f       	add	r23, r23
    4df8:	88 1f       	adc	r24, r24
    4dfa:	99 1f       	adc	r25, r25
    4dfc:	66 1f       	adc	r22, r22
    4dfe:	06 94       	lsr	r0
    4e00:	a1 f7       	brne	.-24     	; 0x4dea <__ftoa_engine+0x90>
    4e02:	05 90       	lpm	r0, Z+
    4e04:	07 94       	ror	r0
    4e06:	28 f4       	brcc	.+10     	; 0x4e12 <__ftoa_engine+0xb8>
    4e08:	f8 0e       	add	r15, r24
    4e0a:	49 1f       	adc	r20, r25
    4e0c:	56 1f       	adc	r21, r22
    4e0e:	c7 1f       	adc	r28, r23
    4e10:	d1 1d       	adc	r29, r1
    4e12:	88 0f       	add	r24, r24
    4e14:	99 1f       	adc	r25, r25
    4e16:	66 1f       	adc	r22, r22
    4e18:	77 1f       	adc	r23, r23
    4e1a:	06 94       	lsr	r0
    4e1c:	a1 f7       	brne	.-24     	; 0x4e06 <__ftoa_engine+0xac>
    4e1e:	05 90       	lpm	r0, Z+
    4e20:	07 94       	ror	r0
    4e22:	20 f4       	brcc	.+8      	; 0x4e2c <__ftoa_engine+0xd2>
    4e24:	49 0f       	add	r20, r25
    4e26:	56 1f       	adc	r21, r22
    4e28:	c7 1f       	adc	r28, r23
    4e2a:	d8 1f       	adc	r29, r24
    4e2c:	99 0f       	add	r25, r25
    4e2e:	66 1f       	adc	r22, r22
    4e30:	77 1f       	adc	r23, r23
    4e32:	88 1f       	adc	r24, r24
    4e34:	06 94       	lsr	r0
    4e36:	a9 f7       	brne	.-22     	; 0x4e22 <__ftoa_engine+0xc8>
    4e38:	84 91       	lpm	r24, Z
    4e3a:	10 95       	com	r17
    4e3c:	17 70       	andi	r17, 0x07	; 7
    4e3e:	41 f0       	breq	.+16     	; 0x4e50 <__ftoa_engine+0xf6>
    4e40:	d6 95       	lsr	r29
    4e42:	c7 95       	ror	r28
    4e44:	57 95       	ror	r21
    4e46:	47 95       	ror	r20
    4e48:	f7 94       	ror	r15
    4e4a:	e7 94       	ror	r14
    4e4c:	1a 95       	dec	r17
    4e4e:	c1 f7       	brne	.-16     	; 0x4e40 <__ftoa_engine+0xe6>
    4e50:	e6 e1       	ldi	r30, 0x16	; 22
    4e52:	f2 e0       	ldi	r31, 0x02	; 2
    4e54:	68 94       	set
    4e56:	15 90       	lpm	r1, Z+
    4e58:	15 91       	lpm	r17, Z+
    4e5a:	35 91       	lpm	r19, Z+
    4e5c:	65 91       	lpm	r22, Z+
    4e5e:	95 91       	lpm	r25, Z+
    4e60:	05 90       	lpm	r0, Z+
    4e62:	7f e2       	ldi	r23, 0x2F	; 47
    4e64:	73 95       	inc	r23
    4e66:	e1 18       	sub	r14, r1
    4e68:	f1 0a       	sbc	r15, r17
    4e6a:	43 0b       	sbc	r20, r19
    4e6c:	56 0b       	sbc	r21, r22
    4e6e:	c9 0b       	sbc	r28, r25
    4e70:	d0 09       	sbc	r29, r0
    4e72:	c0 f7       	brcc	.-16     	; 0x4e64 <__ftoa_engine+0x10a>
    4e74:	e1 0c       	add	r14, r1
    4e76:	f1 1e       	adc	r15, r17
    4e78:	43 1f       	adc	r20, r19
    4e7a:	56 1f       	adc	r21, r22
    4e7c:	c9 1f       	adc	r28, r25
    4e7e:	d0 1d       	adc	r29, r0
    4e80:	7e f4       	brtc	.+30     	; 0x4ea0 <__ftoa_engine+0x146>
    4e82:	70 33       	cpi	r23, 0x30	; 48
    4e84:	11 f4       	brne	.+4      	; 0x4e8a <__ftoa_engine+0x130>
    4e86:	8a 95       	dec	r24
    4e88:	e6 cf       	rjmp	.-52     	; 0x4e56 <__ftoa_engine+0xfc>
    4e8a:	e8 94       	clt
    4e8c:	01 50       	subi	r16, 0x01	; 1
    4e8e:	30 f0       	brcs	.+12     	; 0x4e9c <__ftoa_engine+0x142>
    4e90:	08 0f       	add	r16, r24
    4e92:	0a f4       	brpl	.+2      	; 0x4e96 <__ftoa_engine+0x13c>
    4e94:	00 27       	eor	r16, r16
    4e96:	02 17       	cp	r16, r18
    4e98:	08 f4       	brcc	.+2      	; 0x4e9c <__ftoa_engine+0x142>
    4e9a:	20 2f       	mov	r18, r16
    4e9c:	23 95       	inc	r18
    4e9e:	02 2f       	mov	r16, r18
    4ea0:	7a 33       	cpi	r23, 0x3A	; 58
    4ea2:	28 f0       	brcs	.+10     	; 0x4eae <__ftoa_engine+0x154>
    4ea4:	79 e3       	ldi	r23, 0x39	; 57
    4ea6:	7d 93       	st	X+, r23
    4ea8:	2a 95       	dec	r18
    4eaa:	e9 f7       	brne	.-6      	; 0x4ea6 <__ftoa_engine+0x14c>
    4eac:	10 c0       	rjmp	.+32     	; 0x4ece <__ftoa_engine+0x174>
    4eae:	7d 93       	st	X+, r23
    4eb0:	2a 95       	dec	r18
    4eb2:	89 f6       	brne	.-94     	; 0x4e56 <__ftoa_engine+0xfc>
    4eb4:	06 94       	lsr	r0
    4eb6:	97 95       	ror	r25
    4eb8:	67 95       	ror	r22
    4eba:	37 95       	ror	r19
    4ebc:	17 95       	ror	r17
    4ebe:	17 94       	ror	r1
    4ec0:	e1 18       	sub	r14, r1
    4ec2:	f1 0a       	sbc	r15, r17
    4ec4:	43 0b       	sbc	r20, r19
    4ec6:	56 0b       	sbc	r21, r22
    4ec8:	c9 0b       	sbc	r28, r25
    4eca:	d0 09       	sbc	r29, r0
    4ecc:	98 f0       	brcs	.+38     	; 0x4ef4 <__ftoa_engine+0x19a>
    4ece:	23 95       	inc	r18
    4ed0:	7e 91       	ld	r23, -X
    4ed2:	73 95       	inc	r23
    4ed4:	7a 33       	cpi	r23, 0x3A	; 58
    4ed6:	08 f0       	brcs	.+2      	; 0x4eda <__ftoa_engine+0x180>
    4ed8:	70 e3       	ldi	r23, 0x30	; 48
    4eda:	7c 93       	st	X, r23
    4edc:	20 13       	cpse	r18, r16
    4ede:	b8 f7       	brcc	.-18     	; 0x4ece <__ftoa_engine+0x174>
    4ee0:	7e 91       	ld	r23, -X
    4ee2:	70 61       	ori	r23, 0x10	; 16
    4ee4:	7d 93       	st	X+, r23
    4ee6:	30 f0       	brcs	.+12     	; 0x4ef4 <__ftoa_engine+0x19a>
    4ee8:	83 95       	inc	r24
    4eea:	71 e3       	ldi	r23, 0x31	; 49
    4eec:	7d 93       	st	X+, r23
    4eee:	70 e3       	ldi	r23, 0x30	; 48
    4ef0:	2a 95       	dec	r18
    4ef2:	e1 f7       	brne	.-8      	; 0x4eec <__ftoa_engine+0x192>
    4ef4:	11 24       	eor	r1, r1
    4ef6:	ef 90       	pop	r14
    4ef8:	ff 90       	pop	r15
    4efa:	0f 91       	pop	r16
    4efc:	1f 91       	pop	r17
    4efe:	cf 91       	pop	r28
    4f00:	df 91       	pop	r29
    4f02:	99 27       	eor	r25, r25
    4f04:	87 fd       	sbrc	r24, 7
    4f06:	90 95       	com	r25
    4f08:	08 95       	ret

00004f0a <strnlen_P>:
    4f0a:	fc 01       	movw	r30, r24
    4f0c:	05 90       	lpm	r0, Z+
    4f0e:	61 50       	subi	r22, 0x01	; 1
    4f10:	70 40       	sbci	r23, 0x00	; 0
    4f12:	01 10       	cpse	r0, r1
    4f14:	d8 f7       	brcc	.-10     	; 0x4f0c <strnlen_P+0x2>
    4f16:	80 95       	com	r24
    4f18:	90 95       	com	r25
    4f1a:	8e 0f       	add	r24, r30
    4f1c:	9f 1f       	adc	r25, r31
    4f1e:	08 95       	ret

00004f20 <strnlen>:
    4f20:	fc 01       	movw	r30, r24
    4f22:	61 50       	subi	r22, 0x01	; 1
    4f24:	70 40       	sbci	r23, 0x00	; 0
    4f26:	01 90       	ld	r0, Z+
    4f28:	01 10       	cpse	r0, r1
    4f2a:	d8 f7       	brcc	.-10     	; 0x4f22 <strnlen+0x2>
    4f2c:	80 95       	com	r24
    4f2e:	90 95       	com	r25
    4f30:	8e 0f       	add	r24, r30
    4f32:	9f 1f       	adc	r25, r31
    4f34:	08 95       	ret

00004f36 <fputc>:
    4f36:	0f 93       	push	r16
    4f38:	1f 93       	push	r17
    4f3a:	cf 93       	push	r28
    4f3c:	df 93       	push	r29
    4f3e:	fb 01       	movw	r30, r22
    4f40:	23 81       	ldd	r18, Z+3	; 0x03
    4f42:	21 fd       	sbrc	r18, 1
    4f44:	03 c0       	rjmp	.+6      	; 0x4f4c <fputc+0x16>
    4f46:	8f ef       	ldi	r24, 0xFF	; 255
    4f48:	9f ef       	ldi	r25, 0xFF	; 255
    4f4a:	2c c0       	rjmp	.+88     	; 0x4fa4 <fputc+0x6e>
    4f4c:	22 ff       	sbrs	r18, 2
    4f4e:	16 c0       	rjmp	.+44     	; 0x4f7c <fputc+0x46>
    4f50:	46 81       	ldd	r20, Z+6	; 0x06
    4f52:	57 81       	ldd	r21, Z+7	; 0x07
    4f54:	24 81       	ldd	r18, Z+4	; 0x04
    4f56:	35 81       	ldd	r19, Z+5	; 0x05
    4f58:	42 17       	cp	r20, r18
    4f5a:	53 07       	cpc	r21, r19
    4f5c:	44 f4       	brge	.+16     	; 0x4f6e <fputc+0x38>
    4f5e:	a0 81       	ld	r26, Z
    4f60:	b1 81       	ldd	r27, Z+1	; 0x01
    4f62:	9d 01       	movw	r18, r26
    4f64:	2f 5f       	subi	r18, 0xFF	; 255
    4f66:	3f 4f       	sbci	r19, 0xFF	; 255
    4f68:	31 83       	std	Z+1, r19	; 0x01
    4f6a:	20 83       	st	Z, r18
    4f6c:	8c 93       	st	X, r24
    4f6e:	26 81       	ldd	r18, Z+6	; 0x06
    4f70:	37 81       	ldd	r19, Z+7	; 0x07
    4f72:	2f 5f       	subi	r18, 0xFF	; 255
    4f74:	3f 4f       	sbci	r19, 0xFF	; 255
    4f76:	37 83       	std	Z+7, r19	; 0x07
    4f78:	26 83       	std	Z+6, r18	; 0x06
    4f7a:	14 c0       	rjmp	.+40     	; 0x4fa4 <fputc+0x6e>
    4f7c:	8b 01       	movw	r16, r22
    4f7e:	ec 01       	movw	r28, r24
    4f80:	fb 01       	movw	r30, r22
    4f82:	00 84       	ldd	r0, Z+8	; 0x08
    4f84:	f1 85       	ldd	r31, Z+9	; 0x09
    4f86:	e0 2d       	mov	r30, r0
    4f88:	19 95       	eicall
    4f8a:	89 2b       	or	r24, r25
    4f8c:	e1 f6       	brne	.-72     	; 0x4f46 <fputc+0x10>
    4f8e:	d8 01       	movw	r26, r16
    4f90:	16 96       	adiw	r26, 0x06	; 6
    4f92:	8d 91       	ld	r24, X+
    4f94:	9c 91       	ld	r25, X
    4f96:	17 97       	sbiw	r26, 0x07	; 7
    4f98:	01 96       	adiw	r24, 0x01	; 1
    4f9a:	17 96       	adiw	r26, 0x07	; 7
    4f9c:	9c 93       	st	X, r25
    4f9e:	8e 93       	st	-X, r24
    4fa0:	16 97       	sbiw	r26, 0x06	; 6
    4fa2:	ce 01       	movw	r24, r28
    4fa4:	df 91       	pop	r29
    4fa6:	cf 91       	pop	r28
    4fa8:	1f 91       	pop	r17
    4faa:	0f 91       	pop	r16
    4fac:	08 95       	ret

00004fae <__ultoa_invert>:
    4fae:	fa 01       	movw	r30, r20
    4fb0:	aa 27       	eor	r26, r26
    4fb2:	28 30       	cpi	r18, 0x08	; 8
    4fb4:	51 f1       	breq	.+84     	; 0x500a <__ultoa_invert+0x5c>
    4fb6:	20 31       	cpi	r18, 0x10	; 16
    4fb8:	81 f1       	breq	.+96     	; 0x501a <__ultoa_invert+0x6c>
    4fba:	e8 94       	clt
    4fbc:	6f 93       	push	r22
    4fbe:	6e 7f       	andi	r22, 0xFE	; 254
    4fc0:	6e 5f       	subi	r22, 0xFE	; 254
    4fc2:	7f 4f       	sbci	r23, 0xFF	; 255
    4fc4:	8f 4f       	sbci	r24, 0xFF	; 255
    4fc6:	9f 4f       	sbci	r25, 0xFF	; 255
    4fc8:	af 4f       	sbci	r26, 0xFF	; 255
    4fca:	b1 e0       	ldi	r27, 0x01	; 1
    4fcc:	3e d0       	rcall	.+124    	; 0x504a <__ultoa_invert+0x9c>
    4fce:	b4 e0       	ldi	r27, 0x04	; 4
    4fd0:	3c d0       	rcall	.+120    	; 0x504a <__ultoa_invert+0x9c>
    4fd2:	67 0f       	add	r22, r23
    4fd4:	78 1f       	adc	r23, r24
    4fd6:	89 1f       	adc	r24, r25
    4fd8:	9a 1f       	adc	r25, r26
    4fda:	a1 1d       	adc	r26, r1
    4fdc:	68 0f       	add	r22, r24
    4fde:	79 1f       	adc	r23, r25
    4fe0:	8a 1f       	adc	r24, r26
    4fe2:	91 1d       	adc	r25, r1
    4fe4:	a1 1d       	adc	r26, r1
    4fe6:	6a 0f       	add	r22, r26
    4fe8:	71 1d       	adc	r23, r1
    4fea:	81 1d       	adc	r24, r1
    4fec:	91 1d       	adc	r25, r1
    4fee:	a1 1d       	adc	r26, r1
    4ff0:	20 d0       	rcall	.+64     	; 0x5032 <__ultoa_invert+0x84>
    4ff2:	09 f4       	brne	.+2      	; 0x4ff6 <__ultoa_invert+0x48>
    4ff4:	68 94       	set
    4ff6:	3f 91       	pop	r19
    4ff8:	2a e0       	ldi	r18, 0x0A	; 10
    4ffa:	26 9f       	mul	r18, r22
    4ffc:	11 24       	eor	r1, r1
    4ffe:	30 19       	sub	r19, r0
    5000:	30 5d       	subi	r19, 0xD0	; 208
    5002:	31 93       	st	Z+, r19
    5004:	de f6       	brtc	.-74     	; 0x4fbc <__ultoa_invert+0xe>
    5006:	cf 01       	movw	r24, r30
    5008:	08 95       	ret
    500a:	46 2f       	mov	r20, r22
    500c:	47 70       	andi	r20, 0x07	; 7
    500e:	40 5d       	subi	r20, 0xD0	; 208
    5010:	41 93       	st	Z+, r20
    5012:	b3 e0       	ldi	r27, 0x03	; 3
    5014:	0f d0       	rcall	.+30     	; 0x5034 <__ultoa_invert+0x86>
    5016:	c9 f7       	brne	.-14     	; 0x500a <__ultoa_invert+0x5c>
    5018:	f6 cf       	rjmp	.-20     	; 0x5006 <__ultoa_invert+0x58>
    501a:	46 2f       	mov	r20, r22
    501c:	4f 70       	andi	r20, 0x0F	; 15
    501e:	40 5d       	subi	r20, 0xD0	; 208
    5020:	4a 33       	cpi	r20, 0x3A	; 58
    5022:	18 f0       	brcs	.+6      	; 0x502a <__ultoa_invert+0x7c>
    5024:	49 5d       	subi	r20, 0xD9	; 217
    5026:	31 fd       	sbrc	r19, 1
    5028:	40 52       	subi	r20, 0x20	; 32
    502a:	41 93       	st	Z+, r20
    502c:	02 d0       	rcall	.+4      	; 0x5032 <__ultoa_invert+0x84>
    502e:	a9 f7       	brne	.-22     	; 0x501a <__ultoa_invert+0x6c>
    5030:	ea cf       	rjmp	.-44     	; 0x5006 <__ultoa_invert+0x58>
    5032:	b4 e0       	ldi	r27, 0x04	; 4
    5034:	a6 95       	lsr	r26
    5036:	97 95       	ror	r25
    5038:	87 95       	ror	r24
    503a:	77 95       	ror	r23
    503c:	67 95       	ror	r22
    503e:	ba 95       	dec	r27
    5040:	c9 f7       	brne	.-14     	; 0x5034 <__ultoa_invert+0x86>
    5042:	00 97       	sbiw	r24, 0x00	; 0
    5044:	61 05       	cpc	r22, r1
    5046:	71 05       	cpc	r23, r1
    5048:	08 95       	ret
    504a:	9b 01       	movw	r18, r22
    504c:	ac 01       	movw	r20, r24
    504e:	0a 2e       	mov	r0, r26
    5050:	06 94       	lsr	r0
    5052:	57 95       	ror	r21
    5054:	47 95       	ror	r20
    5056:	37 95       	ror	r19
    5058:	27 95       	ror	r18
    505a:	ba 95       	dec	r27
    505c:	c9 f7       	brne	.-14     	; 0x5050 <__ultoa_invert+0xa2>
    505e:	62 0f       	add	r22, r18
    5060:	73 1f       	adc	r23, r19
    5062:	84 1f       	adc	r24, r20
    5064:	95 1f       	adc	r25, r21
    5066:	a0 1d       	adc	r26, r0
    5068:	08 95       	ret

0000506a <_exit>:
    506a:	f8 94       	cli

0000506c <__stop_program>:
    506c:	ff cf       	rjmp	.-2      	; 0x506c <__stop_program>
